In archive libEclipse_ArduinoCoreLib_167.a:

CDC.o:     file format elf32-avr

Sections:
Idx Name          Size      VMA       LMA       File off  Algn
  0 .text         00000000  00000000  00000000  00000034  2**0
                  CONTENTS, ALLOC, LOAD, READONLY, CODE
  1 .data         00000000  00000000  00000000  00000034  2**0
                  CONTENTS, ALLOC, LOAD, DATA
  2 .bss          00000000  00000000  00000000  00000034  2**0
                  ALLOC
  3 .stab         0000069c  00000000  00000000  00000034  2**2
                  CONTENTS, RELOC, READONLY, DEBUGGING
  4 .stabstr      000011a3  00000000  00000000  000006d0  2**0
                  CONTENTS, READONLY, DEBUGGING
  5 .comment      00000012  00000000  00000000  00001873  2**0
                  CONTENTS, READONLY

HardwareSerial.o:     file format elf32-avr

Sections:
Idx Name          Size      VMA       LMA       File off  Algn
  0 .group        00000008  00000000  00000000  00000034  2**2
                  CONTENTS, READONLY, EXCLUDE, GROUP, LINK_ONCE_DISCARD
  1 .text         00000000  00000000  00000000  0000003c  2**0
                  CONTENTS, ALLOC, LOAD, READONLY, CODE
  2 .data         00000028  00000000  00000000  0000003c  2**0
                  CONTENTS, ALLOC, LOAD, DATA
  3 .bss          00000000  00000000  00000000  00000064  2**0
                  ALLOC
  4 .stab         00000c3c  00000000  00000000  00000064  2**2
                  CONTENTS, RELOC, READONLY, DEBUGGING
  5 .stabstr      0000161f  00000000  00000000  00000ca0  2**0
                  CONTENTS, READONLY, DEBUGGING
  6 .text._ZN14HardwareSerial9availableEv 00000016  00000000  00000000  000022bf  2**0
                  CONTENTS, ALLOC, LOAD, READONLY, CODE
  7 .text._ZN14HardwareSerial4peekEv 0000001c  00000000  00000000  000022d5  2**0
                  CONTENTS, ALLOC, LOAD, RELOC, READONLY, CODE
  8 .text._ZN14HardwareSerial4readEv 00000028  00000000  00000000  000022f1  2**0
                  CONTENTS, ALLOC, LOAD, RELOC, READONLY, CODE
  9 .text._Z14serialEventRunv 0000001c  00000000  00000000  00002319  2**0
                  CONTENTS, ALLOC, LOAD, RELOC, READONLY, CODE
 10 .text._ZN14HardwareSerial17_tx_udr_empty_irqEv 00000042  00000000  00000000  00002335  2**0
                  CONTENTS, ALLOC, LOAD, RELOC, READONLY, CODE
 11 .text._ZN14HardwareSerial5flushEv 00000044  00000000  00000000  00002377  2**0
                  CONTENTS, ALLOC, LOAD, RELOC, READONLY, CODE
 12 .text._ZN14HardwareSerial5writeEh 000000ca  00000000  00000000  000023bb  2**0
                  CONTENTS, ALLOC, LOAD, RELOC, READONLY, CODE
 13 .text._ZN14HardwareSerial5beginEmh 000000c4  00000000  00000000  00002485  2**0
                  CONTENTS, ALLOC, LOAD, RELOC, READONLY, CODE
 14 .text._ZN14HardwareSerial3endEv 00000044  00000000  00000000  00002549  2**0
                  CONTENTS, ALLOC, LOAD, READONLY, CODE
 15 .text._ZN14HardwareSerial17availableForWriteEv 0000001e  00000000  00000000  0000258d  2**0
                  CONTENTS, ALLOC, LOAD, RELOC, READONLY, CODE
 16 .rodata._ZTV14HardwareSerial 00000010  00000000  00000000  000025ab  2**0
                  CONTENTS, ALLOC, LOAD, RELOC, READONLY, DATA
 17 .comment      00000012  00000000  00000000  000025bb  2**0
                  CONTENTS, READONLY

Disassembly of section .text._ZN14HardwareSerial9availableEv:

00000000 <_ZN14HardwareSerial9availableEv>:
{
#if (SERIAL_TX_BUFFER_SIZE>256)
  uint8_t oldSREG = SREG;
  cli();
#endif
  tx_buffer_index_t head = _tx_buffer_head;
   0:	fc 01       	movw	r30, r24
#if (SERIAL_TX_BUFFER_SIZE>256)
  SREG = oldSREG;
#endif
  if (head >= tail) return SERIAL_TX_BUFFER_SIZE - 1 - head + tail;
  return tail - head - 1;
}
  2a:	81 8d       	Address 0x000000000000002a is out of bounds.
.word	0xffff	; ????
  2c:	22 8d       	Address 0x000000000000002c is out of bounds.
.word	0xffff	; ????
  2e:	90 e0       	Address 0x000000000000002e is out of bounds.
.word	0xffff	; ????
  30:	80 5c       	Address 0x0000000000000030 is out of bounds.
.word	0xffff	; ????
  32:	9f 4f       	Address 0x0000000000000032 is out of bounds.
.word	0xffff	; ????
  34:	82 1b       	Address 0x0000000000000034 is out of bounds.
.word	0xffff	; ????
  36:	91 09       	Address 0x0000000000000036 is out of bounds.
.word	0xffff	; ????
  38:	8f 73       	Address 0x0000000000000038 is out of bounds.
.word	0xffff	; ????
  3a:	99 27       	Address 0x000000000000003a is out of bounds.
.word	0xffff	; ????
  3c:	08 95       	Address 0x000000000000003c is out of bounds.
.word	0xffff	; ????

Disassembly of section .text._ZN14HardwareSerial4peekEv:

00000066 <_ZN14HardwareSerial4peekEv>:
  66:	fc 01       	movw	r30, r24
  68:	91 8d       	ldd	r25, Z+25	; 0x19
  6a:	82 8d       	ldd	r24, Z+26	; 0x1a
  6c:	98 17       	cp	r25, r24
  6e:	01 f0       	breq	.+0      	; 0x70 <_ZN14HardwareSerial4peekEv+0xa>
  70:	82 8d       	ldd	r24, Z+26	; 0x1a
  72:	e8 0f       	add	r30, r24
  74:	f1 1d       	adc	r31, r1
  76:	85 8d       	ldd	r24, Z+29	; 0x1d
  78:	90 e0       	ldi	r25, 0x00	; 0
  7a:	08 95       	ret
  7c:	8f ef       	ldi	r24, 0xFF	; 255
  7e:	9f ef       	ldi	r25, 0xFF	; 255
  80:	08 95       	ret

Disassembly of section .text._ZN14HardwareSerial4readEv:

000000e8 <_ZN14HardwareSerial4readEv>:
  e8:	fc 01       	movw	r30, r24
  ea:	91 8d       	ldd	r25, Z+25	; 0x19
  ec:	82 8d       	ldd	r24, Z+26	; 0x1a
  ee:	98 17       	cp	r25, r24
  f0:	01 f0       	breq	.+0      	; 0xf2 <_ZN14HardwareSerial4readEv+0xa>
  f2:	82 8d       	ldd	r24, Z+26	; 0x1a
  f4:	df 01       	movw	r26, r30
  f6:	a8 0f       	add	r26, r24
  f8:	b1 1d       	adc	r27, r1
  fa:	5d 96       	adiw	r26, 0x1d	; 29
  fc:	8c 91       	ld	r24, X
  fe:	92 8d       	ldd	r25, Z+26	; 0x1a
 100:	9f 5f       	subi	r25, 0xFF	; 255
 102:	9f 73       	andi	r25, 0x3F	; 63
 104:	92 8f       	std	Z+26, r25	; 0x1a
 106:	90 e0       	ldi	r25, 0x00	; 0
 108:	08 95       	ret
 10a:	8f ef       	ldi	r24, 0xFF	; 255
 10c:	9f ef       	ldi	r25, 0xFF	; 255
 10e:	08 95       	ret

Disassembly of section .text._Z14serialEventRunv:

000001f8 <_Z14serialEventRunv>:
 1f8:	80 e0       	ldi	r24, 0x00	; 0
 1fa:	90 e0       	ldi	r25, 0x00	; 0
 1fc:	89 2b       	or	r24, r25
 1fe:	01 f0       	breq	.+0      	; 0x200 <_Z14serialEventRunv+0x8>
 200:	80 e0       	ldi	r24, 0x00	; 0
 202:	90 e0       	ldi	r25, 0x00	; 0
 204:	89 2b       	or	r24, r25
 206:	01 f0       	breq	.+0      	; 0x208 <_Z14serialEventRunv+0x10>
 208:	0e 94 00 00 	call	0	; 0x0 <__tmp_reg__>
 20c:	81 11       	cpse	r24, r1
 20e:	0c 94 00 00 	jmp	0	; 0x0 <__tmp_reg__>
 212:	08 95       	ret

Disassembly of section .text._ZN14HardwareSerial17_tx_udr_empty_irqEv:

0000040c <_ZN14HardwareSerial17_tx_udr_empty_irqEv>:
 40c:	fc 01       	movw	r30, r24
 40e:	84 8d       	ldd	r24, Z+28	; 0x1c
 410:	df 01       	movw	r26, r30
 412:	a8 0f       	add	r26, r24
 414:	b1 1d       	adc	r27, r1
 416:	a3 5a       	subi	r26, 0xA3	; 163
 418:	bf 4f       	sbci	r27, 0xFF	; 255
 41a:	2c 91       	ld	r18, X
 41c:	84 8d       	ldd	r24, Z+28	; 0x1c
 41e:	90 e0       	ldi	r25, 0x00	; 0
 420:	01 96       	adiw	r24, 0x01	; 1
 422:	8f 73       	andi	r24, 0x3F	; 63
 424:	99 27       	eor	r25, r25
 426:	84 8f       	std	Z+28, r24	; 0x1c
 428:	a6 89       	ldd	r26, Z+22	; 0x16
 42a:	b7 89       	ldd	r27, Z+23	; 0x17
 42c:	2c 93       	st	X, r18
 42e:	a0 89       	ldd	r26, Z+16	; 0x10
 430:	b1 89       	ldd	r27, Z+17	; 0x11
 432:	8c 91       	ld	r24, X
 434:	80 64       	ori	r24, 0x40	; 64
 436:	8c 93       	st	X, r24
 438:	93 8d       	ldd	r25, Z+27	; 0x1b
 43a:	84 8d       	ldd	r24, Z+28	; 0x1c
 43c:	98 13       	cpse	r25, r24
 43e:	00 c0       	rjmp	.+0      	; 0x440 <_ZN14HardwareSerial17_tx_udr_empty_irqEv+0x34>
 440:	02 88       	ldd	r0, Z+18	; 0x12
 442:	f3 89       	ldd	r31, Z+19	; 0x13
 444:	e0 2d       	mov	r30, r0
 446:	80 81       	ld	r24, Z
 448:	8f 7d       	andi	r24, 0xDF	; 223
 44a:	80 83       	st	Z, r24
 44c:	08 95       	ret

Disassembly of section .text._ZN14HardwareSerial5flushEv:

0000085a <_ZN14HardwareSerial5flushEv>:
 85a:	cf 93       	push	r28
 85c:	df 93       	push	r29
 85e:	ec 01       	movw	r28, r24
 860:	88 8d       	ldd	r24, Y+24	; 0x18
 862:	88 23       	and	r24, r24
 864:	01 f0       	breq	.+0      	; 0x866 <_ZN14HardwareSerial5flushEv+0xc>
 866:	ea 89       	ldd	r30, Y+18	; 0x12
 868:	fb 89       	ldd	r31, Y+19	; 0x13
 86a:	80 81       	ld	r24, Z
 86c:	85 fd       	sbrc	r24, 5
 86e:	00 c0       	rjmp	.+0      	; 0x870 <_ZN14HardwareSerial5flushEv+0x16>
 870:	a8 89       	ldd	r26, Y+16	; 0x10
 872:	b9 89       	ldd	r27, Y+17	; 0x11
 874:	8c 91       	ld	r24, X
 876:	86 fd       	sbrc	r24, 6
 878:	00 c0       	rjmp	.+0      	; 0x87a <_ZN14HardwareSerial5flushEv+0x20>
 87a:	0f b6       	in	r0, 0x3f	; 63
 87c:	07 fc       	sbrc	r0, 7
 87e:	00 c0       	rjmp	.+0      	; 0x880 <_ZN14HardwareSerial5flushEv+0x26>
 880:	80 81       	ld	r24, Z
 882:	85 ff       	sbrs	r24, 5
 884:	00 c0       	rjmp	.+0      	; 0x886 <_ZN14HardwareSerial5flushEv+0x2c>
 886:	a8 89       	ldd	r26, Y+16	; 0x10
 888:	b9 89       	ldd	r27, Y+17	; 0x11
 88a:	8c 91       	ld	r24, X
 88c:	85 ff       	sbrs	r24, 5
 88e:	00 c0       	rjmp	.+0      	; 0x890 <_ZN14HardwareSerial5flushEv+0x36>
 890:	ce 01       	movw	r24, r28
 892:	0e 94 00 00 	call	0	; 0x0 <__tmp_reg__>
 896:	00 c0       	rjmp	.+0      	; 0x898 <_ZN14HardwareSerial5flushEv+0x3e>
 898:	df 91       	pop	r29
 89a:	cf 91       	pop	r28
 89c:	08 95       	ret

Disassembly of section .text._ZN14HardwareSerial5writeEh:

000010f8 <_ZN14HardwareSerial5writeEh>:
    10f8:	cf 92       	push	r12
    10fa:	df 92       	push	r13
    10fc:	ff 92       	push	r15
    10fe:	0f 93       	push	r16
    1100:	1f 93       	push	r17
    1102:	cf 93       	push	r28
    1104:	df 93       	push	r29
    1106:	1f 92       	push	r1
    1108:	cd b7       	in	r28, 0x3d	; 61
    110a:	de b7       	in	r29, 0x3e	; 62
    110c:	6c 01       	movw	r12, r24
    110e:	81 e0       	ldi	r24, 0x01	; 1
    1110:	d6 01       	movw	r26, r12
    1112:	58 96       	adiw	r26, 0x18	; 24
    1114:	8c 93       	st	X, r24
    1116:	58 97       	sbiw	r26, 0x18	; 24
    1118:	5b 96       	adiw	r26, 0x1b	; 27
    111a:	9c 91       	ld	r25, X
    111c:	5b 97       	sbiw	r26, 0x1b	; 27
    111e:	5c 96       	adiw	r26, 0x1c	; 28
    1120:	8c 91       	ld	r24, X
    1122:	5c 97       	sbiw	r26, 0x1c	; 28
    1124:	98 13       	cpse	r25, r24
    1126:	00 c0       	rjmp	.+0      	; 0x1128 <_ZN14HardwareSerial5writeEh+0x30>
    1128:	50 96       	adiw	r26, 0x10	; 16
    112a:	ed 91       	ld	r30, X+
    112c:	fc 91       	ld	r31, X
    112e:	51 97       	sbiw	r26, 0x11	; 17
    1130:	80 81       	ld	r24, Z
    1132:	85 fd       	sbrc	r24, 5
    1134:	00 c0       	rjmp	.+0      	; 0x1136 <_ZN14HardwareSerial5writeEh+0x3e>
    1136:	f6 01       	movw	r30, r12
    1138:	03 8d       	ldd	r16, Z+27	; 0x1b
    113a:	10 e0       	ldi	r17, 0x00	; 0
    113c:	0f 5f       	subi	r16, 0xFF	; 255
    113e:	1f 4f       	sbci	r17, 0xFF	; 255
    1140:	0f 73       	andi	r16, 0x3F	; 63
    1142:	11 27       	eor	r17, r17
    1144:	f0 2e       	mov	r15, r16
    1146:	f6 01       	movw	r30, r12
    1148:	84 8d       	ldd	r24, Z+28	; 0x1c
    114a:	f8 12       	cpse	r15, r24
    114c:	00 c0       	rjmp	.+0      	; 0x114e <_ZN14HardwareSerial5writeEh+0x56>
    114e:	0f b6       	in	r0, 0x3f	; 63
    1150:	07 fc       	sbrc	r0, 7
    1152:	00 c0       	rjmp	.+0      	; 0x1154 <_ZN14HardwareSerial5writeEh+0x5c>
    1154:	d6 01       	movw	r26, r12
    1156:	50 96       	adiw	r26, 0x10	; 16
    1158:	ed 91       	ld	r30, X+
    115a:	fc 91       	ld	r31, X
    115c:	51 97       	sbiw	r26, 0x11	; 17
    115e:	80 81       	ld	r24, Z
    1160:	85 ff       	sbrs	r24, 5
    1162:	00 c0       	rjmp	.+0      	; 0x1164 <_ZN14HardwareSerial5writeEh+0x6c>
    1164:	c6 01       	movw	r24, r12
    1166:	69 83       	std	Y+1, r22	; 0x01
    1168:	0e 94 00 00 	call	0	; 0x0 <__tmp_reg__>
    116c:	69 81       	ldd	r22, Y+1	; 0x01
    116e:	00 c0       	rjmp	.+0      	; 0x1170 <_ZN14HardwareSerial5writeEh+0x78>
    1170:	83 8d       	ldd	r24, Z+27	; 0x1b
    1172:	e8 0f       	add	r30, r24
    1174:	f1 1d       	adc	r31, r1
    1176:	e3 5a       	subi	r30, 0xA3	; 163
    1178:	ff 4f       	sbci	r31, 0xFF	; 255
    117a:	60 83       	st	Z, r22
    117c:	d6 01       	movw	r26, r12
    117e:	5b 96       	adiw	r26, 0x1b	; 27
    1180:	0c 93       	st	X, r16
    1182:	5b 97       	sbiw	r26, 0x1b	; 27
    1184:	52 96       	adiw	r26, 0x12	; 18
    1186:	ed 91       	ld	r30, X+
    1188:	fc 91       	ld	r31, X
    118a:	53 97       	sbiw	r26, 0x13	; 19
    118c:	80 81       	ld	r24, Z
    118e:	80 62       	ori	r24, 0x20	; 32
    1190:	00 c0       	rjmp	.+0      	; 0x1192 <_ZN14HardwareSerial5writeEh+0x9a>
    1192:	d6 01       	movw	r26, r12
    1194:	56 96       	adiw	r26, 0x16	; 22
    1196:	ed 91       	ld	r30, X+
    1198:	fc 91       	ld	r31, X
    119a:	57 97       	sbiw	r26, 0x17	; 23
    119c:	60 83       	st	Z, r22
    119e:	50 96       	adiw	r26, 0x10	; 16
    11a0:	ed 91       	ld	r30, X+
    11a2:	fc 91       	ld	r31, X
    11a4:	51 97       	sbiw	r26, 0x11	; 17
    11a6:	80 81       	ld	r24, Z
    11a8:	80 64       	ori	r24, 0x40	; 64
    11aa:	80 83       	st	Z, r24
    11ac:	81 e0       	ldi	r24, 0x01	; 1
    11ae:	90 e0       	ldi	r25, 0x00	; 0
    11b0:	0f 90       	pop	r0
    11b2:	df 91       	pop	r29
    11b4:	cf 91       	pop	r28
    11b6:	1f 91       	pop	r17
    11b8:	0f 91       	pop	r16
    11ba:	ff 90       	pop	r15
    11bc:	df 90       	pop	r13
    11be:	cf 90       	pop	r12
    11c0:	08 95       	ret

Disassembly of section .text._ZN14HardwareSerial5beginEmh:

000022ba <_ZN14HardwareSerial5beginEmh>:
    22ba:	bf 92       	push	r11
    22bc:	cf 92       	push	r12
    22be:	df 92       	push	r13
    22c0:	ef 92       	push	r14
    22c2:	ff 92       	push	r15
    22c4:	cf 93       	push	r28
    22c6:	df 93       	push	r29
    22c8:	ec 01       	movw	r28, r24
    22ca:	6a 01       	movw	r12, r20
    22cc:	7b 01       	movw	r14, r22
    22ce:	b2 2e       	mov	r11, r18
    22d0:	e8 89       	ldd	r30, Y+16	; 0x10
    22d2:	f9 89       	ldd	r31, Y+17	; 0x11
    22d4:	82 e0       	ldi	r24, 0x02	; 2
    22d6:	80 83       	st	Z, r24
    22d8:	41 15       	cp	r20, r1
    22da:	81 ee       	ldi	r24, 0xE1	; 225
    22dc:	58 07       	cpc	r21, r24
    22de:	61 05       	cpc	r22, r1
    22e0:	71 05       	cpc	r23, r1
    22e2:	01 f0       	breq	.+0      	; 0x22e4 <_ZN14HardwareSerial5beginEmh+0x2a>
    22e4:	60 e0       	ldi	r22, 0x00	; 0
    22e6:	79 e0       	ldi	r23, 0x09	; 9
    22e8:	8d e3       	ldi	r24, 0x3D	; 61
    22ea:	90 e0       	ldi	r25, 0x00	; 0
    22ec:	a7 01       	movw	r20, r14
    22ee:	96 01       	movw	r18, r12
    22f0:	0e 94 00 00 	call	0	; 0x0 <__tmp_reg__>
    22f4:	21 50       	subi	r18, 0x01	; 1
    22f6:	31 09       	sbc	r19, r1
    22f8:	41 09       	sbc	r20, r1
    22fa:	51 09       	sbc	r21, r1
    22fc:	56 95       	lsr	r21
    22fe:	47 95       	ror	r20
    2300:	37 95       	ror	r19
    2302:	27 95       	ror	r18
    2304:	21 15       	cp	r18, r1
    2306:	80 e1       	ldi	r24, 0x10	; 16
    2308:	38 07       	cpc	r19, r24
    230a:	00 f0       	brcs	.+0      	; 0x230c <_ZN14HardwareSerial5beginEmh+0x52>
    230c:	e8 89       	ldd	r30, Y+16	; 0x10
    230e:	f9 89       	ldd	r31, Y+17	; 0x11
    2310:	10 82       	st	Z, r1
    2312:	60 e8       	ldi	r22, 0x80	; 128
    2314:	74 e8       	ldi	r23, 0x84	; 132
    2316:	8e e1       	ldi	r24, 0x1E	; 30
    2318:	90 e0       	ldi	r25, 0x00	; 0
    231a:	a7 01       	movw	r20, r14
    231c:	96 01       	movw	r18, r12
    231e:	0e 94 00 00 	call	0	; 0x0 <__tmp_reg__>
    2322:	21 50       	subi	r18, 0x01	; 1
    2324:	31 09       	sbc	r19, r1
    2326:	41 09       	sbc	r20, r1
    2328:	51 09       	sbc	r21, r1
    232a:	56 95       	lsr	r21
    232c:	47 95       	ror	r20
    232e:	37 95       	ror	r19
    2330:	27 95       	ror	r18
    2332:	ec 85       	ldd	r30, Y+12	; 0x0c
    2334:	fd 85       	ldd	r31, Y+13	; 0x0d
    2336:	30 83       	st	Z, r19
    2338:	ee 85       	ldd	r30, Y+14	; 0x0e
    233a:	ff 85       	ldd	r31, Y+15	; 0x0f
    233c:	20 83       	st	Z, r18
    233e:	18 8e       	std	Y+24, r1	; 0x18
    2340:	ec 89       	ldd	r30, Y+20	; 0x14
    2342:	fd 89       	ldd	r31, Y+21	; 0x15
    2344:	b0 82       	st	Z, r11
    2346:	ea 89       	ldd	r30, Y+18	; 0x12
    2348:	fb 89       	ldd	r31, Y+19	; 0x13
    234a:	80 81       	ld	r24, Z
    234c:	80 61       	ori	r24, 0x10	; 16
    234e:	80 83       	st	Z, r24
    2350:	ea 89       	ldd	r30, Y+18	; 0x12
    2352:	fb 89       	ldd	r31, Y+19	; 0x13
    2354:	80 81       	ld	r24, Z
    2356:	88 60       	ori	r24, 0x08	; 8
    2358:	80 83       	st	Z, r24
    235a:	ea 89       	ldd	r30, Y+18	; 0x12
    235c:	fb 89       	ldd	r31, Y+19	; 0x13
    235e:	80 81       	ld	r24, Z
    2360:	80 68       	ori	r24, 0x80	; 128
    2362:	80 83       	st	Z, r24
    2364:	ea 89       	ldd	r30, Y+18	; 0x12
    2366:	fb 89       	ldd	r31, Y+19	; 0x13
    2368:	80 81       	ld	r24, Z
    236a:	8f 7d       	andi	r24, 0xDF	; 223
    236c:	80 83       	st	Z, r24
    236e:	df 91       	pop	r29
    2370:	cf 91       	pop	r28
    2372:	ff 90       	pop	r15
    2374:	ef 90       	pop	r14
    2376:	df 90       	pop	r13
    2378:	cf 90       	pop	r12
    237a:	bf 90       	pop	r11
    237c:	08 95       	ret

Disassembly of section .text._ZN14HardwareSerial3endEv:

00004638 <_ZN14HardwareSerial3endEv>:
    4638:	cf 93       	push	r28
    463a:	df 93       	push	r29
    463c:	ec 01       	movw	r28, r24
    463e:	e8 81       	ld	r30, Y
    4640:	f9 81       	ldd	r31, Y+1	; 0x01
    4642:	02 84       	ldd	r0, Z+10	; 0x0a
    4644:	f3 85       	ldd	r31, Z+11	; 0x0b
    4646:	e0 2d       	mov	r30, r0
    4648:	09 95       	icall
    464a:	ea 89       	ldd	r30, Y+18	; 0x12
    464c:	fb 89       	ldd	r31, Y+19	; 0x13
    464e:	80 81       	ld	r24, Z
    4650:	8f 7e       	andi	r24, 0xEF	; 239
    4652:	80 83       	st	Z, r24
    4654:	ea 89       	ldd	r30, Y+18	; 0x12
    4656:	fb 89       	ldd	r31, Y+19	; 0x13
    4658:	80 81       	ld	r24, Z
    465a:	87 7f       	andi	r24, 0xF7	; 247
    465c:	80 83       	st	Z, r24
    465e:	ea 89       	ldd	r30, Y+18	; 0x12
    4660:	fb 89       	ldd	r31, Y+19	; 0x13
    4662:	80 81       	ld	r24, Z
    4664:	8f 77       	andi	r24, 0x7F	; 127
    4666:	80 83       	st	Z, r24
    4668:	ea 89       	ldd	r30, Y+18	; 0x12
    466a:	fb 89       	ldd	r31, Y+19	; 0x13
    466c:	80 81       	ld	r24, Z
    466e:	8f 7d       	andi	r24, 0xDF	; 223
    4670:	80 83       	st	Z, r24
    4672:	8a 8d       	ldd	r24, Y+26	; 0x1a
    4674:	89 8f       	std	Y+25, r24	; 0x19
    4676:	df 91       	pop	r29
    4678:	cf 91       	pop	r28
    467a:	08 95       	ret

Disassembly of section .text._ZN14HardwareSerial17availableForWriteEv:

00008cb4 <_ZN14HardwareSerial17availableForWriteEv>:
    8cb4:	fc 01       	movw	r30, r24
    8cb6:	53 8d       	ldd	r21, Z+27	; 0x1b
    8cb8:	44 8d       	ldd	r20, Z+28	; 0x1c
    8cba:	25 2f       	mov	r18, r21
    8cbc:	30 e0       	ldi	r19, 0x00	; 0
    8cbe:	84 2f       	mov	r24, r20
    8cc0:	90 e0       	ldi	r25, 0x00	; 0
    8cc2:	82 1b       	sub	r24, r18
    8cc4:	93 0b       	sbc	r25, r19
    8cc6:	54 17       	cp	r21, r20
    8cc8:	00 f0       	brcs	.+0      	; 0x8cca <_ZN14HardwareSerial17availableForWriteEv+0x16>
    8cca:	cf 96       	adiw	r24, 0x3f	; 63
    8ccc:	08 95       	ret
    8cce:	01 97       	sbiw	r24, 0x01	; 1
    8cd0:	08 95       	ret

HardwareSerial0.o:     file format elf32-avr

Sections:
Idx Name          Size      VMA       LMA       File off  Algn
  0 .text         00000000  00000000  00000000  00000034  2**0
                  CONTENTS, ALLOC, LOAD, READONLY, CODE
  1 .data         00000010  00000000  00000000  00000034  2**0
                  CONTENTS, ALLOC, LOAD, DATA
  2 .bss          00000000  00000000  00000000  00000044  2**0
                  ALLOC
  3 .stab         00000834  00000000  00000000  00000044  2**2
                  CONTENTS, RELOC, READONLY, DEBUGGING
  4 .stabstr      00001406  00000000  00000000  00000878  2**0
                  CONTENTS, READONLY, DEBUGGING
  5 .text.__vector_18 00000080  00000000  00000000  00001c7e  2**0
                  CONTENTS, ALLOC, LOAD, RELOC, READONLY, CODE
  6 .text.__vector_19 0000004c  00000000  00000000  00001cfe  2**0
                  CONTENTS, ALLOC, LOAD, RELOC, READONLY, CODE
  7 .text._Z17Serial0_availablev 00000014  00000000  00000000  00001d4a  2**0
                  CONTENTS, ALLOC, LOAD, RELOC, READONLY, CODE
  8 .text.startup._GLOBAL__sub_I___vector_18 00000086  00000000  00000000  00001d5e  2**0
                  CONTENTS, ALLOC, LOAD, RELOC, READONLY, CODE
  9 .ctors        00000002  00000000  00000000  00001de4  2**1
                  CONTENTS, ALLOC, LOAD, RELOC, READONLY, DATA
 10 .bss.Serial   0000009d  00000000  00000000  00001de6  2**0
                  ALLOC
 11 .comment      00000012  00000000  00000000  00001de6  2**0
                  CONTENTS, READONLY

Disassembly of section .text.__vector_18:

00000000 <__vector_18>:
    size_t printNumber(unsigned long, uint8_t);
    size_t printFloat(double, uint8_t);
  protected:
    void setWriteError(int err = 1) { write_error = err; }
  public:
    Print() : write_error(0) {}
   0:	1f 92       	push	r1
    virtual int available() = 0;
    virtual int read() = 0;
    virtual int peek() = 0;
    virtual void flush() = 0;

    Stream() {_timeout=1000;}
  12:	0f 92       	push	r22
  14:	0f b6       	push	r23
  16:	0f 92       	push	r24
  18:	11 24       	push	r25
  1a:	2f 93       	push	r26
  1c:	3f 93       	push	r27
  1e:	4f 93       	push	r30
  volatile uint8_t *ucsrc, volatile uint8_t *udr) :
    _ubrrh(ubrrh), _ubrrl(ubrrl),
    _ucsra(ucsra), _ucsrb(ucsrb), _ucsrc(ucsrc),
    _udr(udr),
    _rx_buffer_head(0), _rx_buffer_tail(0),
    _tx_buffer_head(0), _tx_buffer_tail(0)
  20:	5f 93       	push	r31
  22:	6f 93 7f 93 	lds	r30, 0x0000
  26:	8f 93 9f 93 	lds	r31, 0x0000
  2a:	af 93       	ld	r24, Z
  2c:	bf 93 ef 93 	lds	r30, 0x0000
  30:	ff 93 e0 91 	lds	r31, 0x0000
  34:	00 00       	sbrc	r24, 2
  36:	f0 91       	rjmp	.+0      	; 0x38 <__vector_18+0x28>
  38:	00 00       	ld	r25, Z
  3a:	80 81 e0 91 	lds	r24, 0x0000
  3e:	00 00       	subi	r24, 0xFF	; 255
  40:	f0 91       	andi	r24, 0x3F	; 63
  42:	00 00 82 fd 	lds	r18, 0x0000
  46:	00 c0       	cp	r24, r18
  48:	90 81       	breq	.+0      	; 0x4a <__vector_18+0x3a>
  4a:	80 91 00 00 	lds	r30, 0x0000
  4e:	8f 5f       	ldi	r31, 0x00	; 0
  50:	8f 73       	subi	r30, 0x00	; 0
  52:	20 91       	sbci	r31, 0x00	; 0
  54:	00 00       	std	Z+29, r25	; 0x1d
  56:	82 17 01 f0 	sts	0x0000, r24
  5a:	e0 91       	rjmp	.+0      	; 0x5c <__vector_18+0x4c>
  5c:	00 00       	ld	r24, Z
  5e:	f0 e0       	pop	r31
  60:	e0 50       	pop	r30
  62:	f0 40       	pop	r27
  64:	95 8f       	pop	r26
  66:	80 93       	pop	r25
  68:	00 00       	pop	r24
  6a:	00 c0       	pop	r23
  6c:	80 81       	pop	r22
  6e:	ff 91       	pop	r21
  70:	ef 91       	pop	r20
  72:	bf 91       	pop	r19
  74:	af 91       	pop	r18
  76:	9f 91       	pop	r0
  78:	8f 91       	out	0x3f, r0	; 63
  7a:	7f 91       	pop	r0
  7c:	6f 91       	pop	r1
  7e:	5f 91       	reti
  80:	4f 91       	Address 0x0000000000000080 is out of bounds.
.word	0xffff	; ????
  82:	3f 91       	Address 0x0000000000000082 is out of bounds.
.word	0xffff	; ????
  84:	2f 91       	Address 0x0000000000000084 is out of bounds.
.word	0xffff	; ????
  86:	0f 90       	Address 0x0000000000000086 is out of bounds.
.word	0xffff	; ????
  88:	0f be       	Address 0x0000000000000088 is out of bounds.
.word	0xffff	; ????
  8a:	0f 90       	Address 0x000000000000008a is out of bounds.
.word	0xffff	; ????
  8c:	1f 90       	Address 0x000000000000008c is out of bounds.
.word	0xffff	; ????
  8e:	18 95       	Address 0x000000000000008e is out of bounds.
.word	0xffff	; ????

Disassembly of section .text.__vector_19:

000000a0 <__vector_19>:
  a0:	1f 92       	push	r1
  a2:	0f 92       	push	r0
  a4:	0f b6       	in	r0, 0x3f	; 63
  a6:	0f 92       	push	r0
  a8:	11 24       	eor	r1, r1
  aa:	2f 93       	push	r18
  ac:	3f 93       	push	r19
  ae:	4f 93       	push	r20
  b0:	5f 93       	push	r21
  b2:	6f 93       	push	r22
  b4:	7f 93       	push	r23
  b6:	8f 93       	push	r24
  b8:	9f 93       	push	r25
  ba:	af 93       	push	r26
  bc:	bf 93       	push	r27
  be:	ef 93       	push	r30
  c0:	ff 93       	push	r31
  c2:	80 e0       	ldi	r24, 0x00	; 0
  c4:	90 e0       	ldi	r25, 0x00	; 0
  c6:	0e 94 00 00 	call	0	; 0x0 <Serial>
  ca:	ff 91       	pop	r31
  cc:	ef 91       	pop	r30
  ce:	bf 91       	pop	r27
  d0:	af 91       	pop	r26
  d2:	9f 91       	pop	r25
  d4:	8f 91       	pop	r24
  d6:	7f 91       	pop	r23
  d8:	6f 91       	pop	r22
  da:	5f 91       	pop	r21
  dc:	4f 91       	pop	r20
  de:	3f 91       	pop	r19
  e0:	2f 91       	pop	r18
  e2:	0f 90       	pop	r0
  e4:	0f be       	out	0x3f, r0	; 63
  e6:	0f 90       	pop	r0
  e8:	1f 90       	pop	r1
  ea:	18 95       	reti

Disassembly of section .text._Z17Serial0_availablev:

0000018c <_Z17Serial0_availablev>:
 18c:	80 e0       	ldi	r24, 0x00	; 0
 18e:	90 e0       	ldi	r25, 0x00	; 0
 190:	0e 94 00 00 	call	0	; 0x0 <Serial>
 194:	21 e0       	ldi	r18, 0x01	; 1
 196:	89 2b       	or	r24, r25
 198:	01 f4       	brne	.+0      	; 0x19a <_Z17Serial0_availablev+0xe>
 19a:	20 e0       	ldi	r18, 0x00	; 0
 19c:	82 2f       	mov	r24, r18
 19e:	08 95       	ret

Disassembly of section .text.startup._GLOBAL__sub_I___vector_18:

0000032c <_GLOBAL__sub_I___vector_18>:
 32c:	10 92 00 00 	sts	0x0000, r1
 330:	10 92 00 00 	sts	0x0000, r1
 334:	88 ee       	ldi	r24, 0xE8	; 232
 336:	93 e0       	ldi	r25, 0x03	; 3
 338:	a0 e0       	ldi	r26, 0x00	; 0
 33a:	b0 e0       	ldi	r27, 0x00	; 0
 33c:	80 93 00 00 	sts	0x0000, r24
 340:	90 93 00 00 	sts	0x0000, r25
 344:	a0 93 00 00 	sts	0x0000, r26
 348:	b0 93 00 00 	sts	0x0000, r27
 34c:	80 e0       	ldi	r24, 0x00	; 0
 34e:	90 e0       	ldi	r25, 0x00	; 0
 350:	90 93 00 00 	sts	0x0000, r25
 354:	80 93 00 00 	sts	0x0000, r24
 358:	85 ec       	ldi	r24, 0xC5	; 197
 35a:	90 e0       	ldi	r25, 0x00	; 0
 35c:	90 93 00 00 	sts	0x0000, r25
 360:	80 93 00 00 	sts	0x0000, r24
 364:	84 ec       	ldi	r24, 0xC4	; 196
 366:	90 e0       	ldi	r25, 0x00	; 0
 368:	90 93 00 00 	sts	0x0000, r25
 36c:	80 93 00 00 	sts	0x0000, r24
 370:	80 ec       	ldi	r24, 0xC0	; 192
 372:	90 e0       	ldi	r25, 0x00	; 0
 374:	90 93 00 00 	sts	0x0000, r25
 378:	80 93 00 00 	sts	0x0000, r24
 37c:	81 ec       	ldi	r24, 0xC1	; 193
 37e:	90 e0       	ldi	r25, 0x00	; 0
 380:	90 93 00 00 	sts	0x0000, r25
 384:	80 93 00 00 	sts	0x0000, r24
 388:	82 ec       	ldi	r24, 0xC2	; 194
 38a:	90 e0       	ldi	r25, 0x00	; 0
 38c:	90 93 00 00 	sts	0x0000, r25
 390:	80 93 00 00 	sts	0x0000, r24
 394:	86 ec       	ldi	r24, 0xC6	; 198
 396:	90 e0       	ldi	r25, 0x00	; 0
 398:	90 93 00 00 	sts	0x0000, r25
 39c:	80 93 00 00 	sts	0x0000, r24
 3a0:	10 92 00 00 	sts	0x0000, r1
 3a4:	10 92 00 00 	sts	0x0000, r1
 3a8:	10 92 00 00 	sts	0x0000, r1
 3ac:	10 92 00 00 	sts	0x0000, r1
 3b0:	08 95       	ret

HardwareSerial1.o:     file format elf32-avr

Sections:
Idx Name          Size      VMA       LMA       File off  Algn
  0 .text         00000000  00000000  00000000  00000034  2**0
                  CONTENTS, ALLOC, LOAD, READONLY, CODE
  1 .data         00000000  00000000  00000000  00000034  2**0
                  CONTENTS, ALLOC, LOAD, DATA
  2 .bss          00000000  00000000  00000000  00000034  2**0
                  ALLOC
  3 .stab         000006a8  00000000  00000000  00000034  2**2
                  CONTENTS, RELOC, READONLY, DEBUGGING
  4 .stabstr      000011e5  00000000  00000000  000006dc  2**0
                  CONTENTS, READONLY, DEBUGGING
  5 .comment      00000012  00000000  00000000  000018c1  2**0
                  CONTENTS, READONLY

HardwareSerial2.o:     file format elf32-avr

Sections:
Idx Name          Size      VMA       LMA       File off  Algn
  0 .text         00000000  00000000  00000000  00000034  2**0
                  CONTENTS, ALLOC, LOAD, READONLY, CODE
  1 .data         00000000  00000000  00000000  00000034  2**0
                  CONTENTS, ALLOC, LOAD, DATA
  2 .bss          00000000  00000000  00000000  00000034  2**0
                  ALLOC
  3 .stab         000006a8  00000000  00000000  00000034  2**2
                  CONTENTS, RELOC, READONLY, DEBUGGING
  4 .stabstr      000011e5  00000000  00000000  000006dc  2**0
                  CONTENTS, READONLY, DEBUGGING
  5 .comment      00000012  00000000  00000000  000018c1  2**0
                  CONTENTS, READONLY

HardwareSerial3.o:     file format elf32-avr

Sections:
Idx Name          Size      VMA       LMA       File off  Algn
  0 .text         00000000  00000000  00000000  00000034  2**0
                  CONTENTS, ALLOC, LOAD, READONLY, CODE
  1 .data         00000000  00000000  00000000  00000034  2**0
                  CONTENTS, ALLOC, LOAD, DATA
  2 .bss          00000000  00000000  00000000  00000034  2**0
                  ALLOC
  3 .stab         000006a8  00000000  00000000  00000034  2**2
                  CONTENTS, RELOC, READONLY, DEBUGGING
  4 .stabstr      000011e5  00000000  00000000  000006dc  2**0
                  CONTENTS, READONLY, DEBUGGING
  5 .comment      00000012  00000000  00000000  000018c1  2**0
                  CONTENTS, READONLY

IPAddress.o:     file format elf32-avr

Sections:
Idx Name          Size      VMA       LMA       File off  Algn
  0 .group        00000008  00000000  00000000  00000034  2**2
                  CONTENTS, READONLY, EXCLUDE, GROUP, LINK_ONCE_DISCARD
  1 .group        00000008  00000000  00000000  0000003c  2**2
                  CONTENTS, READONLY, EXCLUDE, GROUP, LINK_ONCE_DISCARD
  2 .text         00000000  00000000  00000000  00000044  2**0
                  CONTENTS, ALLOC, LOAD, READONLY, CODE
  3 .data         00000028  00000000  00000000  00000044  2**0
                  CONTENTS, ALLOC, LOAD, DATA
  4 .bss          00000000  00000000  00000000  0000006c  2**0
                  ALLOC
  5 .stab         00000b7c  00000000  00000000  0000006c  2**2
                  CONTENTS, RELOC, READONLY, DEBUGGING
  6 .stabstr      00001599  00000000  00000000  00000be8  2**0
                  CONTENTS, READONLY, DEBUGGING
  7 .text._ZNK9IPAddress7printToER5Print 00000074  00000000  00000000  00002181  2**0
                  CONTENTS, ALLOC, LOAD, RELOC, READONLY, CODE
  8 .text._ZN9IPAddressC2Ev 00000014  00000000  00000000  000021f5  2**0
                  CONTENTS, ALLOC, LOAD, RELOC, READONLY, CODE
  9 .text._ZN9IPAddressC2Ehhhh 00000018  00000000  00000000  00002209  2**0
                  CONTENTS, ALLOC, LOAD, RELOC, READONLY, CODE
 10 .text._ZN9IPAddressC2Em 00000014  00000000  00000000  00002221  2**0
                  CONTENTS, ALLOC, LOAD, RELOC, READONLY, CODE
 11 .text._ZN9IPAddressC2EPKh 00000020  00000000  00000000  00002235  2**0
                  CONTENTS, ALLOC, LOAD, RELOC, READONLY, CODE
 12 .text._ZN9IPAddress10fromStringEPKc 00000060  00000000  00000000  00002255  2**0
                  CONTENTS, ALLOC, LOAD, RELOC, READONLY, CODE
 13 .text._ZN9IPAddressaSEPKh 00000016  00000000  00000000  000022b5  2**0
                  CONTENTS, ALLOC, LOAD, READONLY, CODE
 14 .text._ZN9IPAddressaSEm 0000000c  00000000  00000000  000022cb  2**0
                  CONTENTS, ALLOC, LOAD, READONLY, CODE
 15 .text._ZNK9IPAddresseqEPKh 0000001e  00000000  00000000  000022d7  2**0
                  CONTENTS, ALLOC, LOAD, RELOC, READONLY, CODE
 16 .text.startup._GLOBAL__sub_I__ZN9IPAddressC2Ev 0000001e  00000000  00000000  000022f5  2**0
                  CONTENTS, ALLOC, LOAD, RELOC, READONLY, CODE
 17 .ctors        00000002  00000000  00000000  00002314  2**1
                  CONTENTS, ALLOC, LOAD, RELOC, READONLY, DATA
 18 .rodata._ZTV9Printable 00000006  00000000  00000000  00002316  2**0
                  CONTENTS, ALLOC, LOAD, RELOC, READONLY, DATA
 19 .rodata._ZTV9IPAddress 00000006  00000000  00000000  0000231c  2**0
                  CONTENTS, ALLOC, LOAD, RELOC, READONLY, DATA
 20 .bss._ZL11INADDR_NONE 00000006  00000000  00000000  00002322  2**0
                  ALLOC
 21 .comment      00000012  00000000  00000000  00002322  2**0
                  CONTENTS, READONLY

Disassembly of section .text._ZNK9IPAddress7printToER5Print:

00000000 <_ZNK9IPAddress7printToER5Print>:
IPAddress::IPAddress()
{
    _address.dword = 0;
}

IPAddress::IPAddress(uint8_t first_octet, uint8_t second_octet, uint8_t third_octet, uint8_t fourth_octet)
   0:	af 92       	push	r10
{
    _address.bytes[0] = first_octet;
    _address.bytes[1] = second_octet;
    _address.bytes[2] = third_octet;
    _address.bytes[3] = fourth_octet;
  2a:	bf 92       	ldd	r22, Z+2	; 0x02
  2c:	cf 92       	movw	r24, r14
  2e:	df 92 ef 92 	call	0	; 0x0 <__tmp_reg__>
  32:	ff 92       	movw	r10, r24
  34:	0f 93       	ldi	r22, 0x2E	; 46
  36:	1f 93       	movw	r24, r14
  38:	cf 93 df 93 	call	0	; 0x0 <__tmp_reg__>
  3c:	6c 01       	add	r24, r10
  3e:	7b 01       	adc	r25, r11
  40:	c0 e0       	add	r16, r24
  42:	d0 e0       	adc	r17, r25
  44:	00 e0       	adiw	r28, 0x01	; 1
  46:	10 e0       	cpi	r28, 0x03	; 3
  48:	f6 01       	cpc	r29, r1
  4a:	ec 0f       	brne	.+0      	; 0x4c <_ZNK9IPAddress7printToER5Print+0x24>
  4c:	fd 1f       	ldi	r20, 0x0A	; 10
  4e:	4a e0       	ldi	r21, 0x00	; 0
  50:	50 e0       	movw	r30, r12
  52:	62 81       	ldd	r22, Z+5	; 0x05
  54:	c7 01       	movw	r24, r14
  56:	0e 94 00 00 	call	0	; 0x0 <__tmp_reg__>
  5a:	5c 01       	add	r24, r16
  5c:	6e e2       	adc	r25, r17
  5e:	c7 01       	pop	r29
  60:	0e 94       	pop	r28
  62:	00 00       	pop	r17
  64:	8a 0d       	pop	r16
  66:	9b 1d       	pop	r15
  68:	08 0f       	pop	r14
  6a:	19 1f       	pop	r13
  6c:	21 96       	pop	r12
  6e:	c3 30       	pop	r11
  70:	d1 05       	pop	r10
  72:	01 f4       	ret
  74:	4a e0       	Address 0x0000000000000074 is out of bounds.
.word	0xffff	; ????
  76:	50 e0       	Address 0x0000000000000076 is out of bounds.
.word	0xffff	; ????
  78:	f6 01       	Address 0x0000000000000078 is out of bounds.
.word	0xffff	; ????
  7a:	65 81       	Address 0x000000000000007a is out of bounds.
.word	0xffff	; ????
  7c:	c7 01       	Address 0x000000000000007c is out of bounds.
.word	0xffff	; ????
  7e:	0e 94       	Address 0x000000000000007e is out of bounds.
.word	0xffff	; ????
  80:	00 00       	Address 0x0000000000000080 is out of bounds.
.word	0xffff	; ????
  82:	80 0f       	Address 0x0000000000000082 is out of bounds.
.word	0xffff	; ????
  84:	91 1f       	Address 0x0000000000000084 is out of bounds.
.word	0xffff	; ????
  86:	df 91       	Address 0x0000000000000086 is out of bounds.
.word	0xffff	; ????
  88:	cf 91       	Address 0x0000000000000088 is out of bounds.
.word	0xffff	; ????
  8a:	1f 91       	Address 0x000000000000008a is out of bounds.
.word	0xffff	; ????
  8c:	0f 91       	Address 0x000000000000008c is out of bounds.
.word	0xffff	; ????
  8e:	ff 90       	Address 0x000000000000008e is out of bounds.
.word	0xffff	; ????
  90:	ef 90       	Address 0x0000000000000090 is out of bounds.
.word	0xffff	; ????
  92:	df 90       	Address 0x0000000000000092 is out of bounds.
.word	0xffff	; ????
  94:	cf 90       	Address 0x0000000000000094 is out of bounds.
.word	0xffff	; ????
  96:	bf 90       	Address 0x0000000000000096 is out of bounds.
.word	0xffff	; ????
  98:	af 90       	Address 0x0000000000000098 is out of bounds.
.word	0xffff	; ????
  9a:	08 95       	Address 0x000000000000009a is out of bounds.
.word	0xffff	; ????

Disassembly of section .text._ZN9IPAddressC2Ev:

000000c4 <_ZN9IPAddressC1Ev>:
  c4:	20 e0       	ldi	r18, 0x00	; 0
  c6:	30 e0       	ldi	r19, 0x00	; 0
  c8:	fc 01       	movw	r30, r24
  ca:	31 83       	std	Z+1, r19	; 0x01
  cc:	20 83       	st	Z, r18
  ce:	12 82       	std	Z+2, r1	; 0x02
  d0:	13 82       	std	Z+3, r1	; 0x03
  d2:	14 82       	std	Z+4, r1	; 0x04
  d4:	15 82       	std	Z+5, r1	; 0x05
  d6:	08 95       	ret

Disassembly of section .text._ZN9IPAddressC2Ehhhh:

0000019c <_ZN9IPAddressC1Ehhhh>:
 19c:	0f 93       	push	r16
 19e:	fc 01       	movw	r30, r24
 1a0:	80 e0       	ldi	r24, 0x00	; 0
 1a2:	90 e0       	ldi	r25, 0x00	; 0
 1a4:	91 83       	std	Z+1, r25	; 0x01
 1a6:	80 83       	st	Z, r24
 1a8:	62 83       	std	Z+2, r22	; 0x02
 1aa:	43 83       	std	Z+3, r20	; 0x03
 1ac:	24 83       	std	Z+4, r18	; 0x04
 1ae:	05 83       	std	Z+5, r16	; 0x05
 1b0:	0f 91       	pop	r16
 1b2:	08 95       	ret

Disassembly of section .text._ZN9IPAddressC2Em:

00000350 <_ZN9IPAddressC1Em>:
 350:	20 e0       	ldi	r18, 0x00	; 0
 352:	30 e0       	ldi	r19, 0x00	; 0
 354:	fc 01       	movw	r30, r24
 356:	31 83       	std	Z+1, r19	; 0x01
 358:	20 83       	st	Z, r18
 35a:	42 83       	std	Z+2, r20	; 0x02
 35c:	53 83       	std	Z+3, r21	; 0x03
 35e:	64 83       	std	Z+4, r22	; 0x04
 360:	75 83       	std	Z+5, r23	; 0x05
 362:	08 95       	ret

Disassembly of section .text._ZN9IPAddressC2EPKh:

000006b4 <_ZN9IPAddressC1EPKh>:
 6b4:	20 e0       	ldi	r18, 0x00	; 0
 6b6:	30 e0       	ldi	r19, 0x00	; 0
 6b8:	fc 01       	movw	r30, r24
 6ba:	31 83       	std	Z+1, r19	; 0x01
 6bc:	20 83       	st	Z, r18
 6be:	fb 01       	movw	r30, r22
 6c0:	40 81       	ld	r20, Z
 6c2:	51 81       	ldd	r21, Z+1	; 0x01
 6c4:	62 81       	ldd	r22, Z+2	; 0x02
 6c6:	73 81       	ldd	r23, Z+3	; 0x03
 6c8:	fc 01       	movw	r30, r24
 6ca:	42 83       	std	Z+2, r20	; 0x02
 6cc:	53 83       	std	Z+3, r21	; 0x03
 6ce:	64 83       	std	Z+4, r22	; 0x04
 6d0:	75 83       	std	Z+5, r23	; 0x05
 6d2:	08 95       	ret

Disassembly of section .text._ZN9IPAddress10fromStringEPKc:

00000d88 <_ZN9IPAddress10fromStringEPKc>:
 d88:	40 e0       	ldi	r20, 0x00	; 0
 d8a:	20 e0       	ldi	r18, 0x00	; 0
 d8c:	30 e0       	ldi	r19, 0x00	; 0
 d8e:	aa e0       	ldi	r26, 0x0A	; 10
 d90:	fb 01       	movw	r30, r22
 d92:	51 91       	ld	r21, Z+
 d94:	bf 01       	movw	r22, r30
 d96:	55 23       	and	r21, r21
 d98:	01 f0       	breq	.+0      	; 0xd9a <_ZN9IPAddress10fromStringEPKc+0x12>
 d9a:	e0 ed       	ldi	r30, 0xD0	; 208
 d9c:	e5 0f       	add	r30, r21
 d9e:	ea 30       	cpi	r30, 0x0A	; 10
 da0:	00 f4       	brcc	.+0      	; 0xda2 <_ZN9IPAddress10fromStringEPKc+0x1a>
 da2:	f9 01       	movw	r30, r18
 da4:	ae 9f       	mul	r26, r30
 da6:	90 01       	movw	r18, r0
 da8:	af 9f       	mul	r26, r31
 daa:	30 0d       	add	r19, r0
 dac:	11 24       	eor	r1, r1
 dae:	20 53       	subi	r18, 0x30	; 48
 db0:	31 09       	sbc	r19, r1
 db2:	25 0f       	add	r18, r21
 db4:	31 1d       	adc	r19, r1
 db6:	2f 3f       	cpi	r18, 0xFF	; 255
 db8:	31 05       	cpc	r19, r1
 dba:	01 f0       	breq	.+0      	; 0xdbc <_ZN9IPAddress10fromStringEPKc+0x34>
 dbc:	00 f0       	brcs	.+0      	; 0xdbe <_ZN9IPAddress10fromStringEPKc+0x36>
 dbe:	00 c0       	rjmp	.+0      	; 0xdc0 <_ZN9IPAddress10fromStringEPKc+0x38>
 dc0:	5e 32       	cpi	r21, 0x2E	; 46
 dc2:	01 f4       	brne	.+0      	; 0xdc4 <_ZN9IPAddress10fromStringEPKc+0x3c>
 dc4:	43 30       	cpi	r20, 0x03	; 3
 dc6:	01 f0       	breq	.+0      	; 0xdc8 <_ZN9IPAddress10fromStringEPKc+0x40>
 dc8:	fc 01       	movw	r30, r24
 dca:	e4 0f       	add	r30, r20
 dcc:	f1 1d       	adc	r31, r1
 dce:	22 83       	std	Z+2, r18	; 0x02
 dd0:	4f 5f       	subi	r20, 0xFF	; 255
 dd2:	20 e0       	ldi	r18, 0x00	; 0
 dd4:	30 e0       	ldi	r19, 0x00	; 0
 dd6:	00 c0       	rjmp	.+0      	; 0xdd8 <_ZN9IPAddress10fromStringEPKc+0x50>
 dd8:	43 30       	cpi	r20, 0x03	; 3
 dda:	01 f4       	brne	.+0      	; 0xddc <_ZN9IPAddress10fromStringEPKc+0x54>
 ddc:	fc 01       	movw	r30, r24
 dde:	25 83       	std	Z+5, r18	; 0x05
 de0:	81 e0       	ldi	r24, 0x01	; 1
 de2:	08 95       	ret
 de4:	80 e0       	ldi	r24, 0x00	; 0
 de6:	08 95       	ret

Disassembly of section .text._ZN9IPAddressaSEPKh:

00001b70 <_ZN9IPAddressaSEPKh>:
    1b70:	fb 01       	movw	r30, r22
    1b72:	40 81       	ld	r20, Z
    1b74:	51 81       	ldd	r21, Z+1	; 0x01
    1b76:	62 81       	ldd	r22, Z+2	; 0x02
    1b78:	73 81       	ldd	r23, Z+3	; 0x03
    1b7a:	fc 01       	movw	r30, r24
    1b7c:	42 83       	std	Z+2, r20	; 0x02
    1b7e:	53 83       	std	Z+3, r21	; 0x03
    1b80:	64 83       	std	Z+4, r22	; 0x04
    1b82:	75 83       	std	Z+5, r23	; 0x05
    1b84:	08 95       	ret

Disassembly of section .text._ZN9IPAddressaSEm:

000036f6 <_ZN9IPAddressaSEm>:
    36f6:	fc 01       	movw	r30, r24
    36f8:	42 83       	std	Z+2, r20	; 0x02
    36fa:	53 83       	std	Z+3, r21	; 0x03
    36fc:	64 83       	std	Z+4, r22	; 0x04
    36fe:	75 83       	std	Z+5, r23	; 0x05
    3700:	08 95       	ret

Disassembly of section .text._ZNK9IPAddresseqEPKh:

00006df8 <_ZNK9IPAddresseqEPKh>:
    6df8:	9b 01       	movw	r18, r22
    6dfa:	bc 01       	movw	r22, r24
    6dfc:	6e 5f       	subi	r22, 0xFE	; 254
    6dfe:	7f 4f       	sbci	r23, 0xFF	; 255
    6e00:	44 e0       	ldi	r20, 0x04	; 4
    6e02:	50 e0       	ldi	r21, 0x00	; 0
    6e04:	c9 01       	movw	r24, r18
    6e06:	0e 94 00 00 	call	0	; 0x0 <__tmp_reg__>
    6e0a:	21 e0       	ldi	r18, 0x01	; 1
    6e0c:	89 2b       	or	r24, r25
    6e0e:	01 f0       	breq	.+0      	; 0x6e10 <_ZNK9IPAddresseqEPKh+0x18>
    6e10:	20 e0       	ldi	r18, 0x00	; 0
    6e12:	82 2f       	mov	r24, r18
    6e14:	08 95       	ret

Disassembly of section .text.startup._GLOBAL__sub_I__ZN9IPAddressC2Ev:

0000dc0e <_GLOBAL__sub_I__ZN9IPAddressC2Ev>:
    dc0e:	80 e0       	ldi	r24, 0x00	; 0
    dc10:	90 e0       	ldi	r25, 0x00	; 0
    dc12:	90 93 00 00 	sts	0x0000, r25
    dc16:	80 93 00 00 	sts	0x0000, r24
    dc1a:	10 92 00 00 	sts	0x0000, r1
    dc1e:	10 92 00 00 	sts	0x0000, r1
    dc22:	10 92 00 00 	sts	0x0000, r1
    dc26:	10 92 00 00 	sts	0x0000, r1
    dc2a:	08 95       	ret

PluggableUSB.o:     file format elf32-avr

Sections:
Idx Name          Size      VMA       LMA       File off  Algn
  0 .text         00000000  00000000  00000000  00000034  2**0
                  CONTENTS, ALLOC, LOAD, READONLY, CODE
  1 .data         00000000  00000000  00000000  00000034  2**0
                  CONTENTS, ALLOC, LOAD, DATA
  2 .bss          00000000  00000000  00000000  00000034  2**0
                  ALLOC
  3 .stab         0000069c  00000000  00000000  00000034  2**2
                  CONTENTS, RELOC, READONLY, DEBUGGING
  4 .stabstr      000011b5  00000000  00000000  000006d0  2**0
                  CONTENTS, READONLY, DEBUGGING
  5 .comment      00000012  00000000  00000000  00001885  2**0
                  CONTENTS, READONLY

Print.o:     file format elf32-avr

Sections:
Idx Name          Size      VMA       LMA       File off  Algn
  0 .group        00000008  00000000  00000000  00000034  2**2
                  CONTENTS, READONLY, EXCLUDE, GROUP, LINK_ONCE_DISCARD
  1 .group        00000008  00000000  00000000  0000003c  2**2
                  CONTENTS, READONLY, EXCLUDE, GROUP, LINK_ONCE_DISCARD
  2 .text         00000000  00000000  00000000  00000044  2**0
                  CONTENTS, ALLOC, LOAD, READONLY, CODE
  3 .data         0000006c  00000000  00000000  00000044  2**0
                  CONTENTS, ALLOC, LOAD, DATA
  4 .bss          00000000  00000000  00000000  000000b0  2**0
                  ALLOC
  5 .stab         00001344  00000000  00000000  000000b0  2**2
                  CONTENTS, RELOC, READONLY, DEBUGGING
  6 .stabstr      00001a5f  00000000  00000000  000013f4  2**0
                  CONTENTS, READONLY, DEBUGGING
  7 .text._ZN5Print5writeEPKhj 00000050  00000000  00000000  00002e53  2**0
                  CONTENTS, ALLOC, LOAD, RELOC, READONLY, CODE
  8 .text._ZN5Print5writeEPKc 0000002c  00000000  00000000  00002ea3  2**0
                  CONTENTS, ALLOC, LOAD, RELOC, READONLY, CODE
  9 .text._ZN5Print5printEPK19__FlashStringHelper 00000046  00000000  00000000  00002ecf  2**0
                  CONTENTS, ALLOC, LOAD, RELOC, READONLY, CODE
 10 .text._ZN5Print5printERK6String 0000001c  00000000  00000000  00002f15  2**0
                  CONTENTS, ALLOC, LOAD, READONLY, CODE
 11 .text._ZN5Print5printEPKc 00000004  00000000  00000000  00002f31  2**0
                  CONTENTS, ALLOC, LOAD, RELOC, READONLY, CODE
 12 .text._ZN5Print5printEc 0000000e  00000000  00000000  00002f35  2**0
                  CONTENTS, ALLOC, LOAD, READONLY, CODE
 13 .text._ZN5Print5printERK9Printable 00000014  00000000  00000000  00002f43  2**0
                  CONTENTS, ALLOC, LOAD, READONLY, CODE
 14 .rodata.str1.1 00000011  00000000  00000000  00002f57  2**0
                  CONTENTS, ALLOC, LOAD, READONLY, DATA
 15 .text._ZN5Print7printlnEv 00000008  00000000  00000000  00002f68  2**0
                  CONTENTS, ALLOC, LOAD, RELOC, READONLY, CODE
 16 .text._ZN5Print7printlnEPK19__FlashStringHelper 00000024  00000000  00000000  00002f70  2**0
                  CONTENTS, ALLOC, LOAD, RELOC, READONLY, CODE
 17 .text._ZN5Print7printlnERK6String 00000024  00000000  00000000  00002f94  2**0
                  CONTENTS, ALLOC, LOAD, RELOC, READONLY, CODE
 18 .text._ZN5Print7printlnEPKc 00000024  00000000  00000000  00002fb8  2**0
                  CONTENTS, ALLOC, LOAD, RELOC, READONLY, CODE
 19 .text._ZN5Print7printlnEc 00000024  00000000  00000000  00002fdc  2**0
                  CONTENTS, ALLOC, LOAD, RELOC, READONLY, CODE
 20 .text._ZN5Print7printlnERK9Printable 00000024  00000000  00000000  00003000  2**0
                  CONTENTS, ALLOC, LOAD, RELOC, READONLY, CODE
 21 .text._ZN5Print11printNumberEmh 000000b2  00000000  00000000  00003024  2**0
                  CONTENTS, ALLOC, LOAD, RELOC, READONLY, CODE
 22 .text._ZN5Print5printEli 00000094  00000000  00000000  000030d6  2**0
                  CONTENTS, ALLOC, LOAD, RELOC, READONLY, CODE
 23 .text._ZN5Print5printEii 00000010  00000000  00000000  0000316a  2**0
                  CONTENTS, ALLOC, LOAD, RELOC, READONLY, CODE
 24 .text._ZN5Print7printlnEii 00000030  00000000  00000000  0000317a  2**0
                  CONTENTS, ALLOC, LOAD, RELOC, READONLY, CODE
 25 .text._ZN5Print7printlnEli 00000024  00000000  00000000  000031aa  2**0
                  CONTENTS, ALLOC, LOAD, RELOC, READONLY, CODE
 26 .text._ZN5Print5printEmi 0000001a  00000000  00000000  000031ce  2**0
                  CONTENTS, ALLOC, LOAD, RELOC, READONLY, CODE
 27 .text._ZN5Print5printEhi 0000000e  00000000  00000000  000031e8  2**0
                  CONTENTS, ALLOC, LOAD, RELOC, READONLY, CODE
 28 .text._ZN5Print7printlnEhi 0000002e  00000000  00000000  000031f6  2**0
                  CONTENTS, ALLOC, LOAD, RELOC, READONLY, CODE
 29 .text._ZN5Print5printEji 0000000c  00000000  00000000  00003224  2**0
                  CONTENTS, ALLOC, LOAD, RELOC, READONLY, CODE
 30 .text._ZN5Print7printlnEji 0000002c  00000000  00000000  00003230  2**0
                  CONTENTS, ALLOC, LOAD, RELOC, READONLY, CODE
 31 .text._ZN5Print7printlnEmi 00000024  00000000  00000000  0000325c  2**0
                  CONTENTS, ALLOC, LOAD, RELOC, READONLY, CODE
 32 .text._ZN5Print10printFloatEdh 000001d6  00000000  00000000  00003280  2**0
                  CONTENTS, ALLOC, LOAD, RELOC, READONLY, CODE
 33 .text._ZN5Print5printEdi 00000004  00000000  00000000  00003456  2**0
                  CONTENTS, ALLOC, LOAD, RELOC, READONLY, CODE
 34 .text._ZN5Print7printlnEdi 00000024  00000000  00000000  0000345a  2**0
                  CONTENTS, ALLOC, LOAD, RELOC, READONLY, CODE
 35 .rodata._ZTV5Print 00000008  00000000  00000000  0000347e  2**0
                  CONTENTS, ALLOC, LOAD, RELOC, READONLY, DATA
 36 .comment      00000012  00000000  00000000  00003486  2**0
                  CONTENTS, READONLY

Disassembly of section .text._ZN5Print5writeEPKhj:

00000000 <_ZN5Print5writeEPKhj>:
  n += println();
  return n;
}

size_t Print::println(double num, int digits)
{
   0:	cf 92       	push	r12
  size_t n = print(num, digits);
  n += println();
  return n;
}
  6e:	df 92       	Address 0x000000000000006e is out of bounds.
.word	0xffff	; ????
  70:	ef 92       	Address 0x0000000000000070 is out of bounds.
.word	0xffff	; ????
  72:	ff 92       	Address 0x0000000000000072 is out of bounds.
.word	0xffff	; ????
  74:	0f 93       	Address 0x0000000000000074 is out of bounds.
.word	0xffff	; ????
  76:	1f 93       	Address 0x0000000000000076 is out of bounds.
.word	0xffff	; ????
  78:	cf 93       	Address 0x0000000000000078 is out of bounds.
.word	0xffff	; ????
  7a:	df 93       	Address 0x000000000000007a is out of bounds.
.word	0xffff	; ????
  7c:	7c 01       	Address 0x000000000000007c is out of bounds.
.word	0xffff	; ????
  7e:	6a 01       	Address 0x000000000000007e is out of bounds.
.word	0xffff	; ????
  80:	eb 01       	Address 0x0000000000000080 is out of bounds.
.word	0xffff	; ????
  82:	00 e0       	Address 0x0000000000000082 is out of bounds.
.word	0xffff	; ????
  84:	10 e0       	Address 0x0000000000000084 is out of bounds.
.word	0xffff	; ????
  86:	0c 15       	Address 0x0000000000000086 is out of bounds.
.word	0xffff	; ????
  88:	1d 05       	Address 0x0000000000000088 is out of bounds.
.word	0xffff	; ????
  8a:	01 f0       	Address 0x000000000000008a is out of bounds.
.word	0xffff	; ????
  8c:	69 91       	Address 0x000000000000008c is out of bounds.
.word	0xffff	; ????
  8e:	d7 01       	Address 0x000000000000008e is out of bounds.
.word	0xffff	; ????
  90:	ed 91       	Address 0x0000000000000090 is out of bounds.
.word	0xffff	; ????
  92:	fc 91       	Address 0x0000000000000092 is out of bounds.
.word	0xffff	; ????
  94:	01 90       	Address 0x0000000000000094 is out of bounds.
.word	0xffff	; ????
  96:	f0 81       	Address 0x0000000000000096 is out of bounds.
.word	0xffff	; ????
  98:	e0 2d       	Address 0x0000000000000098 is out of bounds.
.word	0xffff	; ????
  9a:	c7 01       	Address 0x000000000000009a is out of bounds.
.word	0xffff	; ????
  9c:	09 95       	Address 0x000000000000009c is out of bounds.
.word	0xffff	; ????
  9e:	89 2b       	Address 0x000000000000009e is out of bounds.
.word	0xffff	; ????
  a0:	01 f0       	Address 0x00000000000000a0 is out of bounds.
.word	0xffff	; ????
  a2:	0f 5f       	Address 0x00000000000000a2 is out of bounds.
.word	0xffff	; ????
  a4:	1f 4f       	Address 0x00000000000000a4 is out of bounds.
.word	0xffff	; ????
  a6:	00 c0       	Address 0x00000000000000a6 is out of bounds.
.word	0xffff	; ????
  a8:	c8 01       	Address 0x00000000000000a8 is out of bounds.
.word	0xffff	; ????
  aa:	df 91       	Address 0x00000000000000aa is out of bounds.
.word	0xffff	; ????
  ac:	cf 91       	Address 0x00000000000000ac is out of bounds.
.word	0xffff	; ????
  ae:	1f 91       	Address 0x00000000000000ae is out of bounds.
.word	0xffff	; ????
  b0:	0f 91       	Address 0x00000000000000b0 is out of bounds.
.word	0xffff	; ????
  b2:	ff 90       	Address 0x00000000000000b2 is out of bounds.
.word	0xffff	; ????
  b4:	ef 90       	Address 0x00000000000000b4 is out of bounds.
.word	0xffff	; ????
  b6:	df 90       	Address 0x00000000000000b6 is out of bounds.
.word	0xffff	; ????
  b8:	cf 90       	Address 0x00000000000000b8 is out of bounds.
.word	0xffff	; ????
  ba:	08 95       	Address 0x00000000000000ba is out of bounds.
.word	0xffff	; ????

Disassembly of section .text._ZN5Print5writeEPKc:

00000128 <_ZN5Print5writeEPKc>:
 128:	61 15       	cp	r22, r1
 12a:	71 05       	cpc	r23, r1
 12c:	01 f0       	breq	.+0      	; 0x12e <_ZN5Print5writeEPKc+0x6>
 12e:	db 01       	movw	r26, r22
 130:	0d 90       	ld	r0, X+
 132:	00 20       	and	r0, r0
 134:	01 f4       	brne	.+0      	; 0x136 <_ZN5Print5writeEPKc+0xe>
 136:	ad 01       	movw	r20, r26
 138:	41 50       	subi	r20, 0x01	; 1
 13a:	51 09       	sbc	r21, r1
 13c:	46 1b       	sub	r20, r22
 13e:	57 0b       	sbc	r21, r23
 140:	dc 01       	movw	r26, r24
 142:	ed 91       	ld	r30, X+
 144:	fc 91       	ld	r31, X
 146:	02 80       	ldd	r0, Z+2	; 0x02
 148:	f3 81       	ldd	r31, Z+3	; 0x03
 14a:	e0 2d       	mov	r30, r0
 14c:	09 94       	ijmp
 14e:	80 e0       	ldi	r24, 0x00	; 0
 150:	90 e0       	ldi	r25, 0x00	; 0
 152:	08 95       	ret

Disassembly of section .text._ZN5Print5printEPK19__FlashStringHelper:

0000027c <_ZN5Print5printEPK19__FlashStringHelper>:
 27c:	ef 92       	push	r14
 27e:	ff 92       	push	r15
 280:	0f 93       	push	r16
 282:	1f 93       	push	r17
 284:	cf 93       	push	r28
 286:	df 93       	push	r29
 288:	8c 01       	movw	r16, r24
 28a:	7b 01       	movw	r14, r22
 28c:	c0 e0       	ldi	r28, 0x00	; 0
 28e:	d0 e0       	ldi	r29, 0x00	; 0
 290:	f7 01       	movw	r30, r14
 292:	ec 0f       	add	r30, r28
 294:	fd 1f       	adc	r31, r29
 296:	64 91       	lpm	r22, Z
 298:	66 23       	and	r22, r22
 29a:	01 f0       	breq	.+0      	; 0x29c <_ZN5Print5printEPK19__FlashStringHelper+0x20>
 29c:	f8 01       	movw	r30, r16
 29e:	a0 81       	ld	r26, Z
 2a0:	b1 81       	ldd	r27, Z+1	; 0x01
 2a2:	ed 91       	ld	r30, X+
 2a4:	fc 91       	ld	r31, X
 2a6:	c8 01       	movw	r24, r16
 2a8:	09 95       	icall
 2aa:	89 2b       	or	r24, r25
 2ac:	01 f0       	breq	.+0      	; 0x2ae <_ZN5Print5printEPK19__FlashStringHelper+0x32>
 2ae:	21 96       	adiw	r28, 0x01	; 1
 2b0:	00 c0       	rjmp	.+0      	; 0x2b2 <_ZN5Print5printEPK19__FlashStringHelper+0x36>
 2b2:	ce 01       	movw	r24, r28
 2b4:	df 91       	pop	r29
 2b6:	cf 91       	pop	r28
 2b8:	1f 91       	pop	r17
 2ba:	0f 91       	pop	r16
 2bc:	ff 90       	pop	r15
 2be:	ef 90       	pop	r14
 2c0:	08 95       	ret

Disassembly of section .text._ZN5Print5printERK6String:

0000053e <_ZN5Print5printERK6String>:
 53e:	dc 01       	movw	r26, r24
 540:	ed 91       	ld	r30, X+
 542:	fc 91       	ld	r31, X
 544:	db 01       	movw	r26, r22
 546:	14 96       	adiw	r26, 0x04	; 4
 548:	4d 91       	ld	r20, X+
 54a:	5c 91       	ld	r21, X
 54c:	15 97       	sbiw	r26, 0x05	; 5
 54e:	6d 91       	ld	r22, X+
 550:	7c 91       	ld	r23, X
 552:	02 80       	ldd	r0, Z+2	; 0x02
 554:	f3 81       	ldd	r31, Z+3	; 0x03
 556:	e0 2d       	mov	r30, r0
 558:	09 94       	ijmp

Disassembly of section .text._ZN5Print5printEPKc:

00000a98 <_ZN5Print5printEPKc>:
 a98:	0c 94 00 00 	jmp	0	; 0x0 <__tmp_reg__>

Disassembly of section .text._ZN5Print5printEc:

00001534 <_ZN5Print5printEc>:
    1534:	dc 01       	movw	r26, r24
    1536:	ed 91       	ld	r30, X+
    1538:	fc 91       	ld	r31, X
    153a:	01 90       	ld	r0, Z+
    153c:	f0 81       	ld	r31, Z
    153e:	e0 2d       	mov	r30, r0
    1540:	09 94       	ijmp

Disassembly of section .text._ZN5Print5printERK9Printable:

00002a76 <_ZN5Print5printERK9Printable>:
    2a76:	db 01       	movw	r26, r22
    2a78:	ed 91       	ld	r30, X+
    2a7a:	fc 91       	ld	r31, X
    2a7c:	11 97       	sbiw	r26, 0x01	; 1
    2a7e:	01 90       	ld	r0, Z+
    2a80:	f0 81       	ld	r31, Z
    2a82:	e0 2d       	mov	r30, r0
    2a84:	bc 01       	movw	r22, r24
    2a86:	cd 01       	movw	r24, r26
    2a88:	09 94       	ijmp

Disassembly of section .text._ZN5Print7printlnEv:

0000aa11 <_ZN5Print7printlnEv>:
    aa11:	60 e0       	ldi	r22, 0x00	; 0
    aa13:	70 e0       	ldi	r23, 0x00	; 0
    aa15:	0c 94 00 00 	jmp	0	; 0x0 <__tmp_reg__>

Disassembly of section .text._ZN5Print7printlnEPK19__FlashStringHelper:

0001542a <_ZN5Print7printlnEPK19__FlashStringHelper>:
   1542a:	0f 93       	push	r16
   1542c:	1f 93       	push	r17
   1542e:	cf 93       	push	r28
   15430:	df 93       	push	r29
   15432:	ec 01       	movw	r28, r24
   15434:	0e 94 00 00 	call	0	; 0x0 <__tmp_reg__>
   15438:	8c 01       	movw	r16, r24
   1543a:	ce 01       	movw	r24, r28
   1543c:	0e 94 00 00 	call	0	; 0x0 <__tmp_reg__>
   15440:	80 0f       	add	r24, r16
   15442:	91 1f       	adc	r25, r17
   15444:	df 91       	pop	r29
   15446:	cf 91       	pop	r28
   15448:	1f 91       	pop	r17
   1544a:	0f 91       	pop	r16
   1544c:	08 95       	ret

Disassembly of section .text._ZN5Print7printlnERK6String:

0002a878 <_ZN5Print7printlnERK6String>:
   2a878:	0f 93       	push	r16
   2a87a:	1f 93       	push	r17
   2a87c:	cf 93       	push	r28
   2a87e:	df 93       	push	r29
   2a880:	ec 01       	movw	r28, r24
   2a882:	0e 94 00 00 	call	0	; 0x0 <__tmp_reg__>
   2a886:	8c 01       	movw	r16, r24
   2a888:	ce 01       	movw	r24, r28
   2a88a:	0e 94 00 00 	call	0	; 0x0 <__tmp_reg__>
   2a88e:	80 0f       	add	r24, r16
   2a890:	91 1f       	adc	r25, r17
   2a892:	df 91       	pop	r29
   2a894:	cf 91       	pop	r28
   2a896:	1f 91       	pop	r17
   2a898:	0f 91       	pop	r16
   2a89a:	08 95       	ret

Disassembly of section .text._ZN5Print7printlnEPKc:

00055114 <_ZN5Print7printlnEPKc>:
   55114:	0f 93       	push	r16
   55116:	1f 93       	push	r17
   55118:	cf 93       	push	r28
   5511a:	df 93       	push	r29
   5511c:	ec 01       	movw	r28, r24
   5511e:	0e 94 00 00 	call	0	; 0x0 <__tmp_reg__>
   55122:	8c 01       	movw	r16, r24
   55124:	ce 01       	movw	r24, r28
   55126:	0e 94 00 00 	call	0	; 0x0 <__tmp_reg__>
   5512a:	80 0f       	add	r24, r16
   5512c:	91 1f       	adc	r25, r17
   5512e:	df 91       	pop	r29
   55130:	cf 91       	pop	r28
   55132:	1f 91       	pop	r17
   55134:	0f 91       	pop	r16
   55136:	08 95       	ret

Disassembly of section .text._ZN5Print7printlnEc:

000aa24c <_ZN5Print7printlnEc>:
   aa24c:	0f 93       	push	r16
   aa24e:	1f 93       	push	r17
   aa250:	cf 93       	push	r28
   aa252:	df 93       	push	r29
   aa254:	ec 01       	movw	r28, r24
   aa256:	0e 94 00 00 	call	0	; 0x0 <__tmp_reg__>
   aa25a:	8c 01       	movw	r16, r24
   aa25c:	ce 01       	movw	r24, r28
   aa25e:	0e 94 00 00 	call	0	; 0x0 <__tmp_reg__>
   aa262:	80 0f       	add	r24, r16
   aa264:	91 1f       	adc	r25, r17
   aa266:	df 91       	pop	r29
   aa268:	cf 91       	pop	r28
   aa26a:	1f 91       	pop	r17
   aa26c:	0f 91       	pop	r16
   aa26e:	08 95       	ret

Disassembly of section .text._ZN5Print7printlnERK9Printable:

001544bc <_ZN5Print7printlnERK9Printable>:
  1544bc:	0f 93       	push	r16
  1544be:	1f 93       	push	r17
  1544c0:	cf 93       	push	r28
  1544c2:	df 93       	push	r29
  1544c4:	ec 01       	movw	r28, r24
  1544c6:	0e 94 00 00 	call	0	; 0x0 <__tmp_reg__>
  1544ca:	8c 01       	movw	r16, r24
  1544cc:	ce 01       	movw	r24, r28
  1544ce:	0e 94 00 00 	call	0	; 0x0 <__tmp_reg__>
  1544d2:	80 0f       	add	r24, r16
  1544d4:	91 1f       	adc	r25, r17
  1544d6:	df 91       	pop	r29
  1544d8:	cf 91       	pop	r28
  1544da:	1f 91       	pop	r17
  1544dc:	0f 91       	pop	r16
  1544de:	08 95       	ret

Disassembly of section .text._ZN5Print11printNumberEmh:

002a899c <_ZN5Print11printNumberEmh>:
  2a899c:	8f 92       	push	r8
  2a899e:	9f 92       	push	r9
  2a89a0:	af 92       	push	r10
  2a89a2:	bf 92       	push	r11
  2a89a4:	cf 92       	push	r12
  2a89a6:	df 92       	push	r13
  2a89a8:	ef 92       	push	r14
  2a89aa:	ff 92       	push	r15
  2a89ac:	0f 93       	push	r16
  2a89ae:	1f 93       	push	r17
  2a89b0:	cf 93       	push	r28
  2a89b2:	df 93       	push	r29
  2a89b4:	cd b7       	in	r28, 0x3d	; 61
  2a89b6:	de b7       	in	r29, 0x3e	; 62
  2a89b8:	a1 97       	sbiw	r28, 0x21	; 33
  2a89ba:	0f b6       	in	r0, 0x3f	; 63
  2a89bc:	f8 94       	cli
  2a89be:	de bf       	out	0x3e, r29	; 62
  2a89c0:	0f be       	out	0x3f, r0	; 63
  2a89c2:	cd bf       	out	0x3d, r28	; 61
  2a89c4:	7c 01       	movw	r14, r24
  2a89c6:	c4 2e       	mov	r12, r20
  2a89c8:	e5 2f       	mov	r30, r21
  2a89ca:	cb 01       	movw	r24, r22
  2a89cc:	d2 2e       	mov	r13, r18
  2a89ce:	19 a2       	std	Y+33, r1	; 0x21
  2a89d0:	21 e0       	ldi	r18, 0x01	; 1
  2a89d2:	2d 15       	cp	r18, r13
  2a89d4:	00 f0       	brcs	.+0      	; 0x2a89d6 <_ZN5Print11printNumberEmh+0x3a>
  2a89d6:	2a e0       	ldi	r18, 0x0A	; 10
  2a89d8:	d2 2e       	mov	r13, r18
  2a89da:	8e 01       	movw	r16, r28
  2a89dc:	0f 5d       	subi	r16, 0xDF	; 223
  2a89de:	1f 4f       	sbci	r17, 0xFF	; 255
  2a89e0:	8d 2c       	mov	r8, r13
  2a89e2:	91 2c       	mov	r9, r1
  2a89e4:	a1 2c       	mov	r10, r1
  2a89e6:	b1 2c       	mov	r11, r1
  2a89e8:	6c 2d       	mov	r22, r12
  2a89ea:	7e 2f       	mov	r23, r30
  2a89ec:	a5 01       	movw	r20, r10
  2a89ee:	94 01       	movw	r18, r8
  2a89f0:	0e 94 00 00 	call	0	; 0x0 <__tmp_reg__>
  2a89f4:	8c 2d       	mov	r24, r12
  2a89f6:	d2 9e       	mul	r13, r18
  2a89f8:	80 19       	sub	r24, r0
  2a89fa:	11 24       	eor	r1, r1
  2a89fc:	01 50       	subi	r16, 0x01	; 1
  2a89fe:	11 09       	sbc	r17, r1
  2a8a00:	8a 30       	cpi	r24, 0x0A	; 10
  2a8a02:	00 f4       	brcc	.+0      	; 0x2a8a04 <_ZN5Print11printNumberEmh+0x68>
  2a8a04:	80 5d       	subi	r24, 0xD0	; 208
  2a8a06:	00 c0       	rjmp	.+0      	; 0x2a8a08 <_ZN5Print11printNumberEmh+0x6c>
  2a8a08:	89 5c       	subi	r24, 0xC9	; 201
  2a8a0a:	f8 01       	movw	r30, r16
  2a8a0c:	80 83       	st	Z, r24
  2a8a0e:	21 15       	cp	r18, r1
  2a8a10:	31 05       	cpc	r19, r1
  2a8a12:	41 05       	cpc	r20, r1
  2a8a14:	51 05       	cpc	r21, r1
  2a8a16:	01 f0       	breq	.+0      	; 0x2a8a18 <_ZN5Print11printNumberEmh+0x7c>
  2a8a18:	c2 2e       	mov	r12, r18
  2a8a1a:	e3 2f       	mov	r30, r19
  2a8a1c:	ca 01       	movw	r24, r20
  2a8a1e:	00 c0       	rjmp	.+0      	; 0x2a8a20 <_ZN5Print11printNumberEmh+0x84>
  2a8a20:	b8 01       	movw	r22, r16
  2a8a22:	c7 01       	movw	r24, r14
  2a8a24:	0e 94 00 00 	call	0	; 0x0 <__tmp_reg__>
  2a8a28:	a1 96       	adiw	r28, 0x21	; 33
  2a8a2a:	0f b6       	in	r0, 0x3f	; 63
  2a8a2c:	f8 94       	cli
  2a8a2e:	de bf       	out	0x3e, r29	; 62
  2a8a30:	0f be       	out	0x3f, r0	; 63
  2a8a32:	cd bf       	out	0x3d, r28	; 61
  2a8a34:	df 91       	pop	r29
  2a8a36:	cf 91       	pop	r28
  2a8a38:	1f 91       	pop	r17
  2a8a3a:	0f 91       	pop	r16
  2a8a3c:	ff 90       	pop	r15
  2a8a3e:	ef 90       	pop	r14
  2a8a40:	df 90       	pop	r13
  2a8a42:	cf 90       	pop	r12
  2a8a44:	bf 90       	pop	r11
  2a8a46:	af 90       	pop	r10
  2a8a48:	9f 90       	pop	r9
  2a8a4a:	8f 90       	pop	r8
  2a8a4c:	08 95       	ret

Disassembly of section .text._ZN5Print5printEli:

005513ea <_ZN5Print5printEli>:
  5513ea:	cf 92       	push	r12
  5513ec:	df 92       	push	r13
  5513ee:	ef 92       	push	r14
  5513f0:	ff 92       	push	r15
  5513f2:	0f 93       	push	r16
  5513f4:	1f 93       	push	r17
  5513f6:	cf 93       	push	r28
  5513f8:	df 93       	push	r29
  5513fa:	ec 01       	movw	r28, r24
  5513fc:	6a 01       	movw	r12, r20
  5513fe:	7b 01       	movw	r14, r22
  551400:	21 15       	cp	r18, r1
  551402:	31 05       	cpc	r19, r1
  551404:	01 f4       	brne	.+0      	; 0x551406 <_ZN5Print5printEli+0x1c>
  551406:	e8 81       	ld	r30, Y
  551408:	f9 81       	ldd	r31, Y+1	; 0x01
  55140a:	01 90       	ld	r0, Z+
  55140c:	f0 81       	ld	r31, Z
  55140e:	e0 2d       	mov	r30, r0
  551410:	64 2f       	mov	r22, r20
  551412:	df 91       	pop	r29
  551414:	cf 91       	pop	r28
  551416:	1f 91       	pop	r17
  551418:	0f 91       	pop	r16
  55141a:	ff 90       	pop	r15
  55141c:	ef 90       	pop	r14
  55141e:	df 90       	pop	r13
  551420:	cf 90       	pop	r12
  551422:	09 94       	ijmp
  551424:	2a 30       	cpi	r18, 0x0A	; 10
  551426:	31 05       	cpc	r19, r1
  551428:	01 f4       	brne	.+0      	; 0x55142a <_ZN5Print5printEli+0x40>
  55142a:	77 ff       	sbrs	r23, 7
  55142c:	00 c0       	rjmp	.+0      	; 0x55142e <_ZN5Print5printEli+0x44>
  55142e:	6d e2       	ldi	r22, 0x2D	; 45
  551430:	0e 94 00 00 	call	0	; 0x0 <__tmp_reg__>
  551434:	8c 01       	movw	r16, r24
  551436:	44 27       	eor	r20, r20
  551438:	55 27       	eor	r21, r21
  55143a:	ba 01       	movw	r22, r20
  55143c:	4c 19       	sub	r20, r12
  55143e:	5d 09       	sbc	r21, r13
  551440:	6e 09       	sbc	r22, r14
  551442:	7f 09       	sbc	r23, r15
  551444:	2a e0       	ldi	r18, 0x0A	; 10
  551446:	ce 01       	movw	r24, r28
  551448:	0e 94 00 00 	call	0	; 0x0 <__tmp_reg__>
  55144c:	80 0f       	add	r24, r16
  55144e:	91 1f       	adc	r25, r17
  551450:	df 91       	pop	r29
  551452:	cf 91       	pop	r28
  551454:	1f 91       	pop	r17
  551456:	0f 91       	pop	r16
  551458:	ff 90       	pop	r15
  55145a:	ef 90       	pop	r14
  55145c:	df 90       	pop	r13
  55145e:	cf 90       	pop	r12
  551460:	08 95       	ret
  551462:	2a e0       	ldi	r18, 0x0A	; 10
  551464:	b7 01       	movw	r22, r14
  551466:	a6 01       	movw	r20, r12
  551468:	ce 01       	movw	r24, r28
  55146a:	df 91       	pop	r29
  55146c:	cf 91       	pop	r28
  55146e:	1f 91       	pop	r17
  551470:	0f 91       	pop	r16
  551472:	ff 90       	pop	r15
  551474:	ef 90       	pop	r14
  551476:	df 90       	pop	r13
  551478:	cf 90       	pop	r12
  55147a:	0c 94 00 00 	jmp	0	; 0x0 <__tmp_reg__>

Disassembly of section .text._ZN5Print5printEii:

00aa2868 <_ZN5Print5printEii>:
  aa2868:	9a 01       	movw	r18, r20
  aa286a:	ab 01       	movw	r20, r22
  aa286c:	66 27       	eor	r22, r22
  aa286e:	57 fd       	sbrc	r21, 7
  aa2870:	60 95       	com	r22
  aa2872:	76 2f       	mov	r23, r22
  aa2874:	0c 94 00 00 	jmp	0	; 0x0 <__tmp_reg__>

Disassembly of section .text._ZN5Print7printlnEii:

015450e0 <_ZN5Print7printlnEii>:
 15450e0:	0f 93       	push	r16
 15450e2:	1f 93       	push	r17
 15450e4:	cf 93       	push	r28
 15450e6:	df 93       	push	r29
 15450e8:	ec 01       	movw	r28, r24
 15450ea:	9a 01       	movw	r18, r20
 15450ec:	ab 01       	movw	r20, r22
 15450ee:	66 27       	eor	r22, r22
 15450f0:	57 fd       	sbrc	r21, 7
 15450f2:	60 95       	com	r22
 15450f4:	76 2f       	mov	r23, r22
 15450f6:	0e 94 00 00 	call	0	; 0x0 <__tmp_reg__>
 15450fa:	8c 01       	movw	r16, r24
 15450fc:	ce 01       	movw	r24, r28
 15450fe:	0e 94 00 00 	call	0	; 0x0 <__tmp_reg__>
 1545102:	80 0f       	add	r24, r16
 1545104:	91 1f       	adc	r25, r17
 1545106:	df 91       	pop	r29
 1545108:	cf 91       	pop	r28
 154510a:	1f 91       	pop	r17
 154510c:	0f 91       	pop	r16
 154510e:	08 95       	ret

Disassembly of section .text._ZN5Print7printlnEli:

02a8a1f0 <_ZN5Print7printlnEli>:
 2a8a1f0:	0f 93       	push	r16
 2a8a1f2:	1f 93       	push	r17
 2a8a1f4:	cf 93       	push	r28
 2a8a1f6:	df 93       	push	r29
 2a8a1f8:	ec 01       	movw	r28, r24
 2a8a1fa:	0e 94 00 00 	call	0	; 0x0 <__tmp_reg__>
 2a8a1fe:	8c 01       	movw	r16, r24
 2a8a200:	ce 01       	movw	r24, r28
 2a8a202:	0e 94 00 00 	call	0	; 0x0 <__tmp_reg__>
 2a8a206:	80 0f       	add	r24, r16
 2a8a208:	91 1f       	adc	r25, r17
 2a8a20a:	df 91       	pop	r29
 2a8a20c:	cf 91       	pop	r28
 2a8a20e:	1f 91       	pop	r17
 2a8a210:	0f 91       	pop	r16
 2a8a212:	08 95       	ret

Disassembly of section .text._ZN5Print5printEmi:

05514404 <_ZN5Print5printEmi>:
 5514404:	21 15       	cp	r18, r1
 5514406:	31 05       	cpc	r19, r1
 5514408:	01 f4       	brne	.+0      	; 0x551440a <_ZN5Print5printEmi+0x6>
 551440a:	dc 01       	movw	r26, r24
 551440c:	ed 91       	ld	r30, X+
 551440e:	fc 91       	ld	r31, X
 5514410:	01 90       	ld	r0, Z+
 5514412:	f0 81       	ld	r31, Z
 5514414:	e0 2d       	mov	r30, r0
 5514416:	64 2f       	mov	r22, r20
 5514418:	09 94       	ijmp
 551441a:	0c 94 00 00 	jmp	0	; 0x0 <__tmp_reg__>

Disassembly of section .text._ZN5Print5printEhi:

0aa28822 <_ZN5Print5printEhi>:
 aa28822:	9a 01       	movw	r18, r20
 aa28824:	46 2f       	mov	r20, r22
 aa28826:	50 e0       	ldi	r21, 0x00	; 0
 aa28828:	60 e0       	ldi	r22, 0x00	; 0
 aa2882a:	70 e0       	ldi	r23, 0x00	; 0
 aa2882c:	0c 94 00 00 	jmp	0	; 0x0 <__tmp_reg__>

Disassembly of section .text._ZN5Print7printlnEhi:

15451052 <_ZN5Print7printlnEhi>:
15451052:	0f 93       	push	r16
15451054:	1f 93       	push	r17
15451056:	cf 93       	push	r28
15451058:	df 93       	push	r29
1545105a:	ec 01       	movw	r28, r24
1545105c:	9a 01       	movw	r18, r20
1545105e:	46 2f       	mov	r20, r22
15451060:	50 e0       	ldi	r21, 0x00	; 0
15451062:	60 e0       	ldi	r22, 0x00	; 0
15451064:	70 e0       	ldi	r23, 0x00	; 0
15451066:	0e 94 00 00 	call	0	; 0x0 <__tmp_reg__>
1545106a:	8c 01       	movw	r16, r24
1545106c:	ce 01       	movw	r24, r28
1545106e:	0e 94 00 00 	call	0	; 0x0 <__tmp_reg__>
15451072:	80 0f       	add	r24, r16
15451074:	91 1f       	adc	r25, r17
15451076:	df 91       	pop	r29
15451078:	cf 91       	pop	r28
1545107a:	1f 91       	pop	r17
1545107c:	0f 91       	pop	r16
1545107e:	08 95       	ret

Disassembly of section .text._ZN5Print5printEji:

2a8a20d2 <_ZN5Print5printEji>:
2a8a20d2:	9a 01       	movw	r18, r20
2a8a20d4:	ab 01       	movw	r20, r22
2a8a20d6:	60 e0       	ldi	r22, 0x00	; 0
2a8a20d8:	70 e0       	ldi	r23, 0x00	; 0
2a8a20da:	0c 94 00 00 	jmp	0	; 0x0 <__tmp_reg__>

Disassembly of section .text._ZN5Print7printlnEji:

551441b0 <_ZN5Print7printlnEji>:
551441b0:	0f 93       	push	r16
551441b2:	1f 93       	push	r17
551441b4:	cf 93       	push	r28
551441b6:	df 93       	push	r29
551441b8:	ec 01       	movw	r28, r24
551441ba:	9a 01       	movw	r18, r20
551441bc:	ab 01       	movw	r20, r22
551441be:	60 e0       	ldi	r22, 0x00	; 0
551441c0:	70 e0       	ldi	r23, 0x00	; 0
551441c2:	0e 94 00 00 	call	0	; 0x0 <__tmp_reg__>
551441c6:	8c 01       	movw	r16, r24
551441c8:	ce 01       	movw	r24, r28
551441ca:	0e 94 00 00 	call	0	; 0x0 <__tmp_reg__>
551441ce:	80 0f       	add	r24, r16
551441d0:	91 1f       	adc	r25, r17
551441d2:	df 91       	pop	r29
551441d4:	cf 91       	pop	r28
551441d6:	1f 91       	pop	r17
551441d8:	0f 91       	pop	r16
551441da:	08 95       	ret

Disassembly of section .text._ZN5Print7printlnEmi:

aa28838c <_ZN5Print7printlnEmi>:
aa28838c:	0f 93       	push	r16
aa28838e:	1f 93       	push	r17
aa288390:	cf 93       	push	r28
aa288392:	df 93       	push	r29
aa288394:	ec 01       	movw	r28, r24
aa288396:	0e 94 00 00 	call	0	; 0x0 <__tmp_reg__>
aa28839a:	8c 01       	movw	r16, r24
aa28839c:	ce 01       	movw	r24, r28
aa28839e:	0e 94 00 00 	call	0	; 0x0 <__tmp_reg__>
aa2883a2:	80 0f       	add	r24, r16
aa2883a4:	91 1f       	adc	r25, r17
aa2883a6:	df 91       	pop	r29
aa2883a8:	cf 91       	pop	r28
aa2883aa:	1f 91       	pop	r17
aa2883ac:	0f 91       	pop	r16
aa2883ae:	08 95       	ret

Disassembly of section .text._ZN5Print10printFloatEdh:

5451073c <_ZN5Print10printFloatEdh>:
5451073c:	4f 92       	push	r4
5451073e:	5f 92       	push	r5
54510740:	6f 92       	push	r6
54510742:	7f 92       	push	r7
54510744:	8f 92       	push	r8
54510746:	9f 92       	push	r9
54510748:	af 92       	push	r10
5451074a:	bf 92       	push	r11
5451074c:	cf 92       	push	r12
5451074e:	df 92       	push	r13
54510750:	ef 92       	push	r14
54510752:	ff 92       	push	r15
54510754:	0f 93       	push	r16
54510756:	1f 93       	push	r17
54510758:	cf 93       	push	r28
5451075a:	df 93       	push	r29
5451075c:	ec 01       	movw	r28, r24
5451075e:	6a 01       	movw	r12, r20
54510760:	7b 01       	movw	r14, r22
54510762:	b2 2e       	mov	r11, r18
54510764:	9a 01       	movw	r18, r20
54510766:	ab 01       	movw	r20, r22
54510768:	c7 01       	movw	r24, r14
5451076a:	b6 01       	movw	r22, r12
5451076c:	0e 94 00 00 	call	0	; 0x0 <__tmp_reg__>
54510770:	88 23       	and	r24, r24
54510772:	01 f0       	breq	.+0      	; 0x54510774 <__SREG__+0x54510735>
54510774:	60 e0       	ldi	r22, 0x00	; 0
54510776:	70 e0       	ldi	r23, 0x00	; 0
54510778:	00 c0       	rjmp	.+0      	; 0x5451077a <__SREG__+0x5451073b>
5451077a:	26 01       	movw	r4, r12
5451077c:	37 01       	movw	r6, r14
5451077e:	e8 94       	clt
54510780:	77 f8       	bld	r7, 7
54510782:	2f ef       	ldi	r18, 0xFF	; 255
54510784:	3f ef       	ldi	r19, 0xFF	; 255
54510786:	4f e7       	ldi	r20, 0x7F	; 127
54510788:	5f e7       	ldi	r21, 0x7F	; 127
5451078a:	c3 01       	movw	r24, r6
5451078c:	b2 01       	movw	r22, r4
5451078e:	0e 94 00 00 	call	0	; 0x0 <__tmp_reg__>
54510792:	81 11       	cpse	r24, r1
54510794:	00 c0       	rjmp	.+0      	; 0x54510796 <__SREG__+0x54510757>
54510796:	2f ef       	ldi	r18, 0xFF	; 255
54510798:	3f ef       	ldi	r19, 0xFF	; 255
5451079a:	4f e7       	ldi	r20, 0x7F	; 127
5451079c:	5f e7       	ldi	r21, 0x7F	; 127
5451079e:	c3 01       	movw	r24, r6
545107a0:	b2 01       	movw	r22, r4
545107a2:	0e 94 00 00 	call	0	; 0x0 <__tmp_reg__>
545107a6:	18 16       	cp	r1, r24
545107a8:	04 f4       	brge	.+0      	; 0x545107aa <__SREG__+0x5451076b>
545107aa:	60 e0       	ldi	r22, 0x00	; 0
545107ac:	70 e0       	ldi	r23, 0x00	; 0
545107ae:	00 c0       	rjmp	.+0      	; 0x545107b0 <__SREG__+0x54510771>
545107b0:	2f ef       	ldi	r18, 0xFF	; 255
545107b2:	3f ef       	ldi	r19, 0xFF	; 255
545107b4:	4f e7       	ldi	r20, 0x7F	; 127
545107b6:	5f e4       	ldi	r21, 0x4F	; 79
545107b8:	c7 01       	movw	r24, r14
545107ba:	b6 01       	movw	r22, r12
545107bc:	0e 94 00 00 	call	0	; 0x0 <__tmp_reg__>
545107c0:	18 16       	cp	r1, r24
545107c2:	04 f4       	brge	.+0      	; 0x545107c4 <__SREG__+0x54510785>
545107c4:	60 e0       	ldi	r22, 0x00	; 0
545107c6:	70 e0       	ldi	r23, 0x00	; 0
545107c8:	ce 01       	movw	r24, r28
545107ca:	df 91       	pop	r29
545107cc:	cf 91       	pop	r28
545107ce:	1f 91       	pop	r17
545107d0:	0f 91       	pop	r16
545107d2:	ff 90       	pop	r15
545107d4:	ef 90       	pop	r14
545107d6:	df 90       	pop	r13
545107d8:	cf 90       	pop	r12
545107da:	bf 90       	pop	r11
545107dc:	af 90       	pop	r10
545107de:	9f 90       	pop	r9
545107e0:	8f 90       	pop	r8
545107e2:	7f 90       	pop	r7
545107e4:	6f 90       	pop	r6
545107e6:	5f 90       	pop	r5
545107e8:	4f 90       	pop	r4
545107ea:	0c 94 00 00 	jmp	0	; 0x0 <__tmp_reg__>
545107ee:	2f ef       	ldi	r18, 0xFF	; 255
545107f0:	3f ef       	ldi	r19, 0xFF	; 255
545107f2:	4f e7       	ldi	r20, 0x7F	; 127
545107f4:	5f ec       	ldi	r21, 0xCF	; 207
545107f6:	c7 01       	movw	r24, r14
545107f8:	b6 01       	movw	r22, r12
545107fa:	0e 94 00 00 	call	0	; 0x0 <__tmp_reg__>
545107fe:	87 fd       	sbrc	r24, 7
54510800:	00 c0       	rjmp	.+0      	; 0x54510802 <__SREG__+0x545107c3>
54510802:	20 e0       	ldi	r18, 0x00	; 0
54510804:	30 e0       	ldi	r19, 0x00	; 0
54510806:	a9 01       	movw	r20, r18
54510808:	c7 01       	movw	r24, r14
5451080a:	b6 01       	movw	r22, r12
5451080c:	0e 94 00 00 	call	0	; 0x0 <__tmp_reg__>
54510810:	87 ff       	sbrs	r24, 7
54510812:	00 c0       	rjmp	.+0      	; 0x54510814 <__SREG__+0x545107d5>
54510814:	6d e2       	ldi	r22, 0x2D	; 45
54510816:	ce 01       	movw	r24, r28
54510818:	0e 94 00 00 	call	0	; 0x0 <__tmp_reg__>
5451081c:	8c 01       	movw	r16, r24
5451081e:	f7 fa       	bst	r15, 7
54510820:	f0 94       	com	r15
54510822:	f7 f8       	bld	r15, 7
54510824:	f0 94       	com	r15
54510826:	00 c0       	rjmp	.+0      	; 0x54510828 <__SREG__+0x545107e9>
54510828:	00 e0       	ldi	r16, 0x00	; 0
5451082a:	10 e0       	ldi	r17, 0x00	; 0
5451082c:	a1 2c       	mov	r10, r1
5451082e:	60 e0       	ldi	r22, 0x00	; 0
54510830:	70 e0       	ldi	r23, 0x00	; 0
54510832:	80 e0       	ldi	r24, 0x00	; 0
54510834:	9f e3       	ldi	r25, 0x3F	; 63
54510836:	ab 14       	cp	r10, r11
54510838:	01 f0       	breq	.+0      	; 0x5451083a <__SREG__+0x545107fb>
5451083a:	20 e0       	ldi	r18, 0x00	; 0
5451083c:	30 e0       	ldi	r19, 0x00	; 0
5451083e:	40 e2       	ldi	r20, 0x20	; 32
54510840:	51 e4       	ldi	r21, 0x41	; 65
54510842:	0e 94 00 00 	call	0	; 0x0 <__tmp_reg__>
54510846:	a3 94       	inc	r10
54510848:	00 c0       	rjmp	.+0      	; 0x5451084a <__SREG__+0x5451080b>
5451084a:	9b 01       	movw	r18, r22
5451084c:	ac 01       	movw	r20, r24
5451084e:	c7 01       	movw	r24, r14
54510850:	b6 01       	movw	r22, r12
54510852:	0e 94 00 00 	call	0	; 0x0 <__tmp_reg__>
54510856:	6b 01       	movw	r12, r22
54510858:	7c 01       	movw	r14, r24
5451085a:	0e 94 00 00 	call	0	; 0x0 <__tmp_reg__>
5451085e:	2b 01       	movw	r4, r22
54510860:	3c 01       	movw	r6, r24
54510862:	0e 94 00 00 	call	0	; 0x0 <__tmp_reg__>
54510866:	9b 01       	movw	r18, r22
54510868:	ac 01       	movw	r20, r24
5451086a:	c7 01       	movw	r24, r14
5451086c:	b6 01       	movw	r22, r12
5451086e:	0e 94 00 00 	call	0	; 0x0 <__tmp_reg__>
54510872:	6b 01       	movw	r12, r22
54510874:	7c 01       	movw	r14, r24
54510876:	2a e0       	ldi	r18, 0x0A	; 10
54510878:	b3 01       	movw	r22, r6
5451087a:	a2 01       	movw	r20, r4
5451087c:	ce 01       	movw	r24, r28
5451087e:	0e 94 00 00 	call	0	; 0x0 <__tmp_reg__>
54510882:	08 0f       	add	r16, r24
54510884:	19 1f       	adc	r17, r25
54510886:	bb 20       	and	r11, r11
54510888:	01 f0       	breq	.+0      	; 0x5451088a <__SREG__+0x5451084b>
5451088a:	60 e0       	ldi	r22, 0x00	; 0
5451088c:	70 e0       	ldi	r23, 0x00	; 0
5451088e:	ce 01       	movw	r24, r28
54510890:	0e 94 00 00 	call	0	; 0x0 <__tmp_reg__>
54510894:	08 0f       	add	r16, r24
54510896:	19 1f       	adc	r17, r25
54510898:	7b 2c       	mov	r7, r11
5451089a:	77 20       	and	r7, r7
5451089c:	01 f0       	breq	.+0      	; 0x5451089e <__SREG__+0x5451085f>
5451089e:	20 e0       	ldi	r18, 0x00	; 0
545108a0:	30 e0       	ldi	r19, 0x00	; 0
545108a2:	40 e2       	ldi	r20, 0x20	; 32
545108a4:	51 e4       	ldi	r21, 0x41	; 65
545108a6:	c7 01       	movw	r24, r14
545108a8:	b6 01       	movw	r22, r12
545108aa:	0e 94 00 00 	call	0	; 0x0 <__tmp_reg__>
545108ae:	6b 01       	movw	r12, r22
545108b0:	7c 01       	movw	r14, r24
545108b2:	0e 94 00 00 	call	0	; 0x0 <__tmp_reg__>
545108b6:	4b 01       	movw	r8, r22
545108b8:	aa 24       	eor	r10, r10
545108ba:	97 fc       	sbrc	r9, 7
545108bc:	a0 94       	com	r10
545108be:	ba 2c       	mov	r11, r10
545108c0:	2a e0       	ldi	r18, 0x0A	; 10
545108c2:	30 e0       	ldi	r19, 0x00	; 0
545108c4:	b5 01       	movw	r22, r10
545108c6:	a4 01       	movw	r20, r8
545108c8:	ce 01       	movw	r24, r28
545108ca:	0e 94 00 00 	call	0	; 0x0 <__tmp_reg__>
545108ce:	08 0f       	add	r16, r24
545108d0:	19 1f       	adc	r17, r25
545108d2:	c5 01       	movw	r24, r10
545108d4:	b4 01       	movw	r22, r8
545108d6:	0e 94 00 00 	call	0	; 0x0 <__tmp_reg__>
545108da:	9b 01       	movw	r18, r22
545108dc:	ac 01       	movw	r20, r24
545108de:	c7 01       	movw	r24, r14
545108e0:	b6 01       	movw	r22, r12
545108e2:	0e 94 00 00 	call	0	; 0x0 <__tmp_reg__>
545108e6:	6b 01       	movw	r12, r22
545108e8:	7c 01       	movw	r14, r24
545108ea:	7a 94       	dec	r7
545108ec:	00 c0       	rjmp	.+0      	; 0x545108ee <__SREG__+0x545108af>
545108ee:	c8 01       	movw	r24, r16
545108f0:	df 91       	pop	r29
545108f2:	cf 91       	pop	r28
545108f4:	1f 91       	pop	r17
545108f6:	0f 91       	pop	r16
545108f8:	ff 90       	pop	r15
545108fa:	ef 90       	pop	r14
545108fc:	df 90       	pop	r13
545108fe:	cf 90       	pop	r12
54510900:	bf 90       	pop	r11
54510902:	af 90       	pop	r10
54510904:	9f 90       	pop	r9
54510906:	8f 90       	pop	r8
54510908:	7f 90       	pop	r7
5451090a:	6f 90       	pop	r6
5451090c:	5f 90       	pop	r5
5451090e:	4f 90       	pop	r4
54510910:	08 95       	ret

Disassembly of section .text._ZN5Print5printEdi:

a8a2104e <_ZN5Print5printEdi>:
a8a2104e:	0c 94 00 00 	jmp	0	; 0x0 <__tmp_reg__>

Disassembly of section .text._ZN5Print7printlnEdi:

514420a0 <_ZN5Print7printlnEdi>:
514420a0:	0f 93       	push	r16
514420a2:	1f 93       	push	r17
514420a4:	cf 93       	push	r28
514420a6:	df 93       	push	r29
514420a8:	ec 01       	movw	r28, r24
514420aa:	0e 94 00 00 	call	0	; 0x0 <__tmp_reg__>
514420ae:	8c 01       	movw	r16, r24
514420b0:	ce 01       	movw	r24, r28
514420b2:	0e 94 00 00 	call	0	; 0x0 <__tmp_reg__>
514420b6:	80 0f       	add	r24, r16
514420b8:	91 1f       	adc	r25, r17
514420ba:	df 91       	pop	r29
514420bc:	cf 91       	pop	r28
514420be:	1f 91       	pop	r17
514420c0:	0f 91       	pop	r16
514420c2:	08 95       	ret

Stream.o:     file format elf32-avr

Sections:
Idx Name          Size      VMA       LMA       File off  Algn
  0 .text         00000000  00000000  00000000  00000034  2**0
                  CONTENTS, ALLOC, LOAD, READONLY, CODE
  1 .data         00000040  00000000  00000000  00000034  2**0
                  CONTENTS, ALLOC, LOAD, DATA
  2 .bss          00000000  00000000  00000000  00000074  2**0
                  ALLOC
  3 .stab         000012e4  00000000  00000000  00000074  2**2
                  CONTENTS, RELOC, READONLY, DEBUGGING
  4 .stabstr      000018b8  00000000  00000000  00001358  2**0
                  CONTENTS, READONLY, DEBUGGING
  5 .text._ZN6Stream9timedReadEv 0000005c  00000000  00000000  00002c10  2**0
                  CONTENTS, ALLOC, LOAD, RELOC, READONLY, CODE
  6 .text._ZN6Stream9timedPeekEv 0000005c  00000000  00000000  00002c6c  2**0
                  CONTENTS, ALLOC, LOAD, RELOC, READONLY, CODE
  7 .text._ZN6Stream13peekNextDigitE13LookaheadModeb 0000007e  00000000  00000000  00002cc8  2**0
                  CONTENTS, ALLOC, LOAD, RELOC, READONLY, CODE
  8 .text._ZN6Stream10setTimeoutEm 0000000c  00000000  00000000  00002d46  2**0
                  CONTENTS, ALLOC, LOAD, READONLY, CODE
  9 .text._ZN6Stream8parseIntE13LookaheadModec 000000dc  00000000  00000000  00002d52  2**0
                  CONTENTS, ALLOC, LOAD, RELOC, READONLY, CODE
 10 .text._ZN6Stream10parseFloatE13LookaheadModec 00000134  00000000  00000000  00002e2e  2**0
                  CONTENTS, ALLOC, LOAD, RELOC, READONLY, CODE
 11 .text._ZN6Stream9readBytesEPcj 00000046  00000000  00000000  00002f62  2**0
                  CONTENTS, ALLOC, LOAD, RELOC, READONLY, CODE
 12 .text._ZN6Stream14readBytesUntilEcPcj 00000066  00000000  00000000  00002fa8  2**0
                  CONTENTS, ALLOC, LOAD, RELOC, READONLY, CODE
 13 .rodata.str1.1 00000001  00000000  00000000  0000300e  2**0
                  CONTENTS, ALLOC, LOAD, READONLY, DATA
 14 .text._ZN6Stream10readStringEv 00000034  00000000  00000000  0000300f  2**0
                  CONTENTS, ALLOC, LOAD, RELOC, READONLY, CODE
 15 .text._ZN6Stream15readStringUntilEc 0000004c  00000000  00000000  00003043  2**0
                  CONTENTS, ALLOC, LOAD, RELOC, READONLY, CODE
 16 .text._ZN6Stream9findMultiEPNS_11MultiTargetEi 00000132  00000000  00000000  0000308f  2**0
                  CONTENTS, ALLOC, LOAD, RELOC, READONLY, CODE
 17 .text._ZN6Stream9findUntilEPcjS0_j.part.0 0000004a  00000000  00000000  000031c1  2**0
                  CONTENTS, ALLOC, LOAD, RELOC, READONLY, CODE
 18 .text._ZN6Stream9findUntilEPcjS0_j 00000074  00000000  00000000  0000320b  2**0
                  CONTENTS, ALLOC, LOAD, RELOC, READONLY, CODE
 19 .text._ZN6Stream9findUntilEPcS0_ 00000034  00000000  00000000  0000327f  2**0
                  CONTENTS, ALLOC, LOAD, RELOC, READONLY, CODE
 20 .text._ZN6Stream4findEPcj 00000004  00000000  00000000  000032b3  2**0
                  CONTENTS, ALLOC, LOAD, RELOC, READONLY, CODE
 21 .text._ZN6Stream4findEPc 00000016  00000000  00000000  000032b7  2**0
                  CONTENTS, ALLOC, LOAD, RELOC, READONLY, CODE
 22 .comment      00000012  00000000  00000000  000032cd  2**0
                  CONTENTS, READONLY

Disassembly of section .text._ZN6Stream9timedReadEv:

00000000 <_ZN6Stream9timedReadEv>:
}

 // find returns true if the target string is found
bool  Stream::find(char *target)
{
  return findUntil(target, strlen(target), NULL, 0);
   0:	0f 93       	push	r16
  42:	1f 93       	ldd	r19, Y+7	; 0x07
  44:	cf 93       	cp	r22, r16
  46:	df 93       	cpc	r23, r17
  48:	ec 01       	cpc	r24, r18
  4a:	0e 94       	cpc	r25, r19
  4c:	00 00       	brcs	.+0      	; 0x4e <_ZN6Stream9timedReadEv+0xe>
  4e:	68 87       	ldi	r24, 0xFF	; 255
  50:	79 87       	ldi	r25, 0xFF	; 255
  52:	8a 87       	pop	r29
  54:	9b 87       	pop	r28
  56:	e8 81       	pop	r17
  58:	f9 81       	pop	r16
  5a:	06 80       	ret
  5c:	f7 81       	Address 0x000000000000005c is out of bounds.
.word	0xffff	; ????
  5e:	e0 2d       	Address 0x000000000000005e is out of bounds.
.word	0xffff	; ????
  60:	ce 01       	Address 0x0000000000000060 is out of bounds.
.word	0xffff	; ????
  62:	09 95       	Address 0x0000000000000062 is out of bounds.
.word	0xffff	; ????
  64:	97 ff       	Address 0x0000000000000064 is out of bounds.
.word	0xffff	; ????
  66:	00 c0       	Address 0x0000000000000066 is out of bounds.
.word	0xffff	; ????
  68:	0e 94       	Address 0x0000000000000068 is out of bounds.
.word	0xffff	; ????
  6a:	00 00       	Address 0x000000000000006a is out of bounds.
.word	0xffff	; ????
  6c:	08 85       	Address 0x000000000000006c is out of bounds.
.word	0xffff	; ????
  6e:	19 85       	Address 0x000000000000006e is out of bounds.
.word	0xffff	; ????
  70:	2a 85       	Address 0x0000000000000070 is out of bounds.
.word	0xffff	; ????
  72:	3b 85       	Address 0x0000000000000072 is out of bounds.
.word	0xffff	; ????
  74:	60 1b       	Address 0x0000000000000074 is out of bounds.
.word	0xffff	; ????
  76:	71 0b       	Address 0x0000000000000076 is out of bounds.
.word	0xffff	; ????
  78:	82 0b       	Address 0x0000000000000078 is out of bounds.
.word	0xffff	; ????
  7a:	93 0b       	Address 0x000000000000007a is out of bounds.
.word	0xffff	; ????
  7c:	0c 81       	Address 0x000000000000007c is out of bounds.
.word	0xffff	; ????
  7e:	1d 81       	Address 0x000000000000007e is out of bounds.
.word	0xffff	; ????
  80:	2e 81       	Address 0x0000000000000080 is out of bounds.
.word	0xffff	; ????
  82:	3f 81       	Address 0x0000000000000082 is out of bounds.
.word	0xffff	; ????
  84:	60 17       	Address 0x0000000000000084 is out of bounds.
.word	0xffff	; ????
  86:	71 07       	Address 0x0000000000000086 is out of bounds.
.word	0xffff	; ????
  88:	82 07       	Address 0x0000000000000088 is out of bounds.
.word	0xffff	; ????
  8a:	93 07       	Address 0x000000000000008a is out of bounds.
.word	0xffff	; ????
  8c:	00 f0       	Address 0x000000000000008c is out of bounds.
.word	0xffff	; ????
  8e:	8f ef       	Address 0x000000000000008e is out of bounds.
.word	0xffff	; ????
  90:	9f ef       	Address 0x0000000000000090 is out of bounds.
.word	0xffff	; ????
  92:	df 91       	Address 0x0000000000000092 is out of bounds.
.word	0xffff	; ????
  94:	cf 91       	Address 0x0000000000000094 is out of bounds.
.word	0xffff	; ????
  96:	1f 91       	Address 0x0000000000000096 is out of bounds.
.word	0xffff	; ????
  98:	0f 91       	Address 0x0000000000000098 is out of bounds.
.word	0xffff	; ????
  9a:	08 95       	Address 0x000000000000009a is out of bounds.
.word	0xffff	; ????

Disassembly of section .text._ZN6Stream9timedPeekEv:

000000dc <_ZN6Stream9timedPeekEv>:
  dc:	0f 93       	push	r16
  de:	1f 93       	push	r17
  e0:	cf 93       	push	r28
  e2:	df 93       	push	r29
  e4:	ec 01       	movw	r28, r24
  e6:	0e 94 00 00 	call	0	; 0x0 <__tmp_reg__>
  ea:	68 87       	std	Y+8, r22	; 0x08
  ec:	79 87       	std	Y+9, r23	; 0x09
  ee:	8a 87       	std	Y+10, r24	; 0x0a
  f0:	9b 87       	std	Y+11, r25	; 0x0b
  f2:	e8 81       	ld	r30, Y
  f4:	f9 81       	ldd	r31, Y+1	; 0x01
  f6:	00 84       	ldd	r0, Z+8	; 0x08
  f8:	f1 85       	ldd	r31, Z+9	; 0x09
  fa:	e0 2d       	mov	r30, r0
  fc:	ce 01       	movw	r24, r28
  fe:	09 95       	icall
 100:	97 ff       	sbrs	r25, 7
 102:	00 c0       	rjmp	.+0      	; 0x104 <_ZN6Stream9timedPeekEv+0x28>
 104:	0e 94 00 00 	call	0	; 0x0 <__tmp_reg__>
 108:	08 85       	ldd	r16, Y+8	; 0x08
 10a:	19 85       	ldd	r17, Y+9	; 0x09
 10c:	2a 85       	ldd	r18, Y+10	; 0x0a
 10e:	3b 85       	ldd	r19, Y+11	; 0x0b
 110:	60 1b       	sub	r22, r16
 112:	71 0b       	sbc	r23, r17
 114:	82 0b       	sbc	r24, r18
 116:	93 0b       	sbc	r25, r19
 118:	0c 81       	ldd	r16, Y+4	; 0x04
 11a:	1d 81       	ldd	r17, Y+5	; 0x05
 11c:	2e 81       	ldd	r18, Y+6	; 0x06
 11e:	3f 81       	ldd	r19, Y+7	; 0x07
 120:	60 17       	cp	r22, r16
 122:	71 07       	cpc	r23, r17
 124:	82 07       	cpc	r24, r18
 126:	93 07       	cpc	r25, r19
 128:	00 f0       	brcs	.+0      	; 0x12a <_ZN6Stream9timedPeekEv+0x4e>
 12a:	8f ef       	ldi	r24, 0xFF	; 255
 12c:	9f ef       	ldi	r25, 0xFF	; 255
 12e:	df 91       	pop	r29
 130:	cf 91       	pop	r28
 132:	1f 91       	pop	r17
 134:	0f 91       	pop	r16
 136:	08 95       	ret

Disassembly of section .text._ZN6Stream13peekNextDigitE13LookaheadModeb:

00000214 <_ZN6Stream13peekNextDigitE13LookaheadModeb>:
 214:	0f 93       	push	r16
 216:	1f 93       	push	r17
 218:	cf 93       	push	r28
 21a:	df 93       	push	r29
 21c:	ec 01       	movw	r28, r24
 21e:	16 2f       	mov	r17, r22
 220:	04 2f       	mov	r16, r20
 222:	ce 01       	movw	r24, r28
 224:	0e 94 00 00 	call	0	; 0x0 <__tmp_reg__>
 228:	9c 01       	movw	r18, r24
 22a:	97 fd       	sbrc	r25, 7
 22c:	00 c0       	rjmp	.+0      	; 0x22e <_ZN6Stream13peekNextDigitE13LookaheadModeb+0x1a>
 22e:	8d 32       	cpi	r24, 0x2D	; 45
 230:	91 05       	cpc	r25, r1
 232:	01 f0       	breq	.+0      	; 0x234 <_ZN6Stream13peekNextDigitE13LookaheadModeb+0x20>
 234:	c0 97       	sbiw	r24, 0x30	; 48
 236:	0a 97       	sbiw	r24, 0x0a	; 10
 238:	00 f0       	brcs	.+0      	; 0x23a <_ZN6Stream13peekNextDigitE13LookaheadModeb+0x26>
 23a:	00 23       	and	r16, r16
 23c:	01 f0       	breq	.+0      	; 0x23e <_ZN6Stream13peekNextDigitE13LookaheadModeb+0x2a>
 23e:	2e 32       	cpi	r18, 0x2E	; 46
 240:	31 05       	cpc	r19, r1
 242:	01 f0       	breq	.+0      	; 0x244 <_ZN6Stream13peekNextDigitE13LookaheadModeb+0x30>
 244:	11 30       	cpi	r17, 0x01	; 1
 246:	01 f0       	breq	.+0      	; 0x248 <_ZN6Stream13peekNextDigitE13LookaheadModeb+0x34>
 248:	12 30       	cpi	r17, 0x02	; 2
 24a:	01 f4       	brne	.+0      	; 0x24c <_ZN6Stream13peekNextDigitE13LookaheadModeb+0x38>
 24c:	2d 30       	cpi	r18, 0x0D	; 13
 24e:	31 05       	cpc	r19, r1
 250:	01 f0       	breq	.+0      	; 0x252 <_ZN6Stream13peekNextDigitE13LookaheadModeb+0x3e>
 252:	04 f4       	brge	.+0      	; 0x254 <_ZN6Stream13peekNextDigitE13LookaheadModeb+0x40>
 254:	29 50       	subi	r18, 0x09	; 9
 256:	31 09       	sbc	r19, r1
 258:	22 30       	cpi	r18, 0x02	; 2
 25a:	31 05       	cpc	r19, r1
 25c:	00 f0       	brcs	.+0      	; 0x25e <_ZN6Stream13peekNextDigitE13LookaheadModeb+0x4a>
 25e:	00 c0       	rjmp	.+0      	; 0x260 <_ZN6Stream13peekNextDigitE13LookaheadModeb+0x4c>
 260:	20 32       	cpi	r18, 0x20	; 32
 262:	31 05       	cpc	r19, r1
 264:	01 f4       	brne	.+0      	; 0x266 <_ZN6Stream13peekNextDigitE13LookaheadModeb+0x52>
 266:	e8 81       	ld	r30, Y
 268:	f9 81       	ldd	r31, Y+1	; 0x01
 26a:	06 80       	ldd	r0, Z+6	; 0x06
 26c:	f7 81       	ldd	r31, Z+7	; 0x07
 26e:	e0 2d       	mov	r30, r0
 270:	ce 01       	movw	r24, r28
 272:	09 95       	icall
 274:	00 c0       	rjmp	.+0      	; 0x276 <_ZN6Stream13peekNextDigitE13LookaheadModeb+0x62>
 276:	8d e2       	ldi	r24, 0x2D	; 45
 278:	00 c0       	rjmp	.+0      	; 0x27a <_ZN6Stream13peekNextDigitE13LookaheadModeb+0x66>
 27a:	c9 01       	movw	r24, r18
 27c:	00 c0       	rjmp	.+0      	; 0x27e <_ZN6Stream13peekNextDigitE13LookaheadModeb+0x6a>
 27e:	8e e2       	ldi	r24, 0x2E	; 46
 280:	90 e0       	ldi	r25, 0x00	; 0
 282:	00 c0       	rjmp	.+0      	; 0x284 <_ZN6Stream13peekNextDigitE13LookaheadModeb+0x70>
 284:	8f ef       	ldi	r24, 0xFF	; 255
 286:	9f ef       	ldi	r25, 0xFF	; 255
 288:	df 91       	pop	r29
 28a:	cf 91       	pop	r28
 28c:	1f 91       	pop	r17
 28e:	0f 91       	pop	r16
 290:	08 95       	ret

Disassembly of section .text._ZN6Stream10setTimeoutEm:

000004a6 <_ZN6Stream10setTimeoutEm>:
 4a6:	fc 01       	movw	r30, r24
 4a8:	44 83       	std	Z+4, r20	; 0x04
 4aa:	55 83       	std	Z+5, r21	; 0x05
 4ac:	66 83       	std	Z+6, r22	; 0x06
 4ae:	77 83       	std	Z+7, r23	; 0x07
 4b0:	08 95       	ret

Disassembly of section .text._ZN6Stream8parseIntE13LookaheadModec:

00000958 <_ZN6Stream8parseIntE13LookaheadModec>:
 958:	cf 92       	push	r12
 95a:	df 92       	push	r13
 95c:	ff 92       	push	r15
 95e:	0f 93       	push	r16
 960:	1f 93       	push	r17
 962:	cf 93       	push	r28
 964:	df 93       	push	r29
 966:	00 d0       	rcall	.+0      	; 0x968 <_ZN6Stream8parseIntE13LookaheadModec+0x10>
 968:	00 d0       	rcall	.+0      	; 0x96a <_ZN6Stream8parseIntE13LookaheadModec+0x12>
 96a:	cd b7       	in	r28, 0x3d	; 61
 96c:	de b7       	in	r29, 0x3e	; 62
 96e:	6c 01       	movw	r12, r24
 970:	04 2f       	mov	r16, r20
 972:	40 e0       	ldi	r20, 0x00	; 0
 974:	0e 94 00 00 	call	0	; 0x0 <__tmp_reg__>
 978:	fc 01       	movw	r30, r24
 97a:	97 fd       	sbrc	r25, 7
 97c:	00 c0       	rjmp	.+0      	; 0x97e <_ZN6Stream8parseIntE13LookaheadModec+0x26>
 97e:	20 e0       	ldi	r18, 0x00	; 0
 980:	30 e0       	ldi	r19, 0x00	; 0
 982:	a9 01       	movw	r20, r18
 984:	f1 2c       	mov	r15, r1
 986:	10 e0       	ldi	r17, 0x00	; 0
 988:	e0 17       	cp	r30, r16
 98a:	f1 07       	cpc	r31, r17
 98c:	01 f0       	breq	.+0      	; 0x98e <_ZN6Stream8parseIntE13LookaheadModec+0x36>
 98e:	ed 32       	cpi	r30, 0x2D	; 45
 990:	f1 05       	cpc	r31, r1
 992:	01 f0       	breq	.+0      	; 0x994 <_ZN6Stream8parseIntE13LookaheadModec+0x3c>
 994:	cf 01       	movw	r24, r30
 996:	c0 97       	sbiw	r24, 0x30	; 48
 998:	0a 97       	sbiw	r24, 0x0a	; 10
 99a:	00 f4       	brcc	.+0      	; 0x99c <_ZN6Stream8parseIntE13LookaheadModec+0x44>
 99c:	aa e0       	ldi	r26, 0x0A	; 10
 99e:	b0 e0       	ldi	r27, 0x00	; 0
 9a0:	0e 94 00 00 	call	0	; 0x0 <__tmp_reg__>
 9a4:	9b 01       	movw	r18, r22
 9a6:	ac 01       	movw	r20, r24
 9a8:	cf 01       	movw	r24, r30
 9aa:	aa 27       	eor	r26, r26
 9ac:	97 fd       	sbrc	r25, 7
 9ae:	a0 95       	com	r26
 9b0:	ba 2f       	mov	r27, r26
 9b2:	28 0f       	add	r18, r24
 9b4:	39 1f       	adc	r19, r25
 9b6:	4a 1f       	adc	r20, r26
 9b8:	5b 1f       	adc	r21, r27
 9ba:	20 53       	subi	r18, 0x30	; 48
 9bc:	31 09       	sbc	r19, r1
 9be:	41 09       	sbc	r20, r1
 9c0:	51 09       	sbc	r21, r1
 9c2:	00 c0       	rjmp	.+0      	; 0x9c4 <_ZN6Stream8parseIntE13LookaheadModec+0x6c>
 9c4:	ff 24       	eor	r15, r15
 9c6:	f3 94       	inc	r15
 9c8:	d6 01       	movw	r26, r12
 9ca:	ed 91       	ld	r30, X+
 9cc:	fc 91       	ld	r31, X
 9ce:	06 80       	ldd	r0, Z+6	; 0x06
 9d0:	f7 81       	ldd	r31, Z+7	; 0x07
 9d2:	e0 2d       	mov	r30, r0
 9d4:	c6 01       	movw	r24, r12
 9d6:	29 83       	std	Y+1, r18	; 0x01
 9d8:	3a 83       	std	Y+2, r19	; 0x02
 9da:	4b 83       	std	Y+3, r20	; 0x03
 9dc:	5c 83       	std	Y+4, r21	; 0x04
 9de:	09 95       	icall
 9e0:	c6 01       	movw	r24, r12
 9e2:	0e 94 00 00 	call	0	; 0x0 <__tmp_reg__>
 9e6:	fc 01       	movw	r30, r24
 9e8:	c0 97       	sbiw	r24, 0x30	; 48
 9ea:	29 81       	ldd	r18, Y+1	; 0x01
 9ec:	3a 81       	ldd	r19, Y+2	; 0x02
 9ee:	4b 81       	ldd	r20, Y+3	; 0x03
 9f0:	5c 81       	ldd	r21, Y+4	; 0x04
 9f2:	0a 97       	sbiw	r24, 0x0a	; 10
 9f4:	00 f0       	brcs	.+0      	; 0x9f6 <_ZN6Stream8parseIntE13LookaheadModec+0x9e>
 9f6:	e0 17       	cp	r30, r16
 9f8:	f1 07       	cpc	r31, r17
 9fa:	01 f0       	breq	.+0      	; 0x9fc <_ZN6Stream8parseIntE13LookaheadModec+0xa4>
 9fc:	ff 20       	and	r15, r15
 9fe:	01 f0       	breq	.+0      	; 0xa00 <_ZN6Stream8parseIntE13LookaheadModec+0xa8>
 a00:	66 27       	eor	r22, r22
 a02:	77 27       	eor	r23, r23
 a04:	cb 01       	movw	r24, r22
 a06:	62 1b       	sub	r22, r18
 a08:	73 0b       	sbc	r23, r19
 a0a:	84 0b       	sbc	r24, r20
 a0c:	95 0b       	sbc	r25, r21
 a0e:	00 c0       	rjmp	.+0      	; 0xa10 <_ZN6Stream8parseIntE13LookaheadModec+0xb8>
 a10:	60 e0       	ldi	r22, 0x00	; 0
 a12:	70 e0       	ldi	r23, 0x00	; 0
 a14:	cb 01       	movw	r24, r22
 a16:	00 c0       	rjmp	.+0      	; 0xa18 <_ZN6Stream8parseIntE13LookaheadModec+0xc0>
 a18:	ca 01       	movw	r24, r20
 a1a:	b9 01       	movw	r22, r18
 a1c:	0f 90       	pop	r0
 a1e:	0f 90       	pop	r0
 a20:	0f 90       	pop	r0
 a22:	0f 90       	pop	r0
 a24:	df 91       	pop	r29
 a26:	cf 91       	pop	r28
 a28:	1f 91       	pop	r17
 a2a:	0f 91       	pop	r16
 a2c:	ff 90       	pop	r15
 a2e:	df 90       	pop	r13
 a30:	cf 90       	pop	r12
 a32:	08 95       	ret

Disassembly of section .text._ZN6Stream10parseFloatE13LookaheadModec:

0000138c <_ZN6Stream10parseFloatE13LookaheadModec>:
    138c:	6f 92       	push	r6
    138e:	7f 92       	push	r7
    1390:	8f 92       	push	r8
    1392:	9f 92       	push	r9
    1394:	af 92       	push	r10
    1396:	bf 92       	push	r11
    1398:	cf 92       	push	r12
    139a:	df 92       	push	r13
    139c:	ef 92       	push	r14
    139e:	ff 92       	push	r15
    13a0:	0f 93       	push	r16
    13a2:	1f 93       	push	r17
    13a4:	cf 93       	push	r28
    13a6:	df 93       	push	r29
    13a8:	ec 01       	movw	r28, r24
    13aa:	04 2f       	mov	r16, r20
    13ac:	41 e0       	ldi	r20, 0x01	; 1
    13ae:	0e 94 00 00 	call	0	; 0x0 <__tmp_reg__>
    13b2:	fc 01       	movw	r30, r24
    13b4:	97 fd       	sbrc	r25, 7
    13b6:	00 c0       	rjmp	.+0      	; 0x13b8 <_ZN6Stream10parseFloatE13LookaheadModec+0x2c>
    13b8:	81 2c       	mov	r8, r1
    13ba:	91 2c       	mov	r9, r1
    13bc:	80 e8       	ldi	r24, 0x80	; 128
    13be:	a8 2e       	mov	r10, r24
    13c0:	8f e3       	ldi	r24, 0x3F	; 63
    13c2:	b8 2e       	mov	r11, r24
    13c4:	c1 2c       	mov	r12, r1
    13c6:	d1 2c       	mov	r13, r1
    13c8:	76 01       	movw	r14, r12
    13ca:	71 2c       	mov	r7, r1
    13cc:	61 2c       	mov	r6, r1
    13ce:	10 e0       	ldi	r17, 0x00	; 0
    13d0:	e0 17       	cp	r30, r16
    13d2:	f1 07       	cpc	r31, r17
    13d4:	01 f0       	breq	.+0      	; 0x13d6 <_ZN6Stream10parseFloatE13LookaheadModec+0x4a>
    13d6:	ed 32       	cpi	r30, 0x2D	; 45
    13d8:	f1 05       	cpc	r31, r1
    13da:	01 f0       	breq	.+0      	; 0x13dc <_ZN6Stream10parseFloatE13LookaheadModec+0x50>
    13dc:	ee 32       	cpi	r30, 0x2E	; 46
    13de:	f1 05       	cpc	r31, r1
    13e0:	01 f0       	breq	.+0      	; 0x13e2 <_ZN6Stream10parseFloatE13LookaheadModec+0x56>
    13e2:	cf 01       	movw	r24, r30
    13e4:	c0 97       	sbiw	r24, 0x30	; 48
    13e6:	0a 97       	sbiw	r24, 0x0a	; 10
    13e8:	00 f4       	brcc	.+0      	; 0x13ea <_ZN6Stream10parseFloatE13LookaheadModec+0x5e>
    13ea:	aa e0       	ldi	r26, 0x0A	; 10
    13ec:	b0 e0       	ldi	r27, 0x00	; 0
    13ee:	a7 01       	movw	r20, r14
    13f0:	96 01       	movw	r18, r12
    13f2:	0e 94 00 00 	call	0	; 0x0 <__tmp_reg__>
    13f6:	6b 01       	movw	r12, r22
    13f8:	7c 01       	movw	r14, r24
    13fa:	cf 01       	movw	r24, r30
    13fc:	aa 27       	eor	r26, r26
    13fe:	97 fd       	sbrc	r25, 7
    1400:	a0 95       	com	r26
    1402:	ba 2f       	mov	r27, r26
    1404:	c8 0e       	add	r12, r24
    1406:	d9 1e       	adc	r13, r25
    1408:	ea 1e       	adc	r14, r26
    140a:	fb 1e       	adc	r15, r27
    140c:	80 e3       	ldi	r24, 0x30	; 48
    140e:	c8 1a       	sub	r12, r24
    1410:	d1 08       	sbc	r13, r1
    1412:	e1 08       	sbc	r14, r1
    1414:	f1 08       	sbc	r15, r1
    1416:	77 20       	and	r7, r7
    1418:	01 f0       	breq	.+0      	; 0x141a <_ZN6Stream10parseFloatE13LookaheadModec+0x8e>
    141a:	2d ec       	ldi	r18, 0xCD	; 205
    141c:	3c ec       	ldi	r19, 0xCC	; 204
    141e:	4c ec       	ldi	r20, 0xCC	; 204
    1420:	5d e3       	ldi	r21, 0x3D	; 61
    1422:	c5 01       	movw	r24, r10
    1424:	b4 01       	movw	r22, r8
    1426:	0e 94 00 00 	call	0	; 0x0 <__tmp_reg__>
    142a:	4b 01       	movw	r8, r22
    142c:	5c 01       	movw	r10, r24
    142e:	00 c0       	rjmp	.+0      	; 0x1430 <_ZN6Stream10parseFloatE13LookaheadModec+0xa4>
    1430:	66 24       	eor	r6, r6
    1432:	63 94       	inc	r6
    1434:	00 c0       	rjmp	.+0      	; 0x1436 <_ZN6Stream10parseFloatE13LookaheadModec+0xaa>
    1436:	77 24       	eor	r7, r7
    1438:	73 94       	inc	r7
    143a:	e8 81       	ld	r30, Y
    143c:	f9 81       	ldd	r31, Y+1	; 0x01
    143e:	06 80       	ldd	r0, Z+6	; 0x06
    1440:	f7 81       	ldd	r31, Z+7	; 0x07
    1442:	e0 2d       	mov	r30, r0
    1444:	ce 01       	movw	r24, r28
    1446:	09 95       	icall
    1448:	ce 01       	movw	r24, r28
    144a:	0e 94 00 00 	call	0	; 0x0 <__tmp_reg__>
    144e:	fc 01       	movw	r30, r24
    1450:	c0 97       	sbiw	r24, 0x30	; 48
    1452:	0a 97       	sbiw	r24, 0x0a	; 10
    1454:	00 f4       	brcc	.+0      	; 0x1456 <_ZN6Stream10parseFloatE13LookaheadModec+0xca>
    1456:	00 c0       	rjmp	.+0      	; 0x1458 <_ZN6Stream10parseFloatE13LookaheadModec+0xcc>
    1458:	ee 32       	cpi	r30, 0x2E	; 46
    145a:	f1 05       	cpc	r31, r1
    145c:	01 f4       	brne	.+0      	; 0x145e <_ZN6Stream10parseFloatE13LookaheadModec+0xd2>
    145e:	77 20       	and	r7, r7
    1460:	01 f4       	brne	.+0      	; 0x1462 <_ZN6Stream10parseFloatE13LookaheadModec+0xd6>
    1462:	00 c0       	rjmp	.+0      	; 0x1464 <_ZN6Stream10parseFloatE13LookaheadModec+0xd8>
    1464:	e0 17       	cp	r30, r16
    1466:	f1 07       	cpc	r31, r17
    1468:	01 f4       	brne	.+0      	; 0x146a <_ZN6Stream10parseFloatE13LookaheadModec+0xde>
    146a:	00 c0       	rjmp	.+0      	; 0x146c <_ZN6Stream10parseFloatE13LookaheadModec+0xe0>
    146c:	66 20       	and	r6, r6
    146e:	01 f0       	breq	.+0      	; 0x1470 <_ZN6Stream10parseFloatE13LookaheadModec+0xe4>
    1470:	f0 94       	com	r15
    1472:	e0 94       	com	r14
    1474:	d0 94       	com	r13
    1476:	c0 94       	com	r12
    1478:	c1 1c       	adc	r12, r1
    147a:	d1 1c       	adc	r13, r1
    147c:	e1 1c       	adc	r14, r1
    147e:	f1 1c       	adc	r15, r1
    1480:	c7 01       	movw	r24, r14
    1482:	b6 01       	movw	r22, r12
    1484:	77 20       	and	r7, r7
    1486:	01 f0       	breq	.+0      	; 0x1488 <_ZN6Stream10parseFloatE13LookaheadModec+0xfc>
    1488:	0e 94 00 00 	call	0	; 0x0 <__tmp_reg__>
    148c:	a5 01       	movw	r20, r10
    148e:	94 01       	movw	r18, r8
    1490:	0e 94 00 00 	call	0	; 0x0 <__tmp_reg__>
    1494:	00 c0       	rjmp	.+0      	; 0x1496 <_ZN6Stream10parseFloatE13LookaheadModec+0x10a>
    1496:	0e 94 00 00 	call	0	; 0x0 <__tmp_reg__>
    149a:	00 c0       	rjmp	.+0      	; 0x149c <_ZN6Stream10parseFloatE13LookaheadModec+0x110>
    149c:	60 e0       	ldi	r22, 0x00	; 0
    149e:	70 e0       	ldi	r23, 0x00	; 0
    14a0:	cb 01       	movw	r24, r22
    14a2:	df 91       	pop	r29
    14a4:	cf 91       	pop	r28
    14a6:	1f 91       	pop	r17
    14a8:	0f 91       	pop	r16
    14aa:	ff 90       	pop	r15
    14ac:	ef 90       	pop	r14
    14ae:	df 90       	pop	r13
    14b0:	cf 90       	pop	r12
    14b2:	bf 90       	pop	r11
    14b4:	af 90       	pop	r10
    14b6:	9f 90       	pop	r9
    14b8:	8f 90       	pop	r8
    14ba:	7f 90       	pop	r7
    14bc:	6f 90       	pop	r6
    14be:	08 95       	ret

Disassembly of section .text._ZN6Stream9readBytesEPcj:

0000284c <_ZN6Stream9readBytesEPcj>:
    284c:	cf 92       	push	r12
    284e:	df 92       	push	r13
    2850:	ef 92       	push	r14
    2852:	ff 92       	push	r15
    2854:	0f 93       	push	r16
    2856:	1f 93       	push	r17
    2858:	cf 93       	push	r28
    285a:	df 93       	push	r29
    285c:	7c 01       	movw	r14, r24
    285e:	6a 01       	movw	r12, r20
    2860:	eb 01       	movw	r28, r22
    2862:	00 e0       	ldi	r16, 0x00	; 0
    2864:	10 e0       	ldi	r17, 0x00	; 0
    2866:	0c 15       	cp	r16, r12
    2868:	1d 05       	cpc	r17, r13
    286a:	01 f0       	breq	.+0      	; 0x286c <_ZN6Stream9readBytesEPcj+0x20>
    286c:	c7 01       	movw	r24, r14
    286e:	0e 94 00 00 	call	0	; 0x0 <__tmp_reg__>
    2872:	97 fd       	sbrc	r25, 7
    2874:	00 c0       	rjmp	.+0      	; 0x2876 <_ZN6Stream9readBytesEPcj+0x2a>
    2876:	89 93       	st	Y+, r24
    2878:	0f 5f       	subi	r16, 0xFF	; 255
    287a:	1f 4f       	sbci	r17, 0xFF	; 255
    287c:	00 c0       	rjmp	.+0      	; 0x287e <_ZN6Stream9readBytesEPcj+0x32>
    287e:	c8 01       	movw	r24, r16
    2880:	df 91       	pop	r29
    2882:	cf 91       	pop	r28
    2884:	1f 91       	pop	r17
    2886:	0f 91       	pop	r16
    2888:	ff 90       	pop	r15
    288a:	ef 90       	pop	r14
    288c:	df 90       	pop	r13
    288e:	cf 90       	pop	r12
    2890:	08 95       	ret

Disassembly of section .text._ZN6Stream14readBytesUntilEcPcj:

000050de <_ZN6Stream14readBytesUntilEcPcj>:
    50de:	af 92       	push	r10
    50e0:	bf 92       	push	r11
    50e2:	cf 92       	push	r12
    50e4:	df 92       	push	r13
    50e6:	ef 92       	push	r14
    50e8:	ff 92       	push	r15
    50ea:	0f 93       	push	r16
    50ec:	1f 93       	push	r17
    50ee:	cf 93       	push	r28
    50f0:	df 93       	push	r29
    50f2:	6c 01       	movw	r12, r24
    50f4:	79 01       	movw	r14, r18
    50f6:	21 15       	cp	r18, r1
    50f8:	31 05       	cpc	r19, r1
    50fa:	01 f0       	breq	.+0      	; 0x50fc <_ZN6Stream14readBytesUntilEcPcj+0x1e>
    50fc:	8a 01       	movw	r16, r20
    50fe:	c0 e0       	ldi	r28, 0x00	; 0
    5100:	d0 e0       	ldi	r29, 0x00	; 0
    5102:	a6 2e       	mov	r10, r22
    5104:	b1 2c       	mov	r11, r1
    5106:	c6 01       	movw	r24, r12
    5108:	0e 94 00 00 	call	0	; 0x0 <__tmp_reg__>
    510c:	97 fd       	sbrc	r25, 7
    510e:	00 c0       	rjmp	.+0      	; 0x5110 <_ZN6Stream14readBytesUntilEcPcj+0x32>
    5110:	8a 15       	cp	r24, r10
    5112:	9b 05       	cpc	r25, r11
    5114:	01 f0       	breq	.+0      	; 0x5116 <_ZN6Stream14readBytesUntilEcPcj+0x38>
    5116:	f8 01       	movw	r30, r16
    5118:	81 93       	st	Z+, r24
    511a:	8f 01       	movw	r16, r30
    511c:	21 96       	adiw	r28, 0x01	; 1
    511e:	ce 15       	cp	r28, r14
    5120:	df 05       	cpc	r29, r15
    5122:	01 f4       	brne	.+0      	; 0x5124 <_ZN6Stream14readBytesUntilEcPcj+0x46>
    5124:	00 c0       	rjmp	.+0      	; 0x5126 <_ZN6Stream14readBytesUntilEcPcj+0x48>
    5126:	80 e0       	ldi	r24, 0x00	; 0
    5128:	90 e0       	ldi	r25, 0x00	; 0
    512a:	00 c0       	rjmp	.+0      	; 0x512c <_ZN6Stream14readBytesUntilEcPcj+0x4e>
    512c:	ce 01       	movw	r24, r28
    512e:	df 91       	pop	r29
    5130:	cf 91       	pop	r28
    5132:	1f 91       	pop	r17
    5134:	0f 91       	pop	r16
    5136:	ff 90       	pop	r15
    5138:	ef 90       	pop	r14
    513a:	df 90       	pop	r13
    513c:	cf 90       	pop	r12
    513e:	bf 90       	pop	r11
    5140:	af 90       	pop	r10
    5142:	08 95       	ret

Disassembly of section .text._ZN6Stream10readStringEv:

00014445 <_ZN6Stream10readStringEv>:
   14445:	0f 93       	push	r16
   14447:	1f 93       	push	r17
   14449:	cf 93       	push	r28
   1444b:	df 93       	push	r29
   1444d:	ec 01       	movw	r28, r24
   1444f:	8b 01       	movw	r16, r22
   14451:	60 e0       	ldi	r22, 0x00	; 0
   14453:	70 e0       	ldi	r23, 0x00	; 0
   14455:	0e 94 00 00 	call	0	; 0x0 <__tmp_reg__>
   14459:	c8 01       	movw	r24, r16
   1445b:	0e 94 00 00 	call	0	; 0x0 <__tmp_reg__>
   1445f:	97 fd       	sbrc	r25, 7
   14461:	00 c0       	rjmp	.+0      	; 0x14463 <_ZN6Stream10readStringEv+0x1e>
   14463:	68 2f       	mov	r22, r24
   14465:	ce 01       	movw	r24, r28
   14467:	0e 94 00 00 	call	0	; 0x0 <__tmp_reg__>
   1446b:	00 c0       	rjmp	.+0      	; 0x1446d <_ZN6Stream10readStringEv+0x28>
   1446d:	ce 01       	movw	r24, r28
   1446f:	df 91       	pop	r29
   14471:	cf 91       	pop	r28
   14473:	1f 91       	pop	r17
   14475:	0f 91       	pop	r16
   14477:	08 95       	ret

Disassembly of section .text._ZN6Stream15readStringUntilEc:

000288be <_ZN6Stream15readStringUntilEc>:
   288be:	ef 92       	push	r14
   288c0:	ff 92       	push	r15
   288c2:	0f 93       	push	r16
   288c4:	1f 93       	push	r17
   288c6:	cf 93       	push	r28
   288c8:	df 93       	push	r29
   288ca:	ec 01       	movw	r28, r24
   288cc:	8b 01       	movw	r16, r22
   288ce:	e4 2e       	mov	r14, r20
   288d0:	60 e0       	ldi	r22, 0x00	; 0
   288d2:	70 e0       	ldi	r23, 0x00	; 0
   288d4:	0e 94 00 00 	call	0	; 0x0 <__tmp_reg__>
   288d8:	c8 01       	movw	r24, r16
   288da:	0e 94 00 00 	call	0	; 0x0 <__tmp_reg__>
   288de:	f1 2c       	mov	r15, r1
   288e0:	97 fd       	sbrc	r25, 7
   288e2:	00 c0       	rjmp	.+0      	; 0x288e4 <_ZN6Stream15readStringUntilEc+0x26>
   288e4:	8e 15       	cp	r24, r14
   288e6:	9f 05       	cpc	r25, r15
   288e8:	01 f0       	breq	.+0      	; 0x288ea <_ZN6Stream15readStringUntilEc+0x2c>
   288ea:	68 2f       	mov	r22, r24
   288ec:	ce 01       	movw	r24, r28
   288ee:	0e 94 00 00 	call	0	; 0x0 <__tmp_reg__>
   288f2:	c8 01       	movw	r24, r16
   288f4:	0e 94 00 00 	call	0	; 0x0 <__tmp_reg__>
   288f8:	00 c0       	rjmp	.+0      	; 0x288fa <_ZN6Stream15readStringUntilEc+0x3c>
   288fa:	ce 01       	movw	r24, r28
   288fc:	df 91       	pop	r29
   288fe:	cf 91       	pop	r28
   28900:	1f 91       	pop	r17
   28902:	0f 91       	pop	r16
   28904:	ff 90       	pop	r15
   28906:	ef 90       	pop	r14
   28908:	08 95       	ret

Disassembly of section .text._ZN6Stream9findMultiEPNS_11MultiTargetEi:

000511c8 <_ZN6Stream9findMultiEPNS_11MultiTargetEi>:
   511c8:	4f 92       	push	r4
   511ca:	5f 92       	push	r5
   511cc:	6f 92       	push	r6
   511ce:	7f 92       	push	r7
   511d0:	8f 92       	push	r8
   511d2:	9f 92       	push	r9
   511d4:	af 92       	push	r10
   511d6:	bf 92       	push	r11
   511d8:	cf 92       	push	r12
   511da:	df 92       	push	r13
   511dc:	ef 92       	push	r14
   511de:	ff 92       	push	r15
   511e0:	0f 93       	push	r16
   511e2:	1f 93       	push	r17
   511e4:	cf 93       	push	r28
   511e6:	df 93       	push	r29
   511e8:	4c 01       	movw	r8, r24
   511ea:	eb 01       	movw	r28, r22
   511ec:	86 e0       	ldi	r24, 0x06	; 6
   511ee:	84 9f       	mul	r24, r20
   511f0:	80 01       	movw	r16, r0
   511f2:	85 9f       	mul	r24, r21
   511f4:	10 0d       	add	r17, r0
   511f6:	11 24       	eor	r1, r1
   511f8:	06 0f       	add	r16, r22
   511fa:	17 1f       	adc	r17, r23
   511fc:	fb 01       	movw	r30, r22
   511fe:	e0 17       	cp	r30, r16
   51200:	f1 07       	cpc	r31, r17
   51202:	00 f4       	brcc	.+0      	; 0x51204 <_ZN6Stream9findMultiEPNS_11MultiTargetEi+0x3c>
   51204:	82 81       	ldd	r24, Z+2	; 0x02
   51206:	93 81       	ldd	r25, Z+3	; 0x03
   51208:	89 2b       	or	r24, r25
   5120a:	01 f0       	breq	.+0      	; 0x5120c <_ZN6Stream9findMultiEPNS_11MultiTargetEi+0x44>
   5120c:	36 96       	adiw	r30, 0x06	; 6
   5120e:	00 c0       	rjmp	.+0      	; 0x51210 <_ZN6Stream9findMultiEPNS_11MultiTargetEi+0x48>
   51210:	40 81       	ld	r20, Z
   51212:	51 81       	ldd	r21, Z+1	; 0x01
   51214:	64 81       	ldd	r22, Z+4	; 0x04
   51216:	75 81       	ldd	r23, Z+5	; 0x05
   51218:	da 01       	movw	r26, r20
   5121a:	a6 0f       	add	r26, r22
   5121c:	b7 1f       	adc	r27, r23
   5121e:	2c 91       	ld	r18, X
   51220:	30 e0       	ldi	r19, 0x00	; 0
   51222:	82 17       	cp	r24, r18
   51224:	93 07       	cpc	r25, r19
   51226:	01 f4       	brne	.+0      	; 0x51228 <_ZN6Stream9findMultiEPNS_11MultiTargetEi+0x60>
   51228:	6f 5f       	subi	r22, 0xFF	; 255
   5122a:	7f 4f       	sbci	r23, 0xFF	; 255
   5122c:	75 83       	std	Z+5, r23	; 0x05
   5122e:	64 83       	std	Z+4, r22	; 0x04
   51230:	22 81       	ldd	r18, Z+2	; 0x02
   51232:	33 81       	ldd	r19, Z+3	; 0x03
   51234:	62 17       	cp	r22, r18
   51236:	73 07       	cpc	r23, r19
   51238:	01 f0       	breq	.+0      	; 0x5123a <_ZN6Stream9findMultiEPNS_11MultiTargetEi+0x72>
   5123a:	36 96       	adiw	r30, 0x06	; 6
   5123c:	e0 17       	cp	r30, r16
   5123e:	f1 07       	cpc	r31, r17
   51240:	00 f0       	brcs	.+0      	; 0x51242 <_ZN6Stream9findMultiEPNS_11MultiTargetEi+0x7a>
   51242:	c4 01       	movw	r24, r8
   51244:	0e 94 00 00 	call	0	; 0x0 <__tmp_reg__>
   51248:	97 fd       	sbrc	r25, 7
   5124a:	00 c0       	rjmp	.+0      	; 0x5124c <_ZN6Stream9findMultiEPNS_11MultiTargetEi+0x84>
   5124c:	fe 01       	movw	r30, r28
   5124e:	00 c0       	rjmp	.+0      	; 0x51250 <_ZN6Stream9findMultiEPNS_11MultiTargetEi+0x88>
   51250:	ec 1b       	sub	r30, r28
   51252:	fd 0b       	sbc	r31, r29
   51254:	f5 95       	asr	r31
   51256:	e7 95       	ror	r30
   51258:	2b ea       	ldi	r18, 0xAB	; 171
   5125a:	3a ea       	ldi	r19, 0xAA	; 170
   5125c:	e2 9f       	mul	r30, r18
   5125e:	c0 01       	movw	r24, r0
   51260:	e3 9f       	mul	r30, r19
   51262:	90 0d       	add	r25, r0
   51264:	f2 9f       	mul	r31, r18
   51266:	90 0d       	add	r25, r0
   51268:	11 24       	eor	r1, r1
   5126a:	00 c0       	rjmp	.+0      	; 0x5126c <_ZN6Stream9findMultiEPNS_11MultiTargetEi+0xa4>
   5126c:	61 15       	cp	r22, r1
   5126e:	71 05       	cpc	r23, r1
   51270:	01 f0       	breq	.+0      	; 0x51272 <_ZN6Stream9findMultiEPNS_11MultiTargetEi+0xaa>
   51272:	a4 80       	ldd	r10, Z+4	; 0x04
   51274:	b5 80       	ldd	r11, Z+5	; 0x05
   51276:	95 01       	movw	r18, r10
   51278:	21 50       	subi	r18, 0x01	; 1
   5127a:	31 09       	sbc	r19, r1
   5127c:	35 83       	std	Z+5, r19	; 0x05
   5127e:	24 83       	std	Z+4, r18	; 0x04
   51280:	da 01       	movw	r26, r20
   51282:	a2 0f       	add	r26, r18
   51284:	b3 1f       	adc	r27, r19
   51286:	ac 91       	ld	r26, X
   51288:	b0 e0       	ldi	r27, 0x00	; 0
   5128a:	8a 17       	cp	r24, r26
   5128c:	9b 07       	cpc	r25, r27
   5128e:	01 f4       	brne	.+0      	; 0x51290 <_ZN6Stream9findMultiEPNS_11MultiTargetEi+0xc8>
   51290:	21 15       	cp	r18, r1
   51292:	31 05       	cpc	r19, r1
   51294:	01 f0       	breq	.+0      	; 0x51296 <_ZN6Stream9findMultiEPNS_11MultiTargetEi+0xce>
   51296:	6a 01       	movw	r12, r20
   51298:	7b 01       	movw	r14, r22
   5129a:	e2 1a       	sub	r14, r18
   5129c:	f3 0a       	sbc	r15, r19
   5129e:	e4 0e       	add	r14, r20
   512a0:	f5 1e       	adc	r15, r21
   512a2:	41 2c       	mov	r4, r1
   512a4:	51 2c       	mov	r5, r1
   512a6:	d6 01       	movw	r26, r12
   512a8:	6d 90       	ld	r6, X+
   512aa:	6d 01       	movw	r12, r26
   512ac:	d7 01       	movw	r26, r14
   512ae:	7d 90       	ld	r7, X+
   512b0:	7d 01       	movw	r14, r26
   512b2:	67 10       	cpse	r6, r7
   512b4:	00 c0       	rjmp	.+0      	; 0x512b6 <_ZN6Stream9findMultiEPNS_11MultiTargetEi+0xee>
   512b6:	bf ef       	ldi	r27, 0xFF	; 255
   512b8:	4b 1a       	sub	r4, r27
   512ba:	5b 0a       	sbc	r5, r27
   512bc:	42 16       	cp	r4, r18
   512be:	53 06       	cpc	r5, r19
   512c0:	00 f0       	brcs	.+0      	; 0x512c2 <_ZN6Stream9findMultiEPNS_11MultiTargetEi+0xfa>
   512c2:	42 16       	cp	r4, r18
   512c4:	53 06       	cpc	r5, r19
   512c6:	01 f4       	brne	.+0      	; 0x512c8 <_ZN6Stream9findMultiEPNS_11MultiTargetEi+0x100>
   512c8:	b5 82       	std	Z+5, r11	; 0x05
   512ca:	a4 82       	std	Z+4, r10	; 0x04
   512cc:	00 c0       	rjmp	.+0      	; 0x512ce <_ZN6Stream9findMultiEPNS_11MultiTargetEi+0x106>
   512ce:	23 2b       	or	r18, r19
   512d0:	01 f4       	brne	.+0      	; 0x512d2 <_ZN6Stream9findMultiEPNS_11MultiTargetEi+0x10a>
   512d2:	00 c0       	rjmp	.+0      	; 0x512d4 <_ZN6Stream9findMultiEPNS_11MultiTargetEi+0x10c>
   512d4:	8f ef       	ldi	r24, 0xFF	; 255
   512d6:	9f ef       	ldi	r25, 0xFF	; 255
   512d8:	df 91       	pop	r29
   512da:	cf 91       	pop	r28
   512dc:	1f 91       	pop	r17
   512de:	0f 91       	pop	r16
   512e0:	ff 90       	pop	r15
   512e2:	ef 90       	pop	r14
   512e4:	df 90       	pop	r13
   512e6:	cf 90       	pop	r12
   512e8:	bf 90       	pop	r11
   512ea:	af 90       	pop	r10
   512ec:	9f 90       	pop	r9
   512ee:	8f 90       	pop	r8
   512f0:	7f 90       	pop	r7
   512f2:	6f 90       	pop	r6
   512f4:	5f 90       	pop	r5
   512f6:	4f 90       	pop	r4
   512f8:	08 95       	ret

Disassembly of section .text._ZN6Stream9findUntilEPcjS0_j.part.0:

000a24c2 <_ZN6Stream9findUntilEPcjS0_j.part.0>:
   a24c2:	cf 93       	push	r28
   a24c4:	df 93       	push	r29
   a24c6:	00 d0       	rcall	.+0      	; 0xa24c8 <_ZN6Stream9findUntilEPcjS0_j.part.0+0x6>
   a24c8:	00 d0       	rcall	.+0      	; 0xa24ca <_ZN6Stream9findUntilEPcjS0_j.part.0+0x8>
   a24ca:	00 d0       	rcall	.+0      	; 0xa24cc <_ZN6Stream9findUntilEPcjS0_j.part.0+0xa>
   a24cc:	cd b7       	in	r28, 0x3d	; 61
   a24ce:	de b7       	in	r29, 0x3e	; 62
   a24d0:	fe 01       	movw	r30, r28
   a24d2:	31 96       	adiw	r30, 0x01	; 1
   a24d4:	26 e0       	ldi	r18, 0x06	; 6
   a24d6:	df 01       	movw	r26, r30
   a24d8:	1d 92       	st	X+, r1
   a24da:	2a 95       	dec	r18
   a24dc:	01 f4       	brne	.+0      	; 0xa24de <_ZN6Stream9findUntilEPcjS0_j.part.0+0x1c>
   a24de:	7a 83       	std	Y+2, r23	; 0x02
   a24e0:	69 83       	std	Y+1, r22	; 0x01
   a24e2:	5c 83       	std	Y+4, r21	; 0x04
   a24e4:	4b 83       	std	Y+3, r20	; 0x03
   a24e6:	41 e0       	ldi	r20, 0x01	; 1
   a24e8:	50 e0       	ldi	r21, 0x00	; 0
   a24ea:	bf 01       	movw	r22, r30
   a24ec:	0e 94 00 00 	call	0	; 0x0 <__tmp_reg__>
   a24f0:	21 e0       	ldi	r18, 0x01	; 1
   a24f2:	89 2b       	or	r24, r25
   a24f4:	01 f0       	breq	.+0      	; 0xa24f6 <_ZN6Stream9findUntilEPcjS0_j.part.0+0x34>
   a24f6:	20 e0       	ldi	r18, 0x00	; 0
   a24f8:	82 2f       	mov	r24, r18
   a24fa:	26 96       	adiw	r28, 0x06	; 6
   a24fc:	0f b6       	in	r0, 0x3f	; 63
   a24fe:	f8 94       	cli
   a2500:	de bf       	out	0x3e, r29	; 62
   a2502:	0f be       	out	0x3f, r0	; 63
   a2504:	cd bf       	out	0x3d, r28	; 61
   a2506:	df 91       	pop	r29
   a2508:	cf 91       	pop	r28
   a250a:	08 95       	ret

Disassembly of section .text._ZN6Stream9findUntilEPcjS0_j:

001449ce <_ZN6Stream9findUntilEPcjS0_j>:
  1449ce:	ff 92       	push	r15
  1449d0:	0f 93       	push	r16
  1449d2:	1f 93       	push	r17
  1449d4:	cf 93       	push	r28
  1449d6:	df 93       	push	r29
  1449d8:	cd b7       	in	r28, 0x3d	; 61
  1449da:	de b7       	in	r29, 0x3e	; 62
  1449dc:	2c 97       	sbiw	r28, 0x0c	; 12
  1449de:	0f b6       	in	r0, 0x3f	; 63
  1449e0:	f8 94       	cli
  1449e2:	de bf       	out	0x3e, r29	; 62
  1449e4:	0f be       	out	0x3f, r0	; 63
  1449e6:	cd bf       	out	0x3d, r28	; 61
  1449e8:	21 15       	cp	r18, r1
  1449ea:	31 05       	cpc	r19, r1
  1449ec:	01 f4       	brne	.+0      	; 0x1449ee <_ZN6Stream9findUntilEPcjS0_j+0x20>
  1449ee:	0e 94 00 00 	call	0	; 0x0 <__tmp_reg__>
  1449f2:	28 2f       	mov	r18, r24
  1449f4:	00 c0       	rjmp	.+0      	; 0x1449f6 <_ZN6Stream9findUntilEPcjS0_j+0x28>
  1449f6:	fe 01       	movw	r30, r28
  1449f8:	31 96       	adiw	r30, 0x01	; 1
  1449fa:	ac e0       	ldi	r26, 0x0C	; 12
  1449fc:	fa 2e       	mov	r15, r26
  1449fe:	df 01       	movw	r26, r30
  144a00:	1d 92       	st	X+, r1
  144a02:	fa 94       	dec	r15
  144a04:	01 f4       	brne	.+0      	; 0x144a06 <_ZN6Stream9findUntilEPcjS0_j+0x38>
  144a06:	7a 83       	std	Y+2, r23	; 0x02
  144a08:	69 83       	std	Y+1, r22	; 0x01
  144a0a:	5c 83       	std	Y+4, r21	; 0x04
  144a0c:	4b 83       	std	Y+3, r20	; 0x03
  144a0e:	38 87       	std	Y+8, r19	; 0x08
  144a10:	2f 83       	std	Y+7, r18	; 0x07
  144a12:	1a 87       	std	Y+10, r17	; 0x0a
  144a14:	09 87       	std	Y+9, r16	; 0x09
  144a16:	42 e0       	ldi	r20, 0x02	; 2
  144a18:	50 e0       	ldi	r21, 0x00	; 0
  144a1a:	bf 01       	movw	r22, r30
  144a1c:	0e 94 00 00 	call	0	; 0x0 <__tmp_reg__>
  144a20:	21 e0       	ldi	r18, 0x01	; 1
  144a22:	89 2b       	or	r24, r25
  144a24:	01 f0       	breq	.+0      	; 0x144a26 <_ZN6Stream9findUntilEPcjS0_j+0x58>
  144a26:	20 e0       	ldi	r18, 0x00	; 0
  144a28:	82 2f       	mov	r24, r18
  144a2a:	2c 96       	adiw	r28, 0x0c	; 12
  144a2c:	0f b6       	in	r0, 0x3f	; 63
  144a2e:	f8 94       	cli
  144a30:	de bf       	out	0x3e, r29	; 62
  144a32:	0f be       	out	0x3f, r0	; 63
  144a34:	cd bf       	out	0x3d, r28	; 61
  144a36:	df 91       	pop	r29
  144a38:	cf 91       	pop	r28
  144a3a:	1f 91       	pop	r17
  144a3c:	0f 91       	pop	r16
  144a3e:	ff 90       	pop	r15
  144a40:	08 95       	ret

Disassembly of section .text._ZN6Stream9findUntilEPcS0_:

00289410 <_ZN6Stream9findUntilEPcS0_>:
  289410:	0f 93       	push	r16
  289412:	1f 93       	push	r17
  289414:	9a 01       	movw	r18, r20
  289416:	fa 01       	movw	r30, r20
  289418:	01 90       	ld	r0, Z+
  28941a:	00 20       	and	r0, r0
  28941c:	01 f4       	brne	.+0      	; 0x28941e <_ZN6Stream9findUntilEPcS0_+0xe>
  28941e:	8f 01       	movw	r16, r30
  289420:	01 50       	subi	r16, 0x01	; 1
  289422:	11 09       	sbc	r17, r1
  289424:	04 1b       	sub	r16, r20
  289426:	15 0b       	sbc	r17, r21
  289428:	fb 01       	movw	r30, r22
  28942a:	01 90       	ld	r0, Z+
  28942c:	00 20       	and	r0, r0
  28942e:	01 f4       	brne	.+0      	; 0x289430 <_ZN6Stream9findUntilEPcS0_+0x20>
  289430:	af 01       	movw	r20, r30
  289432:	41 50       	subi	r20, 0x01	; 1
  289434:	51 09       	sbc	r21, r1
  289436:	46 1b       	sub	r20, r22
  289438:	57 0b       	sbc	r21, r23
  28943a:	0e 94 00 00 	call	0	; 0x0 <__tmp_reg__>
  28943e:	1f 91       	pop	r17
  289440:	0f 91       	pop	r16
  289442:	08 95       	ret

Disassembly of section .text._ZN6Stream4findEPcj:

00512854 <_ZN6Stream4findEPcj>:
  512854:	0c 94 00 00 	jmp	0	; 0x0 <__tmp_reg__>

Disassembly of section .text._ZN6Stream4findEPc:

00a250ac <_ZN6Stream4findEPc>:
  a250ac:	fb 01       	movw	r30, r22
  a250ae:	01 90       	ld	r0, Z+
  a250b0:	00 20       	and	r0, r0
  a250b2:	01 f4       	brne	.+0      	; 0xa250b4 <_ZN6Stream4findEPc+0x8>
  a250b4:	af 01       	movw	r20, r30
  a250b6:	41 50       	subi	r20, 0x01	; 1
  a250b8:	51 09       	sbc	r21, r1
  a250ba:	46 1b       	sub	r20, r22
  a250bc:	57 0b       	sbc	r21, r23
  a250be:	0c 94 00 00 	jmp	0	; 0x0 <__tmp_reg__>

Tone.o:     file format elf32-avr

Sections:
Idx Name          Size      VMA       LMA       File off  Algn
  0 .text         00000000  00000000  00000000  00000034  2**0
                  CONTENTS, ALLOC, LOAD, READONLY, CODE
  1 .data         00000010  00000000  00000000  00000034  2**0
                  CONTENTS, ALLOC, LOAD, DATA
  2 .bss          00000000  00000000  00000000  00000044  2**0
                  ALLOC
  3 .stab         00000d98  00000000  00000000  00000044  2**2
                  CONTENTS, RELOC, READONLY, DEBUGGING
  4 .stabstr      000013f7  00000000  00000000  00000ddc  2**0
                  CONTENTS, READONLY, DEBUGGING
  5 .text._Z4tonehjm 0000041e  00000000  00000000  000021d3  2**0
                  CONTENTS, ALLOC, LOAD, RELOC, READONLY, CODE
  6 .text._Z12disableTimerh 00000040  00000000  00000000  000025f1  2**0
                  CONTENTS, ALLOC, LOAD, RELOC, READONLY, CODE
  7 .text._Z6noToneh 0000002a  00000000  00000000  00002631  2**0
                  CONTENTS, ALLOC, LOAD, RELOC, READONLY, CODE
  8 .text.__vector_7 000000b8  00000000  00000000  0000265b  2**0
                  CONTENTS, ALLOC, LOAD, RELOC, READONLY, CODE
  9 .progmem.data._ZL21tone_pin_to_timer_PGM 00000001  00000000  00000000  00002713  2**0
                  CONTENTS, ALLOC, LOAD, READONLY, DATA
 10 .data._ZL9tone_pins 00000001  00000000  00000000  00002714  2**0
                  CONTENTS, ALLOC, LOAD, DATA
 11 .bss.timer2_pin_mask 00000001  00000000  00000000  00002715  2**0
                  ALLOC
 12 .bss.timer2_pin_port 00000002  00000000  00000000  00002715  2**0
                  ALLOC
 13 .bss.timer2_toggle_count 00000004  00000000  00000000  00002715  2**0
                  ALLOC
 14 .bss.timer1_pin_mask 00000001  00000000  00000000  00002715  2**0
                  ALLOC
 15 .bss.timer1_pin_port 00000002  00000000  00000000  00002715  2**0
                  ALLOC
 16 .bss.timer1_toggle_count 00000004  00000000  00000000  00002715  2**0
                  ALLOC
 17 .bss.timer0_pin_mask 00000001  00000000  00000000  00002715  2**0
                  ALLOC
 18 .bss.timer0_pin_port 00000002  00000000  00000000  00002715  2**0
                  ALLOC
 19 .bss.timer0_toggle_count 00000004  00000000  00000000  00002715  2**0
                  ALLOC
 20 .comment      00000012  00000000  00000000  00002715  2**0
                  CONTENTS, READONLY

Disassembly of section .text._Z4tonehjm:

00000000 <_Z4tonehjm>:
#endif


#ifdef USE_TIMER2
ISR(TIMER2_COMPA_vect)
{
   0:	3f 92       	push	r3
  12:	4f 92       	push	r12
  14:	5f 92       	push	r13
  16:	6f 92       	push	r14
  18:	7f 92       	push	r15
  1a:	8f 92       	push	r16
  1c:	9f 92       	push	r17
  1e:	af 92       	push	r28
  20:	bf 92       	push	r29

  if (timer2_toggle_count != 0)
  22:	cf 92       	rcall	.+0      	; 0x24 <_Z4tonehjm+0x14>
  24:	df 92       	rcall	.+0      	; 0x26 <_Z4tonehjm+0x16>
  26:	ef 92       	in	r28, 0x3d	; 61
  28:	ff 92       	in	r29, 0x3e	; 62
  2a:	0f 93       	movw	r16, r22
  2c:	1f 93       	movw	r4, r18
  2e:	cf 93       	movw	r6, r20
  30:	df 93 00 d0 	lds	r25, 0x0000
  34:	00 d0       	cp	r25, r24
  36:	cd b7       	breq	.+0      	; 0x38 <_Z4tonehjm+0x28>
  38:	de b7       	cpi	r25, 0xFF	; 255
  {
    // toggle the pin
    *timer2_pin_port ^= timer2_pin_mask;
  3a:	8b 01       	breq	.+0      	; 0x3c <_Z4tonehjm+0x2c>
  3c:	29 01       	rjmp	.+0      	; 0x3e <_Z4tonehjm+0x2e>
  3e:	3a 01       	rjmp	.+0      	; 0x40 <_Z4tonehjm+0x30>
  40:	90 91       	ldi	r30, 0x00	; 0
  42:	00 00       	ldi	r31, 0x00	; 0
  44:	98 17       	lpm	r3, Z
  46:	01 f0       	rjmp	.+0      	; 0x48 <_Z4tonehjm+0x38>
  48:	9f 3f 01 f0 	sts	0x0000, r24

    if (timer2_toggle_count > 0)
  4c:	00 c0       	ldi	r30, 0x00	; 0
  4e:	00 c0       	ldi	r31, 0x00	; 0
  50:	e0 e0       	lpm	r30, Z
  52:	f0 e0       	cpi	r30, 0xFF	; 255
  54:	34 90       	brne	.+0      	; 0x56 <_Z4tonehjm+0x46>
  56:	00 c0       	rjmp	.+0      	; 0x58 <_Z4tonehjm+0x48>
  58:	80 93       	cpi	r30, 0x01	; 1
  5a:	00 00       	breq	.+0      	; 0x5c <_Z4tonehjm+0x4c>
  5c:	e0 e0       	cpi	r30, 0x02	; 2
  5e:	f0 e0       	brne	.+0      	; 0x60 <_Z4tonehjm+0x50>
  60:	e4 91       	rjmp	.+0      	; 0x62 <_Z4tonehjm+0x52>
  62:	ef 3f       	cpse	r30, r1
  64:	01 f4       	rjmp	.+0      	; 0x66 <_Z4tonehjm+0x56>
      timer2_toggle_count--;
  66:	00 c0       	out	0x24, r1	; 36
  68:	e1 30       	out	0x25, r1	; 37
  6a:	01 f0       	in	r25, 0x24	; 36
  6c:	e2 30       	ori	r25, 0x02	; 2
  6e:	01 f4       	out	0x24, r25	; 36
  70:	00 c0       	in	r25, 0x25	; 37
  72:	e1 11       	ori	r25, 0x01	; 1
  74:	00 c0       	out	0x25, r25	; 37
  76:	14 bc       	mov	r18, r24
  78:	15 bc       	ldi	r19, 0x00	; 0
  7a:	94 b5       	movw	r30, r18
  7c:	92 60       	subi	r30, 0x00	; 0
  7e:	94 bd       	sbci	r31, 0x00	; 0
  80:	95 b5       	lpm	r30, Z
  82:	91 60       	ldi	r31, 0x00	; 0
  84:	95 bd       	add	r30, r30
  86:	28 2f       	adc	r31, r31
  88:	30 e0       	subi	r30, 0x00	; 0
  8a:	f9 01       	sbci	r31, 0x00	; 0
  8c:	e0 50       	lpm	r20, Z+
  else
  {
    // need to call noTone() so that the tone_pins[] entry is reset, so the
    // timer gets initialized next time we call tone().
    // XXX: this assumes timer 2 is always the first one used.
    noTone(tone_pins[0]);
  8e:	f0 40       	lpm	r21, Z
  90:	e4 91 f0 e0 	sts	0x0000, r21
  94:	ee 0f ff 1f 	sts	0x0000, r20
//    disableTimer(2);
//    *timer2_pin_port &= ~(timer2_pin_mask);  // keep pin low after stop
  }
}
  98:	e0 50       	movw	r30, r18
  9a:	f0 40       	subi	r30, 0x00	; 0
  9c:	45 91       	sbci	r31, 0x00	; 0
  9e:	54 91       	lpm	r18, Z
  a0:	50 93 00 00 	sts	0x0000, r18
  a4:	40 93       	mov	r3, r1
  a6:	00 00       	rjmp	.+0      	; 0xa8 <_Z4tonehjm+0x98>
  a8:	f9 01 e0 50 	sts	0x0080, r1
  ac:	f0 40 24 91 	sts	0x0081, r1
  b0:	20 93 00 00 	lds	r25, 0x0081
  b4:	31 2c       	ori	r25, 0x08	; 8
  b6:	00 c0 10 92 	sts	0x0081, r25
  ba:	80 00 10 92 	lds	r25, 0x0081
  be:	81 00       	ori	r25, 0x01	; 1
  c0:	90 91 81 00 	sts	0x0081, r25
  c4:	98 60       	mov	r18, r24
  c6:	90 93       	ldi	r19, 0x00	; 0
  c8:	81 00       	movw	r30, r18
  ca:	90 91       	subi	r30, 0x00	; 0
  cc:	81 00       	sbci	r31, 0x00	; 0
  ce:	91 60       	lpm	r30, Z
  d0:	90 93       	ldi	r31, 0x00	; 0
  d2:	81 00       	add	r30, r30
  d4:	28 2f       	adc	r31, r31
  d6:	30 e0       	subi	r30, 0x00	; 0
  d8:	f9 01       	sbci	r31, 0x00	; 0
  da:	e0 50       	lpm	r20, Z+
  dc:	f0 40       	lpm	r21, Z
  de:	e4 91 f0 e0 	sts	0x0000, r21
  e2:	ee 0f ff 1f 	sts	0x0000, r20
  e6:	e0 50       	movw	r30, r18
  e8:	f0 40       	subi	r30, 0x00	; 0
  ea:	45 91       	sbci	r31, 0x00	; 0
  ec:	54 91       	lpm	r18, Z
  ee:	50 93 00 00 	sts	0x0000, r18
  f2:	40 93       	eor	r3, r3
  f4:	00 00       	inc	r3
  f6:	f9 01       	rjmp	.+0      	; 0xf8 <_Z4tonehjm+0xe8>
  f8:	e0 50 f0 40 	sts	0x00B0, r1
  fc:	24 91 20 93 	sts	0x00B1, r1
 100:	00 00 33 24 	lds	r25, 0x00B0
 104:	33 94       	ori	r25, 0x02	; 2
 106:	00 c0 10 92 	sts	0x00B0, r25
 10a:	b0 00 10 92 	lds	r25, 0x00B1
 10e:	b1 00       	ori	r25, 0x01	; 1
 110:	90 91 b0 00 	sts	0x00B1, r25
 114:	92 60       	mov	r18, r24
 116:	90 93       	ldi	r19, 0x00	; 0
 118:	b0 00       	movw	r30, r18
 11a:	90 91       	subi	r30, 0x00	; 0
 11c:	b1 00       	sbci	r31, 0x00	; 0
 11e:	91 60       	lpm	r30, Z
 120:	90 93       	ldi	r31, 0x00	; 0
 122:	b1 00       	add	r30, r30
 124:	28 2f       	adc	r31, r31
 126:	30 e0       	subi	r30, 0x00	; 0
 128:	f9 01       	sbci	r31, 0x00	; 0
 12a:	e0 50       	lpm	r20, Z+
 12c:	f0 40       	lpm	r21, Z
 12e:	e4 91 f0 e0 	sts	0x0000, r21
 132:	ee 0f ff 1f 	sts	0x0000, r20
 136:	e0 50       	movw	r30, r18
 138:	f0 40       	subi	r30, 0x00	; 0
 13a:	45 91       	sbci	r31, 0x00	; 0
 13c:	54 91       	lpm	r18, Z
 13e:	50 93 00 00 	sts	0x0000, r18
 142:	40 93       	ldi	r21, 0x02	; 2
 144:	00 00       	mov	r3, r21
 146:	f9 01       	rjmp	.+0      	; 0x148 <_Z4tonehjm+0x138>
 148:	e0 50       	mov	r3, r30
 14a:	f0 40       	sbrc	r3, 7
 14c:	24 91       	rjmp	.+0      	; 0x14e <_Z4tonehjm+0x13e>
 14e:	20 93       	ldi	r22, 0x01	; 1
 150:	00 00 52 e0 	call	0	; 0x0 <timer2_pin_mask>
 154:	35 2e       	movw	r8, r16
 156:	00 c0       	mov	r10, r1
 158:	3e 2e       	mov	r11, r1
 15a:	37 fc       	mov	r24, r3
 15c:	00 c0       	andi	r24, 0xFD	; 253
 15e:	61 e0       	breq	.+0      	; 0x160 <_Z4tonehjm+0x150>
 160:	0e 94       	rjmp	.+0      	; 0x162 <_Z4tonehjm+0x152>
 162:	00 00       	ldi	r22, 0x00	; 0
 164:	48 01       	ldi	r23, 0x12	; 18
 166:	a1 2c       	ldi	r24, 0x7A	; 122
 168:	b1 2c       	ldi	r25, 0x00	; 0
 16a:	83 2d       	movw	r20, r10
 16c:	8d 7f       	movw	r18, r8
 16e:	01 f0 00 c0 	call	0	; 0x0 <timer2_pin_mask>
 172:	60 e0       	std	Y+1, r18	; 0x01
 174:	72 e1       	std	Y+2, r19	; 0x02
 176:	8a e7       	std	Y+3, r20	; 0x03
 178:	90 e0       	std	Y+4, r21	; 0x04
 17a:	a5 01       	movw	r12, r18
 17c:	94 01       	movw	r14, r20
 17e:	0e 94       	ldi	r24, 0x01	; 1
 180:	00 00       	sub	r12, r24
 182:	29 83       	sbc	r13, r1
 184:	3a 83       	sbc	r14, r1
 186:	4b 83       	sbc	r15, r1
 188:	5c 83       	ldi	r25, 0xFF	; 255
 18a:	69 01       	cp	r12, r25
 18c:	7a 01       	cpc	r13, r1
 18e:	81 e0       	cpc	r14, r1
 190:	c8 1a       	cpc	r15, r1
 192:	d1 08       	breq	.+0      	; 0x194 <_Z4tonehjm+0x184>
 194:	e1 08       	brcc	.+0      	; 0x196 <_Z4tonehjm+0x186>
 196:	f1 08       	rjmp	.+0      	; 0x198 <_Z4tonehjm+0x188>
 198:	9f ef       	ldi	r22, 0x40	; 64
 19a:	c9 16       	ldi	r23, 0x42	; 66
 19c:	d1 04       	ldi	r24, 0x0F	; 15
 19e:	e1 04       	ldi	r25, 0x00	; 0
 1a0:	f1 04       	movw	r20, r10
 1a2:	01 f0       	movw	r18, r8
 1a4:	00 f4 00 c0 	call	0	; 0x0 <timer2_pin_mask>
 1a8:	60 e4       	movw	r12, r18
 1aa:	72 e4       	movw	r14, r20
 1ac:	8f e0       	ldi	r30, 0x01	; 1
 1ae:	90 e0       	sub	r12, r30
 1b0:	a5 01       	sbc	r13, r1
 1b2:	94 01       	sbc	r14, r1
 1b4:	0e 94       	sbc	r15, r1
 1b6:	00 00       	ldi	r31, 0x02	; 2
 1b8:	69 01       	cpse	r3, r31
 1ba:	7a 01       	rjmp	.+0      	; 0x1bc <_Z4tonehjm+0x1ac>
 1bc:	e1 e0       	ldi	r24, 0xFF	; 255
 1be:	ce 1a       	cp	r12, r24
 1c0:	d1 08       	cpc	r13, r1
 1c2:	e1 08       	cpc	r14, r1
 1c4:	f1 08       	cpc	r15, r1
 1c6:	f2 e0       	breq	.+0      	; 0x1c8 <_Z4tonehjm+0x1b8>
 1c8:	3f 12       	brcc	.+0      	; 0x1ca <_Z4tonehjm+0x1ba>
 1ca:	00 c0       	rjmp	.+0      	; 0x1cc <_Z4tonehjm+0x1bc>
 1cc:	8f ef       	ldi	r22, 0x90	; 144
 1ce:	c8 16       	ldi	r23, 0xD0	; 208
 1d0:	d1 04       	ldi	r24, 0x03	; 3
 1d2:	e1 04       	ldi	r25, 0x00	; 0
 1d4:	f1 04       	movw	r20, r10
 1d6:	01 f0       	movw	r18, r8
 1d8:	00 f4 00 c0 	call	0	; 0x0 <timer2_pin_mask>
 1dc:	60 e9       	movw	r12, r18
 1de:	70 ed       	movw	r14, r20
 1e0:	83 e0       	ldi	r25, 0x01	; 1
 1e2:	90 e0       	sub	r12, r25
 1e4:	a5 01       	sbc	r13, r1
 1e6:	94 01       	sbc	r14, r1
 1e8:	0e 94       	sbc	r15, r1
 1ea:	00 00       	ldi	r24, 0x03	; 3
 1ec:	69 01       	rjmp	.+0      	; 0x1ee <_Z4tonehjm+0x1de>
 1ee:	7a 01       	ldi	r24, 0x02	; 2
 1f0:	91 e0       	ldi	r30, 0xFF	; 255
 1f2:	c9 1a       	cp	r12, r30
 1f4:	d1 08       	cpc	r13, r1
 1f6:	e1 08       	cpc	r14, r1
 1f8:	f1 08       	cpc	r15, r1
 1fa:	83 e0       	breq	.+0      	; 0x1fc <_Z4tonehjm+0x1ec>
 1fc:	00 c0       	brcc	.+0      	; 0x1fe <_Z4tonehjm+0x1ee>
 1fe:	82 e0       	rjmp	.+0      	; 0x200 <_Z4tonehjm+0x1f0>
 200:	ef ef       	ldi	r22, 0x48	; 72
 202:	ce 16       	ldi	r23, 0xE8	; 232
 204:	d1 04       	ldi	r24, 0x01	; 1
 206:	e1 04       	ldi	r25, 0x00	; 0
 208:	f1 04       	movw	r20, r10
 20a:	01 f0       	movw	r18, r8
 20c:	00 f4 00 c0 	call	0	; 0x0 <timer2_pin_mask>
 210:	68 e4       	movw	r12, r18
 212:	78 ee       	movw	r14, r20
 214:	81 e0       	ldi	r31, 0x01	; 1
 216:	90 e0       	sub	r12, r31
 218:	a5 01       	sbc	r13, r1
 21a:	94 01       	sbc	r14, r1
 21c:	0e 94       	sbc	r15, r1
 21e:	00 00       	and	r3, r3
 220:	69 01       	breq	.+0      	; 0x222 <_Z4tonehjm+0x212>
 222:	7a 01       	ldi	r24, 0x02	; 2
 224:	f1 e0       	cpse	r3, r24
 226:	cf 1a       	rjmp	.+0      	; 0x228 <_Z4tonehjm+0x218>
 228:	d1 08       	ldi	r25, 0xFF	; 255
 22a:	e1 08       	cp	r12, r25
 22c:	f1 08       	cpc	r13, r1
 22e:	33 20       	cpc	r14, r1
 230:	01 f0       	cpc	r15, r1
 232:	82 e0       	breq	.+0      	; 0x234 <_Z4tonehjm+0x224>
 234:	38 12       	brcc	.+0      	; 0x236 <_Z4tonehjm+0x226>
 236:	00 c0       	rjmp	.+0      	; 0x238 <_Z4tonehjm+0x228>
 238:	9f ef       	ldi	r22, 0x24	; 36
 23a:	c9 16       	ldi	r23, 0xF4	; 244
 23c:	d1 04       	ldi	r24, 0x00	; 0
 23e:	e1 04       	ldi	r25, 0x00	; 0
 240:	f1 04       	movw	r20, r10
 242:	01 f0       	movw	r18, r8
 244:	00 f4 00 c0 	call	0	; 0x0 <timer2_pin_mask>
 248:	64 e2       	movw	r12, r18
 24a:	74 ef       	movw	r14, r20
 24c:	80 e0       	ldi	r30, 0x01	; 1
 24e:	90 e0       	sub	r12, r30
 250:	a5 01       	sbc	r13, r1
 252:	94 01       	sbc	r14, r1
 254:	0e 94       	sbc	r15, r1
 256:	00 00       	ldi	r24, 0x05	; 5
 258:	69 01       	rjmp	.+0      	; 0x25a <_Z4tonehjm+0x24a>
 25a:	7a 01       	ldi	r24, 0x03	; 3
 25c:	e1 e0       	rjmp	.+0      	; 0x25e <_Z4tonehjm+0x24e>
 25e:	ce 1a       	ldi	r24, 0x04	; 4
 260:	d1 08       	ldi	r31, 0xFF	; 255
 262:	e1 08       	cp	r12, r31
 264:	f1 08       	cpc	r13, r1
 266:	85 e0       	cpc	r14, r1
 268:	00 c0       	cpc	r15, r1
 26a:	83 e0       	breq	.+0      	; 0x26c <_Z4tonehjm+0x25c>
 26c:	00 c0       	brcs	.+0      	; 0x26e <_Z4tonehjm+0x25e>
 26e:	84 e0       	ldi	r22, 0x12	; 18
 270:	ff ef       	ldi	r23, 0x7A	; 122
 272:	cf 16       	ldi	r24, 0x00	; 0
 274:	d1 04       	ldi	r25, 0x00	; 0
 276:	e1 04       	movw	r20, r10
 278:	f1 04       	movw	r18, r8
 27a:	01 f0 00 f0 	call	0	; 0x0 <timer2_pin_mask>
 27e:	62 e1       	movw	r12, r18
 280:	7a e7       	movw	r14, r20
 282:	80 e0       	ldi	r24, 0x01	; 1
 284:	90 e0       	sub	r12, r24
 286:	a5 01       	sbc	r13, r1
 288:	94 01       	sbc	r14, r1
 28a:	0e 94       	sbc	r15, r1
 28c:	00 00       	cpse	r3, r1
 28e:	69 01       	rjmp	.+0      	; 0x290 <_Z4tonehjm+0x280>
 290:	7a 01       	ldi	r24, 0x04	; 4
 292:	81 e0       	rjmp	.+0      	; 0x294 <_Z4tonehjm+0x284>
 294:	c8 1a       	ldi	r24, 0x06	; 6
 296:	d1 08       	ldi	r25, 0xFF	; 255
 298:	e1 08       	cp	r12, r25
 29a:	f1 08       	cpc	r13, r1
 29c:	31 10       	cpc	r14, r1
 29e:	00 c0       	cpc	r15, r1
 2a0:	84 e0       	breq	.+0      	; 0x2a2 <_Z4tonehjm+0x292>
 2a2:	00 c0       	brcs	.+0      	; 0x2a4 <_Z4tonehjm+0x294>
 2a4:	86 e0       	ldd	r12, Y+1	; 0x01
 2a6:	9f ef       	ldd	r13, Y+2	; 0x02
 2a8:	c9 16       	ldd	r14, Y+3	; 0x03
 2aa:	d1 04       	ldd	r15, Y+4	; 0x04
 2ac:	e1 04       	ldi	r25, 0x0A	; 10
 2ae:	f1 04       	lsr	r15
 2b0:	01 f0       	ror	r14
 2b2:	00 f0       	ror	r13
 2b4:	c9 80       	ror	r12
 2b6:	da 80       	dec	r25
 2b8:	eb 80       	brne	.+0      	; 0x2ba <_Z4tonehjm+0x2aa>
 2ba:	fc 80       	ldi	r30, 0x01	; 1
 2bc:	9a e0       	sub	r12, r30
 2be:	f6 94       	sbc	r13, r1
 2c0:	e7 94       	sbc	r14, r1
 2c2:	d7 94       	sbc	r15, r1
 2c4:	c7 94       	and	r3, r3
 2c6:	9a 95       	breq	.+0      	; 0x2c8 <_Z4tonehjm+0x2b8>
 2c8:	01 f4       	ldi	r24, 0x07	; 7
 2ca:	e1 e0       	rjmp	.+0      	; 0x2cc <_Z4tonehjm+0x2bc>
 2cc:	ce 1a       	ldi	r24, 0x01	; 1
 2ce:	d1 08       	and	r3, r3
 2d0:	e1 08       	breq	.+0      	; 0x2d2 <_Z4tonehjm+0x2c2>
 2d2:	f1 08       	rjmp	.+0      	; 0x2d4 <_Z4tonehjm+0x2c4>
 2d4:	33 20       	ldi	r24, 0x05	; 5
 2d6:	01 f0       	in	r25, 0x25	; 37
 2d8:	87 e0       	andi	r25, 0xF8	; 248
 2da:	00 c0       	or	r25, r24
 2dc:	81 e0       	out	0x25, r25	; 37
 2de:	33 20       	rjmp	.+0      	; 0x2e0 <_Z4tonehjm+0x2d0>
 2e0:	01 f0       	ldi	r24, 0x02	; 2
 2e2:	00 c0 85 e0 	lds	r25, 0x00B1
 2e6:	95 b5       	andi	r25, 0xF8	; 248
 2e8:	98 7f       	or	r25, r24
 2ea:	98 2b 95 bd 	sts	0x00B1, r25
 2ee:	00 c0       	rjmp	.+0      	; 0x2f0 <_Z4tonehjm+0x2e0>
 2f0:	82 e0       	ldi	r22, 0x00	; 0
 2f2:	90 91       	ldi	r23, 0x12	; 18
 2f4:	b1 00       	ldi	r24, 0x7A	; 122
 2f6:	98 7f       	ldi	r25, 0x00	; 0
 2f8:	98 2b       	movw	r20, r10
 2fa:	90 93       	movw	r18, r8
 2fc:	b1 00 00 c0 	call	0	; 0x0 <timer2_pin_mask>
 300:	60 e0       	movw	r12, r18
 302:	72 e1       	movw	r14, r20
 304:	8a e7       	ldi	r31, 0x01	; 1
 306:	90 e0       	sub	r12, r31
 308:	a5 01       	sbc	r13, r1
 30a:	94 01       	sbc	r14, r1
 30c:	0e 94       	sbc	r15, r1
 30e:	00 00       	cp	r12, r1
 310:	69 01       	cpc	r13, r1
 312:	7a 01       	ldi	r24, 0x01	; 1
 314:	f1 e0       	cpc	r14, r24
 316:	cf 1a       	cpc	r15, r1
 318:	d1 08       	brcs	.+0      	; 0x31a <_Z4tonehjm+0x30a>
 31a:	e1 08       	ldi	r22, 0x48	; 72
 31c:	f1 08       	ldi	r23, 0xE8	; 232
 31e:	c1 14       	ldi	r24, 0x01	; 1
 320:	d1 04       	ldi	r25, 0x00	; 0
 322:	81 e0       	movw	r20, r10
 324:	e8 06       	movw	r18, r8
 326:	f1 04 00 f0 	call	0	; 0x0 <timer2_pin_mask>
 32a:	68 e4       	movw	r12, r18
 32c:	78 ee       	movw	r14, r20
 32e:	81 e0       	ldi	r25, 0x01	; 1
 330:	90 e0       	sub	r12, r25
 332:	a5 01       	sbc	r13, r1
 334:	94 01       	sbc	r14, r1
 336:	0e 94       	sbc	r15, r1
 338:	00 00       	ldi	r25, 0x03	; 3
 33a:	69 01       	rjmp	.+0      	; 0x33c <_Z4tonehjm+0x32c>
 33c:	7a 01       	ldi	r25, 0x01	; 1
 33e:	91 e0       	ldi	r30, 0x01	; 1
 340:	c9 1a       	cpse	r3, r30
 342:	d1 08       	rjmp	.+0      	; 0x344 <_Z4tonehjm+0x334>
 344:	e1 08 f1 08 	lds	r24, 0x0081
 348:	93 e0       	andi	r24, 0xF8	; 248
 34a:	00 c0       	or	r24, r25
 34c:	91 e0 e1 e0 	sts	0x0081, r24
 350:	3e 12       	cp	r4, r1
 352:	00 c0       	cpc	r5, r1
 354:	80 91       	cpc	r6, r1
 356:	81 00       	cpc	r7, r1
 358:	88 7f       	breq	.+0      	; 0x35a <_Z4tonehjm+0x34a>
 35a:	89 2b       	movw	r26, r16
 35c:	80 93       	add	r26, r26
 35e:	81 00       	adc	r27, r27
 360:	41 14       	movw	r20, r6
 362:	51 04       	movw	r18, r4
 364:	61 04 71 04 	call	0	; 0x0 <timer2_pin_mask>
 368:	01 f0       	ldi	r18, 0xE8	; 232
 36a:	d8 01       	ldi	r19, 0x03	; 3
 36c:	aa 0f       	ldi	r20, 0x00	; 0
 36e:	bb 1f       	ldi	r21, 0x00	; 0
 370:	a3 01 92 01 	call	0	; 0x0 <timer2_pin_mask>
 374:	0e 94       	rjmp	.+0      	; 0x376 <_Z4tonehjm+0x366>
 376:	00 00       	ldi	r18, 0xFF	; 255
 378:	28 ee       	ldi	r19, 0xFF	; 255
 37a:	33 e0       	movw	r20, r18
 37c:	40 e0       	ldi	r31, 0x01	; 1
 37e:	50 e0       	cp	r3, r31
 380:	0e 94       	breq	.+0      	; 0x382 <_Z4tonehjm+0x372>
 382:	00 00       	ldi	r24, 0x02	; 2
 384:	00 c0       	cp	r3, r24
 386:	2f ef       	breq	.+0      	; 0x388 <_Z4tonehjm+0x378>
 388:	3f ef       	cpse	r3, r1
 38a:	a9 01       	rjmp	.+0      	; 0x38c <_Z4tonehjm+0x37c>
 38c:	f1 e0       	out	0x27, r12	; 39
 38e:	3f 16 01 f0 	sts	0x0000, r18
 392:	82 e0 38 16 	sts	0x0000, r19
 396:	01 f0 31 10 	sts	0x0000, r20
 39a:	00 c0 c7 bc 	sts	0x0000, r21
 39e:	20 93 00 00 	lds	r24, 0x006E
 3a2:	30 93       	ori	r24, 0x02	; 2
 3a4:	00 00 40 93 	sts	0x006E, r24
 3a8:	00 00       	rjmp	.+0      	; 0x3aa <_Z4tonehjm+0x39a>
 3aa:	50 93 00 00 	sts	0x0089, r13
 3ae:	80 91 6e 00 	sts	0x0088, r12
 3b2:	82 60 80 93 	sts	0x0000, r18
 3b6:	6e 00 00 c0 	sts	0x0000, r19
 3ba:	d0 92 89 00 	sts	0x0000, r20
 3be:	c0 92 88 00 	sts	0x0000, r21
 3c2:	20 93 00 00 	lds	r24, 0x006F
 3c6:	30 93       	ori	r24, 0x02	; 2
 3c8:	00 00 40 93 	sts	0x006F, r24
 3cc:	00 00       	rjmp	.+0      	; 0x3ce <_Z4tonehjm+0x3be>
 3ce:	50 93 00 00 	sts	0x00B3, r12
 3d2:	80 91 6f 00 	sts	0x0000, r18
 3d6:	82 60 80 93 	sts	0x0000, r19
 3da:	6f 00 00 c0 	sts	0x0000, r20
 3de:	c0 92 b3 00 	sts	0x0000, r21
 3e2:	20 93 00 00 	lds	r24, 0x0070
 3e6:	30 93       	ori	r24, 0x02	; 2
 3e8:	00 00 40 93 	sts	0x0070, r24
 3ec:	00 00       	rjmp	.+0      	; 0x3ee <_Z4tonehjm+0x3de>
 3ee:	50 93       	ldi	r24, 0x04	; 4
 3f0:	00 00       	rjmp	.+0      	; 0x3f2 <_Z4tonehjm+0x3e2>
 3f2:	80 91       	pop	r0
 3f4:	70 00       	pop	r0
 3f6:	82 60       	pop	r0
 3f8:	80 93       	pop	r0
 3fa:	70 00       	pop	r29
 3fc:	00 c0       	pop	r28
 3fe:	84 e0       	pop	r17
 400:	00 c0       	pop	r16
 402:	0f 90       	pop	r15
 404:	0f 90       	pop	r14
 406:	0f 90       	pop	r13
 408:	0f 90       	pop	r12
 40a:	df 91       	pop	r11
 40c:	cf 91       	pop	r10
 40e:	1f 91       	pop	r9
 410:	0f 91       	pop	r8
 412:	ff 90       	pop	r7
 414:	ef 90       	pop	r6
 416:	df 90       	pop	r5
 418:	cf 90       	pop	r4
 41a:	bf 90       	pop	r3
 41c:	af 90       	ret
 41e:	9f 90       	Address 0x000000000000041e is out of bounds.
.word	0xffff	; ????
 420:	8f 90       	Address 0x0000000000000420 is out of bounds.
.word	0xffff	; ????
 422:	7f 90       	Address 0x0000000000000422 is out of bounds.
.word	0xffff	; ????
 424:	6f 90       	Address 0x0000000000000424 is out of bounds.
.word	0xffff	; ????
 426:	5f 90       	Address 0x0000000000000426 is out of bounds.
.word	0xffff	; ????
 428:	4f 90       	Address 0x0000000000000428 is out of bounds.
.word	0xffff	; ????
 42a:	3f 90       	Address 0x000000000000042a is out of bounds.
.word	0xffff	; ????
 42c:	08 95       	Address 0x000000000000042c is out of bounds.
.word	0xffff	; ????

Disassembly of section .text._Z12disableTimerh:

0000043e <_Z12disableTimerh>:
 43e:	81 30       	cpi	r24, 0x01	; 1
 440:	01 f0       	breq	.+0      	; 0x442 <_Z12disableTimerh+0x4>
 442:	00 f0       	brcs	.+0      	; 0x444 <_Z12disableTimerh+0x6>
 444:	82 30       	cpi	r24, 0x02	; 2
 446:	01 f0       	breq	.+0      	; 0x448 <_Z12disableTimerh+0xa>
 448:	08 95       	ret
 44a:	10 92 6e 00 	sts	0x006E, r1
 44e:	08 95       	ret
 450:	80 91 6f 00 	lds	r24, 0x006F
 454:	8d 7f       	andi	r24, 0xFD	; 253
 456:	80 93 6f 00 	sts	0x006F, r24
 45a:	08 95       	ret
 45c:	80 91 70 00 	lds	r24, 0x0070
 460:	8d 7f       	andi	r24, 0xFD	; 253
 462:	80 93 70 00 	sts	0x0070, r24
 466:	81 e0       	ldi	r24, 0x01	; 1
 468:	80 93 b0 00 	sts	0x00B0, r24
 46c:	80 91 b1 00 	lds	r24, 0x00B1
 470:	88 7f       	andi	r24, 0xF8	; 248
 472:	84 60       	ori	r24, 0x04	; 4
 474:	80 93 b1 00 	sts	0x00B1, r24
 478:	10 92 b3 00 	sts	0x00B3, r1
 47c:	08 95       	ret

Disassembly of section .text._Z6noToneh:

000008bc <_Z6noToneh>:
 8bc:	cf 93       	push	r28
 8be:	c8 2f       	mov	r28, r24
 8c0:	80 91 00 00 	lds	r24, 0x0000
 8c4:	8c 13       	cpse	r24, r28
 8c6:	00 c0       	rjmp	.+0      	; 0x8c8 <_Z6noToneh+0xc>
 8c8:	e0 e0       	ldi	r30, 0x00	; 0
 8ca:	f0 e0       	ldi	r31, 0x00	; 0
 8cc:	84 91       	lpm	r24, Z
 8ce:	9f ef       	ldi	r25, 0xFF	; 255
 8d0:	90 93 00 00 	sts	0x0000, r25
 8d4:	00 c0       	rjmp	.+0      	; 0x8d6 <_Z6noToneh+0x1a>
 8d6:	8f ef       	ldi	r24, 0xFF	; 255
 8d8:	0e 94 00 00 	call	0	; 0x0 <timer2_pin_mask>
 8dc:	60 e0       	ldi	r22, 0x00	; 0
 8de:	8c 2f       	mov	r24, r28
 8e0:	cf 91       	pop	r28
 8e2:	0c 94 00 00 	jmp	0	; 0x0 <timer2_pin_mask>

Disassembly of section .text.__vector_7:

000011a2 <__vector_7>:
    11a2:	1f 92       	push	r1
    11a4:	0f 92       	push	r0
    11a6:	0f b6       	in	r0, 0x3f	; 63
    11a8:	0f 92       	push	r0
    11aa:	11 24       	eor	r1, r1
    11ac:	2f 93       	push	r18
    11ae:	3f 93       	push	r19
    11b0:	4f 93       	push	r20
    11b2:	5f 93       	push	r21
    11b4:	6f 93       	push	r22
    11b6:	7f 93       	push	r23
    11b8:	8f 93       	push	r24
    11ba:	9f 93       	push	r25
    11bc:	af 93       	push	r26
    11be:	bf 93       	push	r27
    11c0:	ef 93       	push	r30
    11c2:	ff 93       	push	r31
    11c4:	80 91 00 00 	lds	r24, 0x0000
    11c8:	90 91 00 00 	lds	r25, 0x0000
    11cc:	a0 91 00 00 	lds	r26, 0x0000
    11d0:	b0 91 00 00 	lds	r27, 0x0000
    11d4:	89 2b       	or	r24, r25
    11d6:	8a 2b       	or	r24, r26
    11d8:	8b 2b       	or	r24, r27
    11da:	01 f0       	breq	.+0      	; 0x11dc <__vector_7+0x3a>
    11dc:	90 91 00 00 	lds	r25, 0x0000
    11e0:	e0 91 00 00 	lds	r30, 0x0000
    11e4:	f0 91 00 00 	lds	r31, 0x0000
    11e8:	80 81       	ld	r24, Z
    11ea:	89 27       	eor	r24, r25
    11ec:	80 83       	st	Z, r24
    11ee:	80 91 00 00 	lds	r24, 0x0000
    11f2:	90 91 00 00 	lds	r25, 0x0000
    11f6:	a0 91 00 00 	lds	r26, 0x0000
    11fa:	b0 91 00 00 	lds	r27, 0x0000
    11fe:	18 16       	cp	r1, r24
    1200:	19 06       	cpc	r1, r25
    1202:	1a 06       	cpc	r1, r26
    1204:	1b 06       	cpc	r1, r27
    1206:	04 f4       	brge	.+0      	; 0x1208 <__vector_7+0x66>
    1208:	80 91 00 00 	lds	r24, 0x0000
    120c:	90 91 00 00 	lds	r25, 0x0000
    1210:	a0 91 00 00 	lds	r26, 0x0000
    1214:	b0 91 00 00 	lds	r27, 0x0000
    1218:	01 97       	sbiw	r24, 0x01	; 1
    121a:	a1 09       	sbc	r26, r1
    121c:	b1 09       	sbc	r27, r1
    121e:	80 93 00 00 	sts	0x0000, r24
    1222:	90 93 00 00 	sts	0x0000, r25
    1226:	a0 93 00 00 	sts	0x0000, r26
    122a:	b0 93 00 00 	sts	0x0000, r27
    122e:	00 c0       	rjmp	.+0      	; 0x1230 <__vector_7+0x8e>
    1230:	80 91 00 00 	lds	r24, 0x0000
    1234:	0e 94 00 00 	call	0	; 0x0 <timer2_pin_mask>
    1238:	ff 91       	pop	r31
    123a:	ef 91       	pop	r30
    123c:	bf 91       	pop	r27
    123e:	af 91       	pop	r26
    1240:	9f 91       	pop	r25
    1242:	8f 91       	pop	r24
    1244:	7f 91       	pop	r23
    1246:	6f 91       	pop	r22
    1248:	5f 91       	pop	r21
    124a:	4f 91       	pop	r20
    124c:	3f 91       	pop	r19
    124e:	2f 91       	pop	r18
    1250:	0f 90       	pop	r0
    1252:	0f be       	out	0x3f, r0	; 63
    1254:	0f 90       	pop	r0
    1256:	1f 90       	pop	r1
    1258:	18 95       	reti

USBCore.o:     file format elf32-avr

Sections:
Idx Name          Size      VMA       LMA       File off  Algn
  0 .text         00000000  00000000  00000000  00000034  2**0
                  CONTENTS, ALLOC, LOAD, READONLY, CODE
  1 .data         00000000  00000000  00000000  00000034  2**0
                  CONTENTS, ALLOC, LOAD, DATA
  2 .bss          00000000  00000000  00000000  00000034  2**0
                  ALLOC
  3 .stab         0000069c  00000000  00000000  00000034  2**2
                  CONTENTS, RELOC, READONLY, DEBUGGING
  4 .stabstr      000011ab  00000000  00000000  000006d0  2**0
                  CONTENTS, READONLY, DEBUGGING
  5 .comment      00000012  00000000  00000000  0000187b  2**0
                  CONTENTS, READONLY

WInterrupts.o:     file format elf32-avr

Sections:
Idx Name          Size      VMA       LMA       File off  Algn
  0 .text         00000000  00000000  00000000  00000034  2**0
                  CONTENTS, ALLOC, LOAD, READONLY, CODE
  1 .data         00000000  00000000  00000000  00000034  2**0
                  CONTENTS, ALLOC, LOAD, DATA
  2 .bss          00000000  00000000  00000000  00000034  2**0
                  ALLOC
  3 .stab         000007d4  00000000  00000000  00000034  2**2
                  CONTENTS, RELOC, READONLY, DEBUGGING
  4 .stabstr      00001057  00000000  00000000  00000808  2**0
                  CONTENTS, READONLY, DEBUGGING
  5 .text.nothing 00000002  00000000  00000000  0000185f  2**0
                  CONTENTS, ALLOC, LOAD, READONLY, CODE
  6 .text.attachInterrupt 00000040  00000000  00000000  00001861  2**0
                  CONTENTS, ALLOC, LOAD, RELOC, READONLY, CODE
  7 .text.detachInterrupt 00000024  00000000  00000000  000018a1  2**0
                  CONTENTS, ALLOC, LOAD, RELOC, READONLY, CODE
  8 .text.__vector_1 0000004e  00000000  00000000  000018c5  2**0
                  CONTENTS, ALLOC, LOAD, RELOC, READONLY, CODE
  9 .text.__vector_2 0000004e  00000000  00000000  00001913  2**0
                  CONTENTS, ALLOC, LOAD, RELOC, READONLY, CODE
 10 .data.intFunc 00000004  00000000  00000000  00001961  2**0
                  CONTENTS, ALLOC, LOAD, RELOC, DATA
 11 .comment      00000012  00000000  00000000  00001965  2**0
                  CONTENTS, READONLY

Disassembly of section .text.nothing:

00000000 <nothing>:

ISR(INT0_vect) {
    intFunc[EXTERNAL_INT_0]();
}

ISR(INT1_vect) {
   0:	08 95       	ret

Disassembly of section .text.attachInterrupt:

00000000 <attachInterrupt>:
   2:	82 30       	brcc	.+0      	; 0x4 <attachInterrupt+0x2>
   4:	00 f4       	mov	r30, r24
   6:	e8 2f       	ldi	r31, 0x00	; 0
   8:	f0 e0       	add	r30, r30
   a:	ee 0f       	adc	r31, r31
   c:	ff 1f       	subi	r30, 0x00	; 0
   e:	e0 50       	sbci	r31, 0x00	; 0
  10:	f0 40       	std	Z+1, r23	; 0x01
  12:	71 83       	st	Z, r22
  14:	60 83       	cpi	r24, 0x01	; 1
  16:	81 30       	breq	.+0      	; 0x18 <attachInterrupt+0x16>
  18:	01 f0 80 91 	lds	r24, 0x0069
  1c:	69 00       	andi	r24, 0xFC	; 252
  1e:	8c 7f       	or	r24, r20
  20:	84 2b 80 93 	sts	0x0069, r24
    intFunc[EXTERNAL_INT_1]();
  24:	69 00       	sbi	0x1d, 0	; 29
  26:	e8 9a       	ret
  28:	08 95 80 91 	lds	r24, 0x0069
}
  2c:	69 00       	add	r20, r20
  2e:	44 0f       	adc	r21, r21
  30:	55 1f       	add	r20, r20
  32:	44 0f       	adc	r21, r21
  34:	55 1f       	andi	r24, 0xF3	; 243
  36:	83 7f       	or	r24, r20
  38:	84 2b 80 93 	sts	0x0069, r24
  3c:	69 00       	sbi	0x1d, 1	; 29
  3e:	e9 9a       	ret
  40:	08 95       	Address 0x0000000000000040 is out of bounds.
.word	0xffff	; ????

Disassembly of section .text.detachInterrupt:

00000044 <detachInterrupt>:
  44:	82 30       	cpi	r24, 0x02	; 2
  46:	00 f4       	brcc	.+0      	; 0x48 <detachInterrupt+0x4>
  48:	81 30       	cpi	r24, 0x01	; 1
  4a:	01 f0       	breq	.+0      	; 0x4c <detachInterrupt+0x8>
  4c:	e8 98       	cbi	0x1d, 0	; 29
  4e:	00 c0       	rjmp	.+0      	; 0x50 <detachInterrupt+0xc>
  50:	e9 98       	cbi	0x1d, 1	; 29
  52:	e8 2f       	mov	r30, r24
  54:	f0 e0       	ldi	r31, 0x00	; 0
  56:	ee 0f       	add	r30, r30
  58:	ff 1f       	adc	r31, r31
  5a:	e0 50       	subi	r30, 0x00	; 0
  5c:	f0 40       	sbci	r31, 0x00	; 0
  5e:	80 e0       	ldi	r24, 0x00	; 0
  60:	90 e0       	ldi	r25, 0x00	; 0
  62:	91 83       	std	Z+1, r25	; 0x01
  64:	80 83       	st	Z, r24
  66:	08 95       	ret

Disassembly of section .text.__vector_1:

000000ac <__vector_1>:
  ac:	1f 92       	push	r1
  ae:	0f 92       	push	r0
  b0:	0f b6       	in	r0, 0x3f	; 63
  b2:	0f 92       	push	r0
  b4:	11 24       	eor	r1, r1
  b6:	2f 93       	push	r18
  b8:	3f 93       	push	r19
  ba:	4f 93       	push	r20
  bc:	5f 93       	push	r21
  be:	6f 93       	push	r22
  c0:	7f 93       	push	r23
  c2:	8f 93       	push	r24
  c4:	9f 93       	push	r25
  c6:	af 93       	push	r26
  c8:	bf 93       	push	r27
  ca:	ef 93       	push	r30
  cc:	ff 93       	push	r31
  ce:	e0 91 00 00 	lds	r30, 0x0000
  d2:	f0 91 00 00 	lds	r31, 0x0000
  d6:	09 95       	icall
  d8:	ff 91       	pop	r31
  da:	ef 91       	pop	r30
  dc:	bf 91       	pop	r27
  de:	af 91       	pop	r26
  e0:	9f 91       	pop	r25
  e2:	8f 91       	pop	r24
  e4:	7f 91       	pop	r23
  e6:	6f 91       	pop	r22
  e8:	5f 91       	pop	r21
  ea:	4f 91       	pop	r20
  ec:	3f 91       	pop	r19
  ee:	2f 91       	pop	r18
  f0:	0f 90       	pop	r0
  f2:	0f be       	out	0x3f, r0	; 63
  f4:	0f 90       	pop	r0
  f6:	1f 90       	pop	r1
  f8:	18 95       	reti

Disassembly of section .text.__vector_2:

000001a6 <__vector_2>:
 1a6:	1f 92       	push	r1
 1a8:	0f 92       	push	r0
 1aa:	0f b6       	in	r0, 0x3f	; 63
 1ac:	0f 92       	push	r0
 1ae:	11 24       	eor	r1, r1
 1b0:	2f 93       	push	r18
 1b2:	3f 93       	push	r19
 1b4:	4f 93       	push	r20
 1b6:	5f 93       	push	r21
 1b8:	6f 93       	push	r22
 1ba:	7f 93       	push	r23
 1bc:	8f 93       	push	r24
 1be:	9f 93       	push	r25
 1c0:	af 93       	push	r26
 1c2:	bf 93       	push	r27
 1c4:	ef 93       	push	r30
 1c6:	ff 93       	push	r31
 1c8:	e0 91 00 00 	lds	r30, 0x0000
 1cc:	f0 91 00 00 	lds	r31, 0x0000
 1d0:	09 95       	icall
 1d2:	ff 91       	pop	r31
 1d4:	ef 91       	pop	r30
 1d6:	bf 91       	pop	r27
 1d8:	af 91       	pop	r26
 1da:	9f 91       	pop	r25
 1dc:	8f 91       	pop	r24
 1de:	7f 91       	pop	r23
 1e0:	6f 91       	pop	r22
 1e2:	5f 91       	pop	r21
 1e4:	4f 91       	pop	r20
 1e6:	3f 91       	pop	r19
 1e8:	2f 91       	pop	r18
 1ea:	0f 90       	pop	r0
 1ec:	0f be       	out	0x3f, r0	; 63
 1ee:	0f 90       	pop	r0
 1f0:	1f 90       	pop	r1
 1f2:	18 95       	reti

WMath.o:     file format elf32-avr

Sections:
Idx Name          Size      VMA       LMA       File off  Algn
  0 .text         00000000  00000000  00000000  00000034  2**0
                  CONTENTS, ALLOC, LOAD, READONLY, CODE
  1 .data         00000018  00000000  00000000  00000034  2**0
                  CONTENTS, ALLOC, LOAD, DATA
  2 .bss          00000000  00000000  00000000  0000004c  2**0
                  ALLOC
  3 .stab         00000528  00000000  00000000  0000004c  2**2
                  CONTENTS, RELOC, READONLY, DEBUGGING
  4 .stabstr      00000b11  00000000  00000000  00000574  2**0
                  CONTENTS, READONLY, DEBUGGING
  5 .text._Z10randomSeedm 00000010  00000000  00000000  00001085  2**0
                  CONTENTS, ALLOC, LOAD, RELOC, READONLY, CODE
  6 .text._Z6randoml 00000048  00000000  00000000  00001095  2**0
                  CONTENTS, ALLOC, LOAD, RELOC, READONLY, CODE
  7 .text._Z6randomll 00000038  00000000  00000000  000010dd  2**0
                  CONTENTS, ALLOC, LOAD, RELOC, READONLY, CODE
  8 .text._Z3maplllll 0000008e  00000000  00000000  00001115  2**0
                  CONTENTS, ALLOC, LOAD, RELOC, READONLY, CODE
  9 .text._Z8makeWordj 00000002  00000000  00000000  000011a3  2**0
                  CONTENTS, ALLOC, LOAD, READONLY, CODE
 10 .text._Z8makeWordhh 0000000a  00000000  00000000  000011a5  2**0
                  CONTENTS, ALLOC, LOAD, READONLY, CODE
 11 .comment      00000012  00000000  00000000  000011af  2**0
                  CONTENTS, READONLY

Disassembly of section .text._Z10randomSeedm:

00000000 <_Z10randomSeedm>:
{
  return (x - in_min) * (out_max - out_min) / (in_max - in_min) + out_min;
}

unsigned int makeWord(unsigned int w) { return w; }
unsigned int makeWord(unsigned char h, unsigned char l) { return (h << 8) | l; }
   0:	61 15       	cp	r22, r1
  1a:	71 05       	Address 0x000000000000001a is out of bounds.
.word	0xffff	; ????
  1c:	81 05       	Address 0x000000000000001c is out of bounds.
.word	0xffff	; ????
  1e:	91 05       	Address 0x000000000000001e is out of bounds.
.word	0xffff	; ????
  20:	01 f0       	Address 0x0000000000000020 is out of bounds.
.word	0xffff	; ????
  22:	0c 94       	Address 0x0000000000000022 is out of bounds.
.word	0xffff	; ????
  24:	00 00       	Address 0x0000000000000024 is out of bounds.
.word	0xffff	; ????
  26:	08 95       	Address 0x0000000000000026 is out of bounds.
.word	0xffff	; ????

Disassembly of section .text._Z6randoml:

00000040 <_Z6randoml>:
  40:	cf 93       	push	r28
  42:	df 93       	push	r29
  44:	00 d0       	rcall	.+0      	; 0x46 <_Z6randoml+0x6>
  46:	00 d0       	rcall	.+0      	; 0x48 <_Z6randoml+0x8>
  48:	cd b7       	in	r28, 0x3d	; 61
  4a:	de b7       	in	r29, 0x3e	; 62
  4c:	9b 01       	movw	r18, r22
  4e:	ac 01       	movw	r20, r24
  50:	61 15       	cp	r22, r1
  52:	71 05       	cpc	r23, r1
  54:	81 05       	cpc	r24, r1
  56:	91 05       	cpc	r25, r1
  58:	01 f0       	breq	.+0      	; 0x5a <_Z6randoml+0x1a>
  5a:	69 83       	std	Y+1, r22	; 0x01
  5c:	3a 83       	std	Y+2, r19	; 0x02
  5e:	4b 83       	std	Y+3, r20	; 0x03
  60:	5c 83       	std	Y+4, r21	; 0x04
  62:	0e 94 00 00 	call	0	; 0x0 <__tmp_reg__>
  66:	29 81       	ldd	r18, Y+1	; 0x01
  68:	3a 81       	ldd	r19, Y+2	; 0x02
  6a:	4b 81       	ldd	r20, Y+3	; 0x03
  6c:	5c 81       	ldd	r21, Y+4	; 0x04
  6e:	0e 94 00 00 	call	0	; 0x0 <__tmp_reg__>
  72:	00 c0       	rjmp	.+0      	; 0x74 <_Z6randoml+0x34>
  74:	60 e0       	ldi	r22, 0x00	; 0
  76:	70 e0       	ldi	r23, 0x00	; 0
  78:	cb 01       	movw	r24, r22
  7a:	0f 90       	pop	r0
  7c:	0f 90       	pop	r0
  7e:	0f 90       	pop	r0
  80:	0f 90       	pop	r0
  82:	df 91       	pop	r29
  84:	cf 91       	pop	r28
  86:	08 95       	ret

Disassembly of section .text._Z6randomll:

000000c8 <_Z6randomll>:
  c8:	cf 92       	push	r12
  ca:	df 92       	push	r13
  cc:	ef 92       	push	r14
  ce:	ff 92       	push	r15
  d0:	6b 01       	movw	r12, r22
  d2:	7c 01       	movw	r14, r24
  d4:	62 17       	cp	r22, r18
  d6:	73 07       	cpc	r23, r19
  d8:	84 07       	cpc	r24, r20
  da:	95 07       	cpc	r25, r21
  dc:	04 f4       	brge	.+0      	; 0xde <_Z6randomll+0x16>
  de:	ca 01       	movw	r24, r20
  e0:	b9 01       	movw	r22, r18
  e2:	6c 19       	sub	r22, r12
  e4:	7d 09       	sbc	r23, r13
  e6:	8e 09       	sbc	r24, r14
  e8:	9f 09       	sbc	r25, r15
  ea:	0e 94 00 00 	call	0	; 0x0 <__tmp_reg__>
  ee:	6c 0d       	add	r22, r12
  f0:	7d 1d       	adc	r23, r13
  f2:	8e 1d       	adc	r24, r14
  f4:	9f 1d       	adc	r25, r15
  f6:	ff 90       	pop	r15
  f8:	ef 90       	pop	r14
  fa:	df 90       	pop	r13
  fc:	cf 90       	pop	r12
  fe:	08 95       	ret

Disassembly of section .text._Z3maplllll:

000001c8 <_Z3maplllll>:
 1c8:	4f 92       	push	r4
 1ca:	5f 92       	push	r5
 1cc:	6f 92       	push	r6
 1ce:	7f 92       	push	r7
 1d0:	af 92       	push	r10
 1d2:	bf 92       	push	r11
 1d4:	cf 92       	push	r12
 1d6:	df 92       	push	r13
 1d8:	ef 92       	push	r14
 1da:	ff 92       	push	r15
 1dc:	0f 93       	push	r16
 1de:	1f 93       	push	r17
 1e0:	cf 93       	push	r28
 1e2:	df 93       	push	r29
 1e4:	cd b7       	in	r28, 0x3d	; 61
 1e6:	de b7       	in	r29, 0x3e	; 62
 1e8:	29 01       	movw	r4, r18
 1ea:	3a 01       	movw	r6, r20
 1ec:	62 1b       	sub	r22, r18
 1ee:	73 0b       	sbc	r23, r19
 1f0:	84 0b       	sbc	r24, r20
 1f2:	95 0b       	sbc	r25, r21
 1f4:	29 89       	ldd	r18, Y+17	; 0x11
 1f6:	3a 89       	ldd	r19, Y+18	; 0x12
 1f8:	4b 89       	ldd	r20, Y+19	; 0x13
 1fa:	5c 89       	ldd	r21, Y+20	; 0x14
 1fc:	2a 19       	sub	r18, r10
 1fe:	3b 09       	sbc	r19, r11
 200:	4c 09       	sbc	r20, r12
 202:	5d 09       	sbc	r21, r13
 204:	29 8b       	std	Y+17, r18	; 0x11
 206:	3a 8b       	std	Y+18, r19	; 0x12
 208:	4b 8b       	std	Y+19, r20	; 0x13
 20a:	5c 8b       	std	Y+20, r21	; 0x14
 20c:	9b 01       	movw	r18, r22
 20e:	ac 01       	movw	r20, r24
 210:	69 89       	ldd	r22, Y+17	; 0x11
 212:	7a 89       	ldd	r23, Y+18	; 0x12
 214:	8b 89       	ldd	r24, Y+19	; 0x13
 216:	9c 89       	ldd	r25, Y+20	; 0x14
 218:	0e 94 00 00 	call	0	; 0x0 <__tmp_reg__>
 21c:	e4 18       	sub	r14, r4
 21e:	f5 08       	sbc	r15, r5
 220:	06 09       	sbc	r16, r6
 222:	17 09       	sbc	r17, r7
 224:	a8 01       	movw	r20, r16
 226:	97 01       	movw	r18, r14
 228:	0e 94 00 00 	call	0	; 0x0 <__tmp_reg__>
 22c:	2a 0d       	add	r18, r10
 22e:	3b 1d       	adc	r19, r11
 230:	4c 1d       	adc	r20, r12
 232:	5d 1d       	adc	r21, r13
 234:	ca 01       	movw	r24, r20
 236:	b9 01       	movw	r22, r18
 238:	df 91       	pop	r29
 23a:	cf 91       	pop	r28
 23c:	1f 91       	pop	r17
 23e:	0f 91       	pop	r16
 240:	ff 90       	pop	r15
 242:	ef 90       	pop	r14
 244:	df 90       	pop	r13
 246:	cf 90       	pop	r12
 248:	bf 90       	pop	r11
 24a:	af 90       	pop	r10
 24c:	7f 90       	pop	r7
 24e:	6f 90       	pop	r6
 250:	5f 90       	pop	r5
 252:	4f 90       	pop	r4
 254:	08 95       	ret

Disassembly of section .text._Z8makeWordj:

0000041e <_Z8makeWordj>:
 41e:	08 95       	ret

Disassembly of section .text._Z8makeWordhh:

0000083e <_Z8makeWordhh>:
 83e:	70 e0       	ldi	r23, 0x00	; 0
 840:	9b 01       	movw	r18, r22
 842:	38 2b       	or	r19, r24
 844:	c9 01       	movw	r24, r18
 846:	08 95       	ret

WString.o:     file format elf32-avr

Sections:
Idx Name          Size      VMA       LMA       File off  Algn
  0 .text         00000000  00000000  00000000  00000034  2**0
                  CONTENTS, ALLOC, LOAD, READONLY, CODE
  1 .data         00000134  00000000  00000000  00000034  2**0
                  CONTENTS, ALLOC, LOAD, DATA
  2 .bss          00000000  00000000  00000000  00000168  2**0
                  ALLOC
  3 .stab         00002acc  00000000  00000000  00000168  2**2
                  CONTENTS, RELOC, READONLY, DEBUGGING
  4 .stabstr      00002468  00000000  00000000  00002c34  2**0
                  CONTENTS, READONLY, DEBUGGING
  5 .text._ZN6StringD2Ev 0000000a  00000000  00000000  0000509c  2**0
                  CONTENTS, ALLOC, LOAD, RELOC, READONLY, CODE
  6 .text._ZN6String10invalidateEv 00000024  00000000  00000000  000050a6  2**0
                  CONTENTS, ALLOC, LOAD, RELOC, READONLY, CODE
  7 .text._ZN6String12changeBufferEj 00000034  00000000  00000000  000050ca  2**0
                  CONTENTS, ALLOC, LOAD, RELOC, READONLY, CODE
  8 .text._ZN6String7reserveEj 00000038  00000000  00000000  000050fe  2**0
                  CONTENTS, ALLOC, LOAD, RELOC, READONLY, CODE
  9 .text._ZN6String4copyEPKcj 00000042  00000000  00000000  00005136  2**0
                  CONTENTS, ALLOC, LOAD, RELOC, READONLY, CODE
 10 .text._ZN6StringC2EPKc 0000002c  00000000  00000000  00005178  2**0
                  CONTENTS, ALLOC, LOAD, RELOC, READONLY, CODE
 11 .text._ZN6String4copyEPK19__FlashStringHelperj 00000042  00000000  00000000  000051a4  2**0
                  CONTENTS, ALLOC, LOAD, RELOC, READONLY, CODE
 12 .text._ZN6StringaSERKS_ 0000002e  00000000  00000000  000051e6  2**0
                  CONTENTS, ALLOC, LOAD, RELOC, READONLY, CODE
 13 .text._ZN6StringC2ERKS_ 00000012  00000000  00000000  00005214  2**0
                  CONTENTS, ALLOC, LOAD, RELOC, READONLY, CODE
 14 .text._ZN6StringaSEPKc 00000030  00000000  00000000  00005226  2**0
                  CONTENTS, ALLOC, LOAD, RELOC, READONLY, CODE
 15 .text._ZN6StringC2Ec 00000030  00000000  00000000  00005256  2**0
                  CONTENTS, ALLOC, LOAD, RELOC, READONLY, CODE
 16 .text._ZN6StringC2Ehh 0000005a  00000000  00000000  00005286  2**0
                  CONTENTS, ALLOC, LOAD, RELOC, READONLY, CODE
 17 .text._ZN6StringC2Eih 00000058  00000000  00000000  000052e0  2**0
                  CONTENTS, ALLOC, LOAD, RELOC, READONLY, CODE
 18 .text._ZN6StringC2Ejh 00000058  00000000  00000000  00005338  2**0
                  CONTENTS, ALLOC, LOAD, RELOC, READONLY, CODE
 19 .text._ZN6StringC2Elh 0000005a  00000000  00000000  00005390  2**0
                  CONTENTS, ALLOC, LOAD, RELOC, READONLY, CODE
 20 .text._ZN6StringC2Emh 0000005a  00000000  00000000  000053ea  2**0
                  CONTENTS, ALLOC, LOAD, RELOC, READONLY, CODE
 21 .text._ZN6StringC2Efh 00000060  00000000  00000000  00005444  2**0
                  CONTENTS, ALLOC, LOAD, RELOC, READONLY, CODE
 22 .text._ZN6StringC2Edh 00000060  00000000  00000000  000054a4  2**0
                  CONTENTS, ALLOC, LOAD, RELOC, READONLY, CODE
 23 .text._ZN6StringaSEPK19__FlashStringHelper 00000042  00000000  00000000  00005504  2**0
                  CONTENTS, ALLOC, LOAD, RELOC, READONLY, CODE
 24 .text._ZN6StringC2EPK19__FlashStringHelper 00000012  00000000  00000000  00005546  2**0
                  CONTENTS, ALLOC, LOAD, RELOC, READONLY, CODE
 25 .text._ZN6String6concatEPKcj 00000058  00000000  00000000  00005558  2**0
                  CONTENTS, ALLOC, LOAD, RELOC, READONLY, CODE
 26 .text._ZN6String6concatERKS_ 0000000e  00000000  00000000  000055b0  2**0
                  CONTENTS, ALLOC, LOAD, RELOC, READONLY, CODE
 27 .text._ZN6String6concatEPKc 00000020  00000000  00000000  000055be  2**0
                  CONTENTS, ALLOC, LOAD, RELOC, READONLY, CODE
 28 .text._ZN6String6concatEc 00000026  00000000  00000000  000055de  2**0
                  CONTENTS, ALLOC, LOAD, RELOC, READONLY, CODE
 29 .text._ZN6String6concatEh 0000005a  00000000  00000000  00005604  2**0
                  CONTENTS, ALLOC, LOAD, RELOC, READONLY, CODE
 30 .text._ZN6String6concatEi 00000064  00000000  00000000  0000565e  2**0
                  CONTENTS, ALLOC, LOAD, RELOC, READONLY, CODE
 31 .text._ZN6String6concatEj 00000064  00000000  00000000  000056c2  2**0
                  CONTENTS, ALLOC, LOAD, RELOC, READONLY, CODE
 32 .text._ZN6String6concatEl 00000066  00000000  00000000  00005726  2**0
                  CONTENTS, ALLOC, LOAD, RELOC, READONLY, CODE
 33 .text._ZN6String6concatEm 00000066  00000000  00000000  0000578c  2**0
                  CONTENTS, ALLOC, LOAD, RELOC, READONLY, CODE
 34 .text._ZN6String6concatEf 00000064  00000000  00000000  000057f2  2**0
                  CONTENTS, ALLOC, LOAD, RELOC, READONLY, CODE
 35 .text._ZN6String6concatEd 00000064  00000000  00000000  00005856  2**0
                  CONTENTS, ALLOC, LOAD, RELOC, READONLY, CODE
 36 .text._ZN6String6concatEPK19__FlashStringHelper 0000005e  00000000  00000000  000058ba  2**0
                  CONTENTS, ALLOC, LOAD, RELOC, READONLY, CODE
 37 .text._ZplRK15StringSumHelperRK6String 00000026  00000000  00000000  00005918  2**0
                  CONTENTS, ALLOC, LOAD, RELOC, READONLY, CODE
 38 .text._ZplRK15StringSumHelperPKc 00000034  00000000  00000000  0000593e  2**0
                  CONTENTS, ALLOC, LOAD, RELOC, READONLY, CODE
 39 .text._ZplRK15StringSumHelperc 0000001c  00000000  00000000  00005972  2**0
                  CONTENTS, ALLOC, LOAD, RELOC, READONLY, CODE
 40 .text._ZplRK15StringSumHelperh 0000001c  00000000  00000000  0000598e  2**0
                  CONTENTS, ALLOC, LOAD, RELOC, READONLY, CODE
 41 .text._ZplRK15StringSumHelperi 0000001c  00000000  00000000  000059aa  2**0
                  CONTENTS, ALLOC, LOAD, RELOC, READONLY, CODE
 42 .text._ZplRK15StringSumHelperj 0000001c  00000000  00000000  000059c6  2**0
                  CONTENTS, ALLOC, LOAD, RELOC, READONLY, CODE
 43 .text._ZplRK15StringSumHelperl 0000001c  00000000  00000000  000059e2  2**0
                  CONTENTS, ALLOC, LOAD, RELOC, READONLY, CODE
 44 .text._ZplRK15StringSumHelperm 0000001c  00000000  00000000  000059fe  2**0
                  CONTENTS, ALLOC, LOAD, RELOC, READONLY, CODE
 45 .text._ZplRK15StringSumHelperf 0000001c  00000000  00000000  00005a1a  2**0
                  CONTENTS, ALLOC, LOAD, RELOC, READONLY, CODE
 46 .text._ZplRK15StringSumHelperd 0000001c  00000000  00000000  00005a36  2**0
                  CONTENTS, ALLOC, LOAD, RELOC, READONLY, CODE
 47 .text._ZplRK15StringSumHelperPK19__FlashStringHelper 0000001c  00000000  00000000  00005a52  2**0
                  CONTENTS, ALLOC, LOAD, RELOC, READONLY, CODE
 48 .text._ZNK6String9compareToERKS_ 00000060  00000000  00000000  00005a6e  2**0
                  CONTENTS, ALLOC, LOAD, RELOC, READONLY, CODE
 49 .text._ZNK6String6equalsERKS_ 00000026  00000000  00000000  00005ace  2**0
                  CONTENTS, ALLOC, LOAD, RELOC, READONLY, CODE
 50 .text._ZNK6String6equalsEPKc 0000003e  00000000  00000000  00005af4  2**0
                  CONTENTS, ALLOC, LOAD, RELOC, READONLY, CODE
 51 .text._ZNK6StringltERKS_ 0000000e  00000000  00000000  00005b32  2**0
                  CONTENTS, ALLOC, LOAD, RELOC, READONLY, CODE
 52 .text._ZNK6StringgtERKS_ 00000012  00000000  00000000  00005b40  2**0
                  CONTENTS, ALLOC, LOAD, RELOC, READONLY, CODE
 53 .text._ZNK6StringleERKS_ 00000012  00000000  00000000  00005b52  2**0
                  CONTENTS, ALLOC, LOAD, RELOC, READONLY, CODE
 54 .text._ZNK6StringgeERKS_ 00000010  00000000  00000000  00005b64  2**0
                  CONTENTS, ALLOC, LOAD, RELOC, READONLY, CODE
 55 .text._ZNK6String16equalsIgnoreCaseERKS_ 0000006a  00000000  00000000  00005b74  2**0
                  CONTENTS, ALLOC, LOAD, RELOC, READONLY, CODE
 56 .text._ZNK6String10startsWithERKS_j 00000048  00000000  00000000  00005bde  2**0
                  CONTENTS, ALLOC, LOAD, RELOC, READONLY, CODE
 57 .text._ZNK6String10startsWithERKS_ 0000001e  00000000  00000000  00005c26  2**0
                  CONTENTS, ALLOC, LOAD, RELOC, READONLY, CODE
 58 .text._ZNK6String8endsWithERKS_ 00000042  00000000  00000000  00005c44  2**0
                  CONTENTS, ALLOC, LOAD, RELOC, READONLY, CODE
 59 .text._ZN6String9setCharAtEjc 0000001c  00000000  00000000  00005c86  2**0
                  CONTENTS, ALLOC, LOAD, RELOC, READONLY, CODE
 60 .text._ZN6StringixEj 00000024  00000000  00000000  00005ca2  2**0
                  CONTENTS, ALLOC, LOAD, RELOC, READONLY, CODE
 61 .text._ZNK6StringixEj 00000022  00000000  00000000  00005cc6  2**0
                  CONTENTS, ALLOC, LOAD, RELOC, READONLY, CODE
 62 .text._ZNK6String6charAtEj 00000004  00000000  00000000  00005ce8  2**0
                  CONTENTS, ALLOC, LOAD, RELOC, READONLY, CODE
 63 .text._ZNK6String8getBytesEPhjj 00000054  00000000  00000000  00005cec  2**0
                  CONTENTS, ALLOC, LOAD, RELOC, READONLY, CODE
 64 .text._ZNK6String7indexOfEcj 00000034  00000000  00000000  00005d40  2**0
                  CONTENTS, ALLOC, LOAD, RELOC, READONLY, CODE
 65 .text._ZNK6String7indexOfEc 00000008  00000000  00000000  00005d74  2**0
                  CONTENTS, ALLOC, LOAD, RELOC, READONLY, CODE
 66 .text._ZNK6String7indexOfERKS_j 00000038  00000000  00000000  00005d7c  2**0
                  CONTENTS, ALLOC, LOAD, RELOC, READONLY, CODE
 67 .text._ZNK6String7indexOfERKS_ 00000008  00000000  00000000  00005db4  2**0
                  CONTENTS, ALLOC, LOAD, RELOC, READONLY, CODE
 68 .text._ZNK6String11lastIndexOfEcj 00000062  00000000  00000000  00005dbc  2**0
                  CONTENTS, ALLOC, LOAD, RELOC, READONLY, CODE
 69 .text._ZNK6String11lastIndexOfEc 0000000e  00000000  00000000  00005e1e  2**0
                  CONTENTS, ALLOC, LOAD, RELOC, READONLY, CODE
 70 .text._ZNK6String11lastIndexOfERKS_j 0000009c  00000000  00000000  00005e2c  2**0
                  CONTENTS, ALLOC, LOAD, RELOC, READONLY, CODE
 71 .text._ZNK6String11lastIndexOfERKS_ 00000014  00000000  00000000  00005ec8  2**0
                  CONTENTS, ALLOC, LOAD, RELOC, READONLY, CODE
 72 .rodata.str1.1 00000001  00000000  00000000  00005edc  2**0
                  CONTENTS, ALLOC, LOAD, READONLY, DATA
 73 .text._ZNK6String9substringEjj 0000008a  00000000  00000000  00005edd  2**0
                  CONTENTS, ALLOC, LOAD, RELOC, READONLY, CODE
 74 .text._ZN6String7replaceEcc 0000001c  00000000  00000000  00005f67  2**0
                  CONTENTS, ALLOC, LOAD, RELOC, READONLY, CODE
 75 .text._ZN6String7replaceERKS_S1_ 000001e6  00000000  00000000  00005f83  2**0
                  CONTENTS, ALLOC, LOAD, RELOC, READONLY, CODE
 76 .text._ZN6String6removeEjj 0000005c  00000000  00000000  00006169  2**0
                  CONTENTS, ALLOC, LOAD, RELOC, READONLY, CODE
 77 .text._ZN6String6removeEj 00000008  00000000  00000000  000061c5  2**0
                  CONTENTS, ALLOC, LOAD, RELOC, READONLY, CODE
 78 .text._ZN6String11toLowerCaseEv 00000024  00000000  00000000  000061cd  2**0
                  CONTENTS, ALLOC, LOAD, RELOC, READONLY, CODE
 79 .text._ZN6String11toUpperCaseEv 00000024  00000000  00000000  000061f1  2**0
                  CONTENTS, ALLOC, LOAD, RELOC, READONLY, CODE
 80 .text._ZN6String4trimEv 000000b4  00000000  00000000  00006215  2**0
                  CONTENTS, ALLOC, LOAD, RELOC, READONLY, CODE
 81 .text._ZNK6String5toIntEv 00000016  00000000  00000000  000062c9  2**0
                  CONTENTS, ALLOC, LOAD, RELOC, READONLY, CODE
 82 .text._ZNK6String7toFloatEv 00000016  00000000  00000000  000062df  2**0
                  CONTENTS, ALLOC, LOAD, RELOC, READONLY, CODE
 83 .bss._ZZN6StringixEjE19dummy_writable_char 00000001  00000000  00000000  000062f5  2**0
                  ALLOC
 84 .comment      00000012  00000000  00000000  000062f5  2**0
                  CONTENTS, READONLY

Disassembly of section .text._ZN6StringD2Ev:

00000000 <_ZN6StringD1Ev>:
	return 0;
}

float String::toFloat(void) const
{
	if (buffer) return float(atof(buffer));
   0:	fc 01       	movw	r30, r24
	return 0;
}
 136:	80 81       	Address 0x0000000000000136 is out of bounds.
.word	0xffff	; ????
 138:	91 81       	Address 0x0000000000000138 is out of bounds.
.word	0xffff	; ????
 13a:	0c 94       	Address 0x000000000000013a is out of bounds.
.word	0xffff	; ????
	...

Disassembly of section .text._ZN6String10invalidateEv:

00000272 <_ZN6String10invalidateEv>:
 272:	cf 93       	push	r28
 274:	df 93       	push	r29
 276:	ec 01       	movw	r28, r24
 278:	88 81       	ld	r24, Y
 27a:	99 81       	ldd	r25, Y+1	; 0x01
 27c:	00 97       	sbiw	r24, 0x00	; 0
 27e:	01 f0       	breq	.+0      	; 0x280 <_ZN6String10invalidateEv+0xe>
 280:	0e 94 00 00 	call	0	; 0x0 <__tmp_reg__>
 284:	19 82       	std	Y+1, r1	; 0x01
 286:	18 82       	st	Y, r1
 288:	1d 82       	std	Y+5, r1	; 0x05
 28a:	1c 82       	std	Y+4, r1	; 0x04
 28c:	1b 82       	std	Y+3, r1	; 0x03
 28e:	1a 82       	std	Y+2, r1	; 0x02
 290:	df 91       	pop	r29
 292:	cf 91       	pop	r28
 294:	08 95       	ret

Disassembly of section .text._ZN6String12changeBufferEj:

00000508 <_ZN6String12changeBufferEj>:
 508:	0f 93       	push	r16
 50a:	1f 93       	push	r17
 50c:	cf 93       	push	r28
 50e:	df 93       	push	r29
 510:	ec 01       	movw	r28, r24
 512:	8b 01       	movw	r16, r22
 514:	6f 5f       	subi	r22, 0xFF	; 255
 516:	7f 4f       	sbci	r23, 0xFF	; 255
 518:	88 81       	ld	r24, Y
 51a:	99 81       	ldd	r25, Y+1	; 0x01
 51c:	0e 94 00 00 	call	0	; 0x0 <__tmp_reg__>
 520:	00 97       	sbiw	r24, 0x00	; 0
 522:	01 f0       	breq	.+0      	; 0x524 <_ZN6String12changeBufferEj+0x1c>
 524:	99 83       	std	Y+1, r25	; 0x01
 526:	88 83       	st	Y, r24
 528:	1b 83       	std	Y+3, r17	; 0x03
 52a:	0a 83       	std	Y+2, r16	; 0x02
 52c:	81 e0       	ldi	r24, 0x01	; 1
 52e:	00 c0       	rjmp	.+0      	; 0x530 <_ZN6String12changeBufferEj+0x28>
 530:	80 e0       	ldi	r24, 0x00	; 0
 532:	df 91       	pop	r29
 534:	cf 91       	pop	r28
 536:	1f 91       	pop	r17
 538:	0f 91       	pop	r16
 53a:	08 95       	ret

Disassembly of section .text._ZN6String7reserveEj:

00000a44 <_ZN6String7reserveEj>:
 a44:	cf 93       	push	r28
 a46:	df 93       	push	r29
 a48:	ec 01       	movw	r28, r24
 a4a:	88 81       	ld	r24, Y
 a4c:	99 81       	ldd	r25, Y+1	; 0x01
 a4e:	89 2b       	or	r24, r25
 a50:	01 f0       	breq	.+0      	; 0xa52 <_ZN6String7reserveEj+0xe>
 a52:	8a 81       	ldd	r24, Y+2	; 0x02
 a54:	9b 81       	ldd	r25, Y+3	; 0x03
 a56:	86 17       	cp	r24, r22
 a58:	97 07       	cpc	r25, r23
 a5a:	00 f4       	brcc	.+0      	; 0xa5c <_ZN6String7reserveEj+0x18>
 a5c:	ce 01       	movw	r24, r28
 a5e:	0e 94 00 00 	call	0	; 0x0 <__tmp_reg__>
 a62:	88 23       	and	r24, r24
 a64:	01 f0       	breq	.+0      	; 0xa66 <_ZN6String7reserveEj+0x22>
 a66:	8c 81       	ldd	r24, Y+4	; 0x04
 a68:	9d 81       	ldd	r25, Y+5	; 0x05
 a6a:	89 2b       	or	r24, r25
 a6c:	01 f4       	brne	.+0      	; 0xa6e <_ZN6String7reserveEj+0x2a>
 a6e:	e8 81       	ld	r30, Y
 a70:	f9 81       	ldd	r31, Y+1	; 0x01
 a72:	10 82       	st	Z, r1
 a74:	81 e0       	ldi	r24, 0x01	; 1
 a76:	df 91       	pop	r29
 a78:	cf 91       	pop	r28
 a7a:	08 95       	ret

Disassembly of section .text._ZN6String4copyEPKcj:

000014c0 <_ZN6String4copyEPKcj>:
    14c0:	ef 92       	push	r14
    14c2:	ff 92       	push	r15
    14c4:	0f 93       	push	r16
    14c6:	1f 93       	push	r17
    14c8:	cf 93       	push	r28
    14ca:	df 93       	push	r29
    14cc:	ec 01       	movw	r28, r24
    14ce:	7b 01       	movw	r14, r22
    14d0:	8a 01       	movw	r16, r20
    14d2:	ba 01       	movw	r22, r20
    14d4:	0e 94 00 00 	call	0	; 0x0 <__tmp_reg__>
    14d8:	81 11       	cpse	r24, r1
    14da:	00 c0       	rjmp	.+0      	; 0x14dc <_ZN6String4copyEPKcj+0x1c>
    14dc:	ce 01       	movw	r24, r28
    14de:	0e 94 00 00 	call	0	; 0x0 <__tmp_reg__>
    14e2:	00 c0       	rjmp	.+0      	; 0x14e4 <_ZN6String4copyEPKcj+0x24>
    14e4:	1d 83       	std	Y+5, r17	; 0x05
    14e6:	0c 83       	std	Y+4, r16	; 0x04
    14e8:	b7 01       	movw	r22, r14
    14ea:	88 81       	ld	r24, Y
    14ec:	99 81       	ldd	r25, Y+1	; 0x01
    14ee:	0e 94 00 00 	call	0	; 0x0 <__tmp_reg__>
    14f2:	ce 01       	movw	r24, r28
    14f4:	df 91       	pop	r29
    14f6:	cf 91       	pop	r28
    14f8:	1f 91       	pop	r17
    14fa:	0f 91       	pop	r16
    14fc:	ff 90       	pop	r15
    14fe:	ef 90       	pop	r14
    1500:	08 95       	ret

Disassembly of section .text._ZN6StringC2EPKc:

000029c2 <_ZN6StringC1EPKc>:
    29c2:	fc 01       	movw	r30, r24
    29c4:	11 82       	std	Z+1, r1	; 0x01
    29c6:	10 82       	st	Z, r1
    29c8:	13 82       	std	Z+3, r1	; 0x03
    29ca:	12 82       	std	Z+2, r1	; 0x02
    29cc:	15 82       	std	Z+5, r1	; 0x05
    29ce:	14 82       	std	Z+4, r1	; 0x04
    29d0:	61 15       	cp	r22, r1
    29d2:	71 05       	cpc	r23, r1
    29d4:	01 f0       	breq	.+0      	; 0x29d6 <_ZN6StringC1EPKc+0x14>
    29d6:	fb 01       	movw	r30, r22
    29d8:	01 90       	ld	r0, Z+
    29da:	00 20       	and	r0, r0
    29dc:	01 f4       	brne	.+0      	; 0x29de <_ZN6StringC1EPKc+0x1c>
    29de:	af 01       	movw	r20, r30
    29e0:	41 50       	subi	r20, 0x01	; 1
    29e2:	51 09       	sbc	r21, r1
    29e4:	46 1b       	sub	r20, r22
    29e6:	57 0b       	sbc	r21, r23
    29e8:	0c 94 00 00 	jmp	0	; 0x0 <__tmp_reg__>
    29ec:	08 95       	ret

Disassembly of section .text._ZN6String4copyEPK19__FlashStringHelperj:

000053b0 <_ZN6String4copyEPK19__FlashStringHelperj>:
    53b0:	ef 92       	push	r14
    53b2:	ff 92       	push	r15
    53b4:	0f 93       	push	r16
    53b6:	1f 93       	push	r17
    53b8:	cf 93       	push	r28
    53ba:	df 93       	push	r29
    53bc:	ec 01       	movw	r28, r24
    53be:	7b 01       	movw	r14, r22
    53c0:	8a 01       	movw	r16, r20
    53c2:	ba 01       	movw	r22, r20
    53c4:	0e 94 00 00 	call	0	; 0x0 <__tmp_reg__>
    53c8:	81 11       	cpse	r24, r1
    53ca:	00 c0       	rjmp	.+0      	; 0x53cc <_ZN6String4copyEPK19__FlashStringHelperj+0x1c>
    53cc:	ce 01       	movw	r24, r28
    53ce:	0e 94 00 00 	call	0	; 0x0 <__tmp_reg__>
    53d2:	00 c0       	rjmp	.+0      	; 0x53d4 <_ZN6String4copyEPK19__FlashStringHelperj+0x24>
    53d4:	1d 83       	std	Y+5, r17	; 0x05
    53d6:	0c 83       	std	Y+4, r16	; 0x04
    53d8:	b7 01       	movw	r22, r14
    53da:	88 81       	ld	r24, Y
    53dc:	99 81       	ldd	r25, Y+1	; 0x01
    53de:	0e 94 00 00 	call	0	; 0x0 <__tmp_reg__>
    53e2:	ce 01       	movw	r24, r28
    53e4:	df 91       	pop	r29
    53e6:	cf 91       	pop	r28
    53e8:	1f 91       	pop	r17
    53ea:	0f 91       	pop	r16
    53ec:	ff 90       	pop	r15
    53ee:	ef 90       	pop	r14
    53f0:	08 95       	ret

Disassembly of section .text._ZN6StringaSERKS_:

0000a7a2 <_ZN6StringaSERKS_>:
    a7a2:	cf 93       	push	r28
    a7a4:	df 93       	push	r29
    a7a6:	ec 01       	movw	r28, r24
    a7a8:	fb 01       	movw	r30, r22
    a7aa:	86 17       	cp	r24, r22
    a7ac:	97 07       	cpc	r25, r23
    a7ae:	01 f0       	breq	.+0      	; 0xa7b0 <_ZN6StringaSERKS_+0xe>
    a7b0:	60 81       	ld	r22, Z
    a7b2:	71 81       	ldd	r23, Z+1	; 0x01
    a7b4:	61 15       	cp	r22, r1
    a7b6:	71 05       	cpc	r23, r1
    a7b8:	01 f0       	breq	.+0      	; 0xa7ba <_ZN6StringaSERKS_+0x18>
    a7ba:	44 81       	ldd	r20, Z+4	; 0x04
    a7bc:	55 81       	ldd	r21, Z+5	; 0x05
    a7be:	0e 94 00 00 	call	0	; 0x0 <__tmp_reg__>
    a7c2:	00 c0       	rjmp	.+0      	; 0xa7c4 <_ZN6StringaSERKS_+0x22>
    a7c4:	0e 94 00 00 	call	0	; 0x0 <__tmp_reg__>
    a7c8:	ce 01       	movw	r24, r28
    a7ca:	df 91       	pop	r29
    a7cc:	cf 91       	pop	r28
    a7ce:	08 95       	ret

Disassembly of section .text._ZN6StringC2ERKS_:

00014f72 <_ZN6StringC1ERKS_>:
   14f72:	fc 01       	movw	r30, r24
   14f74:	11 82       	std	Z+1, r1	; 0x01
   14f76:	10 82       	st	Z, r1
   14f78:	13 82       	std	Z+3, r1	; 0x03
   14f7a:	12 82       	std	Z+2, r1	; 0x02
   14f7c:	15 82       	std	Z+5, r1	; 0x05
   14f7e:	14 82       	std	Z+4, r1	; 0x04
   14f80:	0c 94 00 00 	jmp	0	; 0x0 <__tmp_reg__>

Disassembly of section .text._ZN6StringaSEPKc:

00029ef6 <_ZN6StringaSEPKc>:
   29ef6:	cf 93       	push	r28
   29ef8:	df 93       	push	r29
   29efa:	ec 01       	movw	r28, r24
   29efc:	61 15       	cp	r22, r1
   29efe:	71 05       	cpc	r23, r1
   29f00:	01 f0       	breq	.+0      	; 0x29f02 <_ZN6StringaSEPKc+0xc>
   29f02:	fb 01       	movw	r30, r22
   29f04:	01 90       	ld	r0, Z+
   29f06:	00 20       	and	r0, r0
   29f08:	01 f4       	brne	.+0      	; 0x29f0a <_ZN6StringaSEPKc+0x14>
   29f0a:	af 01       	movw	r20, r30
   29f0c:	41 50       	subi	r20, 0x01	; 1
   29f0e:	51 09       	sbc	r21, r1
   29f10:	46 1b       	sub	r20, r22
   29f12:	57 0b       	sbc	r21, r23
   29f14:	0e 94 00 00 	call	0	; 0x0 <__tmp_reg__>
   29f18:	00 c0       	rjmp	.+0      	; 0x29f1a <_ZN6StringaSEPKc+0x24>
   29f1a:	0e 94 00 00 	call	0	; 0x0 <__tmp_reg__>
   29f1e:	ce 01       	movw	r24, r28
   29f20:	df 91       	pop	r29
   29f22:	cf 91       	pop	r28
   29f24:	08 95       	ret

Disassembly of section .text._ZN6StringC2Ec:

00053e1c <_ZN6StringC1Ec>:
   53e1c:	cf 93       	push	r28
   53e1e:	df 93       	push	r29
   53e20:	00 d0       	rcall	.+0      	; 0x53e22 <_ZN6StringC1Ec+0x6>
   53e22:	cd b7       	in	r28, 0x3d	; 61
   53e24:	de b7       	in	r29, 0x3e	; 62
   53e26:	fc 01       	movw	r30, r24
   53e28:	11 82       	std	Z+1, r1	; 0x01
   53e2a:	10 82       	st	Z, r1
   53e2c:	13 82       	std	Z+3, r1	; 0x03
   53e2e:	12 82       	std	Z+2, r1	; 0x02
   53e30:	15 82       	std	Z+5, r1	; 0x05
   53e32:	14 82       	std	Z+4, r1	; 0x04
   53e34:	69 83       	std	Y+1, r22	; 0x01
   53e36:	1a 82       	std	Y+2, r1	; 0x02
   53e38:	be 01       	movw	r22, r28
   53e3a:	6f 5f       	subi	r22, 0xFF	; 255
   53e3c:	7f 4f       	sbci	r23, 0xFF	; 255
   53e3e:	0e 94 00 00 	call	0	; 0x0 <__tmp_reg__>
   53e42:	0f 90       	pop	r0
   53e44:	0f 90       	pop	r0
   53e46:	df 91       	pop	r29
   53e48:	cf 91       	pop	r28
   53e4a:	08 95       	ret

Disassembly of section .text._ZN6StringC2Ehh:

000a7c68 <_ZN6StringC1Ehh>:
   a7c68:	0f 93       	push	r16
   a7c6a:	1f 93       	push	r17
   a7c6c:	cf 93       	push	r28
   a7c6e:	df 93       	push	r29
   a7c70:	cd b7       	in	r28, 0x3d	; 61
   a7c72:	de b7       	in	r29, 0x3e	; 62
   a7c74:	29 97       	sbiw	r28, 0x09	; 9
   a7c76:	0f b6       	in	r0, 0x3f	; 63
   a7c78:	f8 94       	cli
   a7c7a:	de bf       	out	0x3e, r29	; 62
   a7c7c:	0f be       	out	0x3f, r0	; 63
   a7c7e:	cd bf       	out	0x3d, r28	; 61
   a7c80:	8c 01       	movw	r16, r24
   a7c82:	86 2f       	mov	r24, r22
   a7c84:	f8 01       	movw	r30, r16
   a7c86:	11 82       	std	Z+1, r1	; 0x01
   a7c88:	10 82       	st	Z, r1
   a7c8a:	13 82       	std	Z+3, r1	; 0x03
   a7c8c:	12 82       	std	Z+2, r1	; 0x02
   a7c8e:	15 82       	std	Z+5, r1	; 0x05
   a7c90:	14 82       	std	Z+4, r1	; 0x04
   a7c92:	50 e0       	ldi	r21, 0x00	; 0
   a7c94:	be 01       	movw	r22, r28
   a7c96:	6f 5f       	subi	r22, 0xFF	; 255
   a7c98:	7f 4f       	sbci	r23, 0xFF	; 255
   a7c9a:	90 e0       	ldi	r25, 0x00	; 0
   a7c9c:	0e 94 00 00 	call	0	; 0x0 <__tmp_reg__>
   a7ca0:	be 01       	movw	r22, r28
   a7ca2:	6f 5f       	subi	r22, 0xFF	; 255
   a7ca4:	7f 4f       	sbci	r23, 0xFF	; 255
   a7ca6:	c8 01       	movw	r24, r16
   a7ca8:	0e 94 00 00 	call	0	; 0x0 <__tmp_reg__>
   a7cac:	29 96       	adiw	r28, 0x09	; 9
   a7cae:	0f b6       	in	r0, 0x3f	; 63
   a7cb0:	f8 94       	cli
   a7cb2:	de bf       	out	0x3e, r29	; 62
   a7cb4:	0f be       	out	0x3f, r0	; 63
   a7cb6:	cd bf       	out	0x3d, r28	; 61
   a7cb8:	df 91       	pop	r29
   a7cba:	cf 91       	pop	r28
   a7cbc:	1f 91       	pop	r17
   a7cbe:	0f 91       	pop	r16
   a7cc0:	08 95       	ret

Disassembly of section .text._ZN6StringC2Eih:

0014f92a <_ZN6StringC1Eih>:
  14f92a:	0f 93       	push	r16
  14f92c:	1f 93       	push	r17
  14f92e:	cf 93       	push	r28
  14f930:	df 93       	push	r29
  14f932:	cd b7       	in	r28, 0x3d	; 61
  14f934:	de b7       	in	r29, 0x3e	; 62
  14f936:	62 97       	sbiw	r28, 0x12	; 18
  14f938:	0f b6       	in	r0, 0x3f	; 63
  14f93a:	f8 94       	cli
  14f93c:	de bf       	out	0x3e, r29	; 62
  14f93e:	0f be       	out	0x3f, r0	; 63
  14f940:	cd bf       	out	0x3d, r28	; 61
  14f942:	8c 01       	movw	r16, r24
  14f944:	cb 01       	movw	r24, r22
  14f946:	f8 01       	movw	r30, r16
  14f948:	11 82       	std	Z+1, r1	; 0x01
  14f94a:	10 82       	st	Z, r1
  14f94c:	13 82       	std	Z+3, r1	; 0x03
  14f94e:	12 82       	std	Z+2, r1	; 0x02
  14f950:	15 82       	std	Z+5, r1	; 0x05
  14f952:	14 82       	std	Z+4, r1	; 0x04
  14f954:	50 e0       	ldi	r21, 0x00	; 0
  14f956:	be 01       	movw	r22, r28
  14f958:	6f 5f       	subi	r22, 0xFF	; 255
  14f95a:	7f 4f       	sbci	r23, 0xFF	; 255
  14f95c:	0e 94 00 00 	call	0	; 0x0 <__tmp_reg__>
  14f960:	be 01       	movw	r22, r28
  14f962:	6f 5f       	subi	r22, 0xFF	; 255
  14f964:	7f 4f       	sbci	r23, 0xFF	; 255
  14f966:	c8 01       	movw	r24, r16
  14f968:	0e 94 00 00 	call	0	; 0x0 <__tmp_reg__>
  14f96c:	62 96       	adiw	r28, 0x12	; 18
  14f96e:	0f b6       	in	r0, 0x3f	; 63
  14f970:	f8 94       	cli
  14f972:	de bf       	out	0x3e, r29	; 62
  14f974:	0f be       	out	0x3f, r0	; 63
  14f976:	cd bf       	out	0x3d, r28	; 61
  14f978:	df 91       	pop	r29
  14f97a:	cf 91       	pop	r28
  14f97c:	1f 91       	pop	r17
  14f97e:	0f 91       	pop	r16
  14f980:	08 95       	ret

Disassembly of section .text._ZN6StringC2Ejh:

0029f2ac <_ZN6StringC1Ejh>:
  29f2ac:	0f 93       	push	r16
  29f2ae:	1f 93       	push	r17
  29f2b0:	cf 93       	push	r28
  29f2b2:	df 93       	push	r29
  29f2b4:	cd b7       	in	r28, 0x3d	; 61
  29f2b6:	de b7       	in	r29, 0x3e	; 62
  29f2b8:	61 97       	sbiw	r28, 0x11	; 17
  29f2ba:	0f b6       	in	r0, 0x3f	; 63
  29f2bc:	f8 94       	cli
  29f2be:	de bf       	out	0x3e, r29	; 62
  29f2c0:	0f be       	out	0x3f, r0	; 63
  29f2c2:	cd bf       	out	0x3d, r28	; 61
  29f2c4:	8c 01       	movw	r16, r24
  29f2c6:	cb 01       	movw	r24, r22
  29f2c8:	f8 01       	movw	r30, r16
  29f2ca:	11 82       	std	Z+1, r1	; 0x01
  29f2cc:	10 82       	st	Z, r1
  29f2ce:	13 82       	std	Z+3, r1	; 0x03
  29f2d0:	12 82       	std	Z+2, r1	; 0x02
  29f2d2:	15 82       	std	Z+5, r1	; 0x05
  29f2d4:	14 82       	std	Z+4, r1	; 0x04
  29f2d6:	50 e0       	ldi	r21, 0x00	; 0
  29f2d8:	be 01       	movw	r22, r28
  29f2da:	6f 5f       	subi	r22, 0xFF	; 255
  29f2dc:	7f 4f       	sbci	r23, 0xFF	; 255
  29f2de:	0e 94 00 00 	call	0	; 0x0 <__tmp_reg__>
  29f2e2:	be 01       	movw	r22, r28
  29f2e4:	6f 5f       	subi	r22, 0xFF	; 255
  29f2e6:	7f 4f       	sbci	r23, 0xFF	; 255
  29f2e8:	c8 01       	movw	r24, r16
  29f2ea:	0e 94 00 00 	call	0	; 0x0 <__tmp_reg__>
  29f2ee:	61 96       	adiw	r28, 0x11	; 17
  29f2f0:	0f b6       	in	r0, 0x3f	; 63
  29f2f2:	f8 94       	cli
  29f2f4:	de bf       	out	0x3e, r29	; 62
  29f2f6:	0f be       	out	0x3f, r0	; 63
  29f2f8:	cd bf       	out	0x3d, r28	; 61
  29f2fa:	df 91       	pop	r29
  29f2fc:	cf 91       	pop	r28
  29f2fe:	1f 91       	pop	r17
  29f300:	0f 91       	pop	r16
  29f302:	08 95       	ret

Disassembly of section .text._ZN6StringC2Elh:

0053e5b0 <_ZN6StringC1Elh>:
  53e5b0:	0f 93       	push	r16
  53e5b2:	1f 93       	push	r17
  53e5b4:	cf 93       	push	r28
  53e5b6:	df 93       	push	r29
  53e5b8:	cd b7       	in	r28, 0x3d	; 61
  53e5ba:	de b7       	in	r29, 0x3e	; 62
  53e5bc:	a2 97       	sbiw	r28, 0x22	; 34
  53e5be:	0f b6       	in	r0, 0x3f	; 63
  53e5c0:	f8 94       	cli
  53e5c2:	de bf       	out	0x3e, r29	; 62
  53e5c4:	0f be       	out	0x3f, r0	; 63
  53e5c6:	cd bf       	out	0x3d, r28	; 61
  53e5c8:	8c 01       	movw	r16, r24
  53e5ca:	cb 01       	movw	r24, r22
  53e5cc:	ba 01       	movw	r22, r20
  53e5ce:	f8 01       	movw	r30, r16
  53e5d0:	11 82       	std	Z+1, r1	; 0x01
  53e5d2:	10 82       	st	Z, r1
  53e5d4:	13 82       	std	Z+3, r1	; 0x03
  53e5d6:	12 82       	std	Z+2, r1	; 0x02
  53e5d8:	15 82       	std	Z+5, r1	; 0x05
  53e5da:	14 82       	std	Z+4, r1	; 0x04
  53e5dc:	30 e0       	ldi	r19, 0x00	; 0
  53e5de:	ae 01       	movw	r20, r28
  53e5e0:	4f 5f       	subi	r20, 0xFF	; 255
  53e5e2:	5f 4f       	sbci	r21, 0xFF	; 255
  53e5e4:	0e 94 00 00 	call	0	; 0x0 <__tmp_reg__>
  53e5e8:	be 01       	movw	r22, r28
  53e5ea:	6f 5f       	subi	r22, 0xFF	; 255
  53e5ec:	7f 4f       	sbci	r23, 0xFF	; 255
  53e5ee:	c8 01       	movw	r24, r16
  53e5f0:	0e 94 00 00 	call	0	; 0x0 <__tmp_reg__>
  53e5f4:	a2 96       	adiw	r28, 0x22	; 34
  53e5f6:	0f b6       	in	r0, 0x3f	; 63
  53e5f8:	f8 94       	cli
  53e5fa:	de bf       	out	0x3e, r29	; 62
  53e5fc:	0f be       	out	0x3f, r0	; 63
  53e5fe:	cd bf       	out	0x3d, r28	; 61
  53e600:	df 91       	pop	r29
  53e602:	cf 91       	pop	r28
  53e604:	1f 91       	pop	r17
  53e606:	0f 91       	pop	r16
  53e608:	08 95       	ret

Disassembly of section .text._ZN6StringC2Emh:

00a7cbba <_ZN6StringC1Emh>:
  a7cbba:	0f 93       	push	r16
  a7cbbc:	1f 93       	push	r17
  a7cbbe:	cf 93       	push	r28
  a7cbc0:	df 93       	push	r29
  a7cbc2:	cd b7       	in	r28, 0x3d	; 61
  a7cbc4:	de b7       	in	r29, 0x3e	; 62
  a7cbc6:	a1 97       	sbiw	r28, 0x21	; 33
  a7cbc8:	0f b6       	in	r0, 0x3f	; 63
  a7cbca:	f8 94       	cli
  a7cbcc:	de bf       	out	0x3e, r29	; 62
  a7cbce:	0f be       	out	0x3f, r0	; 63
  a7cbd0:	cd bf       	out	0x3d, r28	; 61
  a7cbd2:	8c 01       	movw	r16, r24
  a7cbd4:	cb 01       	movw	r24, r22
  a7cbd6:	ba 01       	movw	r22, r20
  a7cbd8:	f8 01       	movw	r30, r16
  a7cbda:	11 82       	std	Z+1, r1	; 0x01
  a7cbdc:	10 82       	st	Z, r1
  a7cbde:	13 82       	std	Z+3, r1	; 0x03
  a7cbe0:	12 82       	std	Z+2, r1	; 0x02
  a7cbe2:	15 82       	std	Z+5, r1	; 0x05
  a7cbe4:	14 82       	std	Z+4, r1	; 0x04
  a7cbe6:	30 e0       	ldi	r19, 0x00	; 0
  a7cbe8:	ae 01       	movw	r20, r28
  a7cbea:	4f 5f       	subi	r20, 0xFF	; 255
  a7cbec:	5f 4f       	sbci	r21, 0xFF	; 255
  a7cbee:	0e 94 00 00 	call	0	; 0x0 <__tmp_reg__>
  a7cbf2:	be 01       	movw	r22, r28
  a7cbf4:	6f 5f       	subi	r22, 0xFF	; 255
  a7cbf6:	7f 4f       	sbci	r23, 0xFF	; 255
  a7cbf8:	c8 01       	movw	r24, r16
  a7cbfa:	0e 94 00 00 	call	0	; 0x0 <__tmp_reg__>
  a7cbfe:	a1 96       	adiw	r28, 0x21	; 33
  a7cc00:	0f b6       	in	r0, 0x3f	; 63
  a7cc02:	f8 94       	cli
  a7cc04:	de bf       	out	0x3e, r29	; 62
  a7cc06:	0f be       	out	0x3f, r0	; 63
  a7cc08:	cd bf       	out	0x3d, r28	; 61
  a7cc0a:	df 91       	pop	r29
  a7cc0c:	cf 91       	pop	r28
  a7cc0e:	1f 91       	pop	r17
  a7cc10:	0f 91       	pop	r16
  a7cc12:	08 95       	ret

Disassembly of section .text._ZN6StringC2Efh:

014f97ce <_ZN6StringC1Efh>:
 14f97ce:	ef 92       	push	r14
 14f97d0:	ff 92       	push	r15
 14f97d2:	0f 93       	push	r16
 14f97d4:	1f 93       	push	r17
 14f97d6:	cf 93       	push	r28
 14f97d8:	df 93       	push	r29
 14f97da:	cd b7       	in	r28, 0x3d	; 61
 14f97dc:	de b7       	in	r29, 0x3e	; 62
 14f97de:	a1 97       	sbiw	r28, 0x21	; 33
 14f97e0:	0f b6       	in	r0, 0x3f	; 63
 14f97e2:	f8 94       	cli
 14f97e4:	de bf       	out	0x3e, r29	; 62
 14f97e6:	0f be       	out	0x3f, r0	; 63
 14f97e8:	cd bf       	out	0x3d, r28	; 61
 14f97ea:	7c 01       	movw	r14, r24
 14f97ec:	cb 01       	movw	r24, r22
 14f97ee:	ba 01       	movw	r22, r20
 14f97f0:	f7 01       	movw	r30, r14
 14f97f2:	11 82       	std	Z+1, r1	; 0x01
 14f97f4:	10 82       	st	Z, r1
 14f97f6:	13 82       	std	Z+3, r1	; 0x03
 14f97f8:	12 82       	std	Z+2, r1	; 0x02
 14f97fa:	15 82       	std	Z+5, r1	; 0x05
 14f97fc:	14 82       	std	Z+4, r1	; 0x04
 14f97fe:	42 e0       	ldi	r20, 0x02	; 2
 14f9800:	42 0f       	add	r20, r18
 14f9802:	8e 01       	movw	r16, r28
 14f9804:	0f 5f       	subi	r16, 0xFF	; 255
 14f9806:	1f 4f       	sbci	r17, 0xFF	; 255
 14f9808:	0e 94 00 00 	call	0	; 0x0 <__tmp_reg__>
 14f980c:	bc 01       	movw	r22, r24
 14f980e:	c7 01       	movw	r24, r14
 14f9810:	0e 94 00 00 	call	0	; 0x0 <__tmp_reg__>
 14f9814:	a1 96       	adiw	r28, 0x21	; 33
 14f9816:	0f b6       	in	r0, 0x3f	; 63
 14f9818:	f8 94       	cli
 14f981a:	de bf       	out	0x3e, r29	; 62
 14f981c:	0f be       	out	0x3f, r0	; 63
 14f981e:	cd bf       	out	0x3d, r28	; 61
 14f9820:	df 91       	pop	r29
 14f9822:	cf 91       	pop	r28
 14f9824:	1f 91       	pop	r17
 14f9826:	0f 91       	pop	r16
 14f9828:	ff 90       	pop	r15
 14f982a:	ef 90       	pop	r14
 14f982c:	08 95       	ret

Disassembly of section .text._ZN6StringC2Edh:

029f2ffc <_ZN6StringC1Edh>:
 29f2ffc:	ef 92       	push	r14
 29f2ffe:	ff 92       	push	r15
 29f3000:	0f 93       	push	r16
 29f3002:	1f 93       	push	r17
 29f3004:	cf 93       	push	r28
 29f3006:	df 93       	push	r29
 29f3008:	cd b7       	in	r28, 0x3d	; 61
 29f300a:	de b7       	in	r29, 0x3e	; 62
 29f300c:	a1 97       	sbiw	r28, 0x21	; 33
 29f300e:	0f b6       	in	r0, 0x3f	; 63
 29f3010:	f8 94       	cli
 29f3012:	de bf       	out	0x3e, r29	; 62
 29f3014:	0f be       	out	0x3f, r0	; 63
 29f3016:	cd bf       	out	0x3d, r28	; 61
 29f3018:	7c 01       	movw	r14, r24
 29f301a:	cb 01       	movw	r24, r22
 29f301c:	ba 01       	movw	r22, r20
 29f301e:	f7 01       	movw	r30, r14
 29f3020:	11 82       	std	Z+1, r1	; 0x01
 29f3022:	10 82       	st	Z, r1
 29f3024:	13 82       	std	Z+3, r1	; 0x03
 29f3026:	12 82       	std	Z+2, r1	; 0x02
 29f3028:	15 82       	std	Z+5, r1	; 0x05
 29f302a:	14 82       	std	Z+4, r1	; 0x04
 29f302c:	42 e0       	ldi	r20, 0x02	; 2
 29f302e:	42 0f       	add	r20, r18
 29f3030:	8e 01       	movw	r16, r28
 29f3032:	0f 5f       	subi	r16, 0xFF	; 255
 29f3034:	1f 4f       	sbci	r17, 0xFF	; 255
 29f3036:	0e 94 00 00 	call	0	; 0x0 <__tmp_reg__>
 29f303a:	bc 01       	movw	r22, r24
 29f303c:	c7 01       	movw	r24, r14
 29f303e:	0e 94 00 00 	call	0	; 0x0 <__tmp_reg__>
 29f3042:	a1 96       	adiw	r28, 0x21	; 33
 29f3044:	0f b6       	in	r0, 0x3f	; 63
 29f3046:	f8 94       	cli
 29f3048:	de bf       	out	0x3e, r29	; 62
 29f304a:	0f be       	out	0x3f, r0	; 63
 29f304c:	cd bf       	out	0x3d, r28	; 61
 29f304e:	df 91       	pop	r29
 29f3050:	cf 91       	pop	r28
 29f3052:	1f 91       	pop	r17
 29f3054:	0f 91       	pop	r16
 29f3056:	ff 90       	pop	r15
 29f3058:	ef 90       	pop	r14
 29f305a:	08 95       	ret

Disassembly of section .text._ZN6StringaSEPK19__FlashStringHelper:

053e6058 <_ZN6StringaSEPK19__FlashStringHelper>:
 53e6058:	0f 93       	push	r16
 53e605a:	1f 93       	push	r17
 53e605c:	cf 93       	push	r28
 53e605e:	df 93       	push	r29
 53e6060:	00 d0       	rcall	.+0      	; 0x53e6062 <_ZN6StringaSEPK19__FlashStringHelper+0xa>
 53e6062:	cd b7       	in	r28, 0x3d	; 61
 53e6064:	de b7       	in	r29, 0x3e	; 62
 53e6066:	8c 01       	movw	r16, r24
 53e6068:	61 15       	cp	r22, r1
 53e606a:	71 05       	cpc	r23, r1
 53e606c:	01 f0       	breq	.+0      	; 0x53e606e <_ZN6StringaSEPK19__FlashStringHelper+0x16>
 53e606e:	cb 01       	movw	r24, r22
 53e6070:	69 83       	std	Y+1, r22	; 0x01
 53e6072:	7a 83       	std	Y+2, r23	; 0x02
 53e6074:	0e 94 00 00 	call	0	; 0x0 <__tmp_reg__>
 53e6078:	ac 01       	movw	r20, r24
 53e607a:	69 81       	ldd	r22, Y+1	; 0x01
 53e607c:	7a 81       	ldd	r23, Y+2	; 0x02
 53e607e:	c8 01       	movw	r24, r16
 53e6080:	0e 94 00 00 	call	0	; 0x0 <__tmp_reg__>
 53e6084:	00 c0       	rjmp	.+0      	; 0x53e6086 <_ZN6StringaSEPK19__FlashStringHelper+0x2e>
 53e6086:	0e 94 00 00 	call	0	; 0x0 <__tmp_reg__>
 53e608a:	c8 01       	movw	r24, r16
 53e608c:	0f 90       	pop	r0
 53e608e:	0f 90       	pop	r0
 53e6090:	df 91       	pop	r29
 53e6092:	cf 91       	pop	r28
 53e6094:	1f 91       	pop	r17
 53e6096:	0f 91       	pop	r16
 53e6098:	08 95       	ret

Disassembly of section .text._ZN6StringC2EPK19__FlashStringHelper:

0a7cc0f2 <_ZN6StringC1EPK19__FlashStringHelper>:
 a7cc0f2:	fc 01       	movw	r30, r24
 a7cc0f4:	11 82       	std	Z+1, r1	; 0x01
 a7cc0f6:	10 82       	st	Z, r1
 a7cc0f8:	13 82       	std	Z+3, r1	; 0x03
 a7cc0fa:	12 82       	std	Z+2, r1	; 0x02
 a7cc0fc:	15 82       	std	Z+5, r1	; 0x05
 a7cc0fe:	14 82       	std	Z+4, r1	; 0x04
 a7cc100:	0c 94 00 00 	jmp	0	; 0x0 <__tmp_reg__>

Disassembly of section .text._ZN6String6concatEPKcj:

14f981f6 <_ZN6String6concatEPKcj>:
14f981f6:	ef 92       	push	r14
14f981f8:	ff 92       	push	r15
14f981fa:	0f 93       	push	r16
14f981fc:	1f 93       	push	r17
14f981fe:	cf 93       	push	r28
14f98200:	df 93       	push	r29
14f98202:	ec 01       	movw	r28, r24
14f98204:	7b 01       	movw	r14, r22
14f98206:	0c 81       	ldd	r16, Y+4	; 0x04
14f98208:	1d 81       	ldd	r17, Y+5	; 0x05
14f9820a:	61 15       	cp	r22, r1
14f9820c:	71 05       	cpc	r23, r1
14f9820e:	01 f4       	brne	.+0      	; 0x14f98210 <_ZN6String6concatEPKcj+0x1a>
14f98210:	80 e0       	ldi	r24, 0x00	; 0
14f98212:	00 c0       	rjmp	.+0      	; 0x14f98214 <_ZN6String6concatEPKcj+0x1e>
14f98214:	41 15       	cp	r20, r1
14f98216:	51 05       	cpc	r21, r1
14f98218:	01 f0       	breq	.+0      	; 0x14f9821a <_ZN6String6concatEPKcj+0x24>
14f9821a:	04 0f       	add	r16, r20
14f9821c:	15 1f       	adc	r17, r21
14f9821e:	b8 01       	movw	r22, r16
14f98220:	0e 94 00 00 	call	0	; 0x0 <__tmp_reg__>
14f98224:	88 23       	and	r24, r24
14f98226:	01 f0       	breq	.+0      	; 0x14f98228 <_ZN6String6concatEPKcj+0x32>
14f98228:	28 81       	ld	r18, Y
14f9822a:	39 81       	ldd	r19, Y+1	; 0x01
14f9822c:	8c 81       	ldd	r24, Y+4	; 0x04
14f9822e:	9d 81       	ldd	r25, Y+5	; 0x05
14f98230:	b7 01       	movw	r22, r14
14f98232:	82 0f       	add	r24, r18
14f98234:	93 1f       	adc	r25, r19
14f98236:	0e 94 00 00 	call	0	; 0x0 <__tmp_reg__>
14f9823a:	1d 83       	std	Y+5, r17	; 0x05
14f9823c:	0c 83       	std	Y+4, r16	; 0x04
14f9823e:	81 e0       	ldi	r24, 0x01	; 1
14f98240:	df 91       	pop	r29
14f98242:	cf 91       	pop	r28
14f98244:	1f 91       	pop	r17
14f98246:	0f 91       	pop	r16
14f98248:	ff 90       	pop	r15
14f9824a:	ef 90       	pop	r14
14f9824c:	08 95       	ret

Disassembly of section .text._ZN6String6concatERKS_:

29f30444 <_ZN6String6concatERKS_>:
29f30444:	fb 01       	movw	r30, r22
29f30446:	44 81       	ldd	r20, Z+4	; 0x04
29f30448:	55 81       	ldd	r21, Z+5	; 0x05
29f3044a:	60 81       	ld	r22, Z
29f3044c:	71 81       	ldd	r23, Z+1	; 0x01
29f3044e:	0c 94 00 00 	jmp	0	; 0x0 <__tmp_reg__>

Disassembly of section .text._ZN6String6concatEPKc:

53e60896 <_ZN6String6concatEPKc>:
53e60896:	61 15       	cp	r22, r1
53e60898:	71 05       	cpc	r23, r1
53e6089a:	01 f0       	breq	.+0      	; 0x53e6089c <_ZN6String6concatEPKc+0x6>
53e6089c:	fb 01       	movw	r30, r22
53e6089e:	01 90       	ld	r0, Z+
53e608a0:	00 20       	and	r0, r0
53e608a2:	01 f4       	brne	.+0      	; 0x53e608a4 <_ZN6String6concatEPKc+0xe>
53e608a4:	af 01       	movw	r20, r30
53e608a6:	41 50       	subi	r20, 0x01	; 1
53e608a8:	51 09       	sbc	r21, r1
53e608aa:	46 1b       	sub	r20, r22
53e608ac:	57 0b       	sbc	r21, r23
53e608ae:	0c 94 00 00 	jmp	0	; 0x0 <__tmp_reg__>
53e608b2:	80 e0       	ldi	r24, 0x00	; 0
53e608b4:	08 95       	ret

Disassembly of section .text._ZN6String6concatEc:

a7cc114c <_ZN6String6concatEc>:
a7cc114c:	cf 93       	push	r28
a7cc114e:	df 93       	push	r29
a7cc1150:	00 d0       	rcall	.+0      	; 0xa7cc1152 <_ZN6String6concatEc+0x6>
a7cc1152:	cd b7       	in	r28, 0x3d	; 61
a7cc1154:	de b7       	in	r29, 0x3e	; 62
a7cc1156:	69 83       	std	Y+1, r22	; 0x01
a7cc1158:	1a 82       	std	Y+2, r1	; 0x02
a7cc115a:	41 e0       	ldi	r20, 0x01	; 1
a7cc115c:	50 e0       	ldi	r21, 0x00	; 0
a7cc115e:	be 01       	movw	r22, r28
a7cc1160:	6f 5f       	subi	r22, 0xFF	; 255
a7cc1162:	7f 4f       	sbci	r23, 0xFF	; 255
a7cc1164:	0e 94 00 00 	call	0	; 0x0 <__tmp_reg__>
a7cc1168:	0f 90       	pop	r0
a7cc116a:	0f 90       	pop	r0
a7cc116c:	df 91       	pop	r29
a7cc116e:	cf 91       	pop	r28
a7cc1170:	08 95       	ret

Disassembly of section .text._ZN6String6concatEh:

4f9822be <_ZN6String6concatEh>:
4f9822be:	ef 92       	push	r14
4f9822c0:	ff 92       	push	r15
4f9822c2:	0f 93       	push	r16
4f9822c4:	1f 93       	push	r17
4f9822c6:	cf 93       	push	r28
4f9822c8:	df 93       	push	r29
4f9822ca:	00 d0       	rcall	.+0      	; 0x4f9822cc <_ZN6String6concatERKS_+0x25a51e88>
4f9822cc:	00 d0       	rcall	.+0      	; 0x4f9822ce <_ZN6String6concatERKS_+0x25a51e8a>
4f9822ce:	cd b7       	in	r28, 0x3d	; 61
4f9822d0:	de b7       	in	r29, 0x3e	; 62
4f9822d2:	7c 01       	movw	r14, r24
4f9822d4:	86 2f       	mov	r24, r22
4f9822d6:	4a e0       	ldi	r20, 0x0A	; 10
4f9822d8:	50 e0       	ldi	r21, 0x00	; 0
4f9822da:	8e 01       	movw	r16, r28
4f9822dc:	0f 5f       	subi	r16, 0xFF	; 255
4f9822de:	1f 4f       	sbci	r17, 0xFF	; 255
4f9822e0:	b8 01       	movw	r22, r16
4f9822e2:	90 e0       	ldi	r25, 0x00	; 0
4f9822e4:	0e 94 00 00 	call	0	; 0x0 <__tmp_reg__>
4f9822e8:	f8 01       	movw	r30, r16
4f9822ea:	01 90       	ld	r0, Z+
4f9822ec:	00 20       	and	r0, r0
4f9822ee:	01 f4       	brne	.+0      	; 0x4f9822f0 <_ZN6String6concatERKS_+0x25a51eac>
4f9822f0:	af 01       	movw	r20, r30
4f9822f2:	41 50       	subi	r20, 0x01	; 1
4f9822f4:	51 09       	sbc	r21, r1
4f9822f6:	40 1b       	sub	r20, r16
4f9822f8:	51 0b       	sbc	r21, r17
4f9822fa:	b8 01       	movw	r22, r16
4f9822fc:	c7 01       	movw	r24, r14
4f9822fe:	0e 94 00 00 	call	0	; 0x0 <__tmp_reg__>
4f982302:	0f 90       	pop	r0
4f982304:	0f 90       	pop	r0
4f982306:	0f 90       	pop	r0
4f982308:	0f 90       	pop	r0
4f98230a:	df 91       	pop	r29
4f98230c:	cf 91       	pop	r28
4f98230e:	1f 91       	pop	r17
4f982310:	0f 91       	pop	r16
4f982312:	ff 90       	pop	r15
4f982314:	ef 90       	pop	r14
4f982316:	08 95       	ret

Disassembly of section .text._ZN6String6concatEi:

9f3045d6 <_ZN6String6concatEi>:
9f3045d6:	ef 92       	push	r14
9f3045d8:	ff 92       	push	r15
9f3045da:	0f 93       	push	r16
9f3045dc:	1f 93       	push	r17
9f3045de:	cf 93       	push	r28
9f3045e0:	df 93       	push	r29
9f3045e2:	cd b7       	in	r28, 0x3d	; 61
9f3045e4:	de b7       	in	r29, 0x3e	; 62
9f3045e6:	28 97       	sbiw	r28, 0x08	; 8
9f3045e8:	0f b6       	in	r0, 0x3f	; 63
9f3045ea:	f8 94       	cli
9f3045ec:	de bf       	out	0x3e, r29	; 62
9f3045ee:	0f be       	out	0x3f, r0	; 63
9f3045f0:	cd bf       	out	0x3d, r28	; 61
9f3045f2:	7c 01       	movw	r14, r24
9f3045f4:	cb 01       	movw	r24, r22
9f3045f6:	4a e0       	ldi	r20, 0x0A	; 10
9f3045f8:	50 e0       	ldi	r21, 0x00	; 0
9f3045fa:	8e 01       	movw	r16, r28
9f3045fc:	0f 5f       	subi	r16, 0xFF	; 255
9f3045fe:	1f 4f       	sbci	r17, 0xFF	; 255
9f304600:	b8 01       	movw	r22, r16
9f304602:	0e 94 00 00 	call	0	; 0x0 <__tmp_reg__>
9f304606:	f8 01       	movw	r30, r16
9f304608:	01 90       	ld	r0, Z+
9f30460a:	00 20       	and	r0, r0
9f30460c:	01 f4       	brne	.+0      	; 0x9f30460e <_ZN6String6concatEPKc+0x4b4a3d78>
9f30460e:	af 01       	movw	r20, r30
9f304610:	41 50       	subi	r20, 0x01	; 1
9f304612:	51 09       	sbc	r21, r1
9f304614:	40 1b       	sub	r20, r16
9f304616:	51 0b       	sbc	r21, r17
9f304618:	b8 01       	movw	r22, r16
9f30461a:	c7 01       	movw	r24, r14
9f30461c:	0e 94 00 00 	call	0	; 0x0 <__tmp_reg__>
9f304620:	28 96       	adiw	r28, 0x08	; 8
9f304622:	0f b6       	in	r0, 0x3f	; 63
9f304624:	f8 94       	cli
9f304626:	de bf       	out	0x3e, r29	; 62
9f304628:	0f be       	out	0x3f, r0	; 63
9f30462a:	cd bf       	out	0x3d, r28	; 61
9f30462c:	df 91       	pop	r29
9f30462e:	cf 91       	pop	r28
9f304630:	1f 91       	pop	r17
9f304632:	0f 91       	pop	r16
9f304634:	ff 90       	pop	r15
9f304636:	ef 90       	pop	r14
9f304638:	08 95       	ret

Disassembly of section .text._ZN6String6concatEj:

3e608c10 <_ZN6String6concatEj>:
3e608c10:	ef 92       	push	r14
3e608c12:	ff 92       	push	r15
3e608c14:	0f 93       	push	r16
3e608c16:	1f 93       	push	r17
3e608c18:	cf 93       	push	r28
3e608c1a:	df 93       	push	r29
3e608c1c:	cd b7       	in	r28, 0x3d	; 61
3e608c1e:	de b7       	in	r29, 0x3e	; 62
3e608c20:	27 97       	sbiw	r28, 0x07	; 7
3e608c22:	0f b6       	in	r0, 0x3f	; 63
3e608c24:	f8 94       	cli
3e608c26:	de bf       	out	0x3e, r29	; 62
3e608c28:	0f be       	out	0x3f, r0	; 63
3e608c2a:	cd bf       	out	0x3d, r28	; 61
3e608c2c:	7c 01       	movw	r14, r24
3e608c2e:	cb 01       	movw	r24, r22
3e608c30:	4a e0       	ldi	r20, 0x0A	; 10
3e608c32:	50 e0       	ldi	r21, 0x00	; 0
3e608c34:	8e 01       	movw	r16, r28
3e608c36:	0f 5f       	subi	r16, 0xFF	; 255
3e608c38:	1f 4f       	sbci	r17, 0xFF	; 255
3e608c3a:	b8 01       	movw	r22, r16
3e608c3c:	0e 94 00 00 	call	0	; 0x0 <__tmp_reg__>
3e608c40:	f8 01       	movw	r30, r16
3e608c42:	01 90       	ld	r0, Z+
3e608c44:	00 20       	and	r0, r0
3e608c46:	01 f4       	brne	.+0      	; 0x3e608c48 <_ZN6String6concatERKS_+0x146d8804>
3e608c48:	af 01       	movw	r20, r30
3e608c4a:	41 50       	subi	r20, 0x01	; 1
3e608c4c:	51 09       	sbc	r21, r1
3e608c4e:	40 1b       	sub	r20, r16
3e608c50:	51 0b       	sbc	r21, r17
3e608c52:	b8 01       	movw	r22, r16
3e608c54:	c7 01       	movw	r24, r14
3e608c56:	0e 94 00 00 	call	0	; 0x0 <__tmp_reg__>
3e608c5a:	27 96       	adiw	r28, 0x07	; 7
3e608c5c:	0f b6       	in	r0, 0x3f	; 63
3e608c5e:	f8 94       	cli
3e608c60:	de bf       	out	0x3e, r29	; 62
3e608c62:	0f be       	out	0x3f, r0	; 63
3e608c64:	cd bf       	out	0x3d, r28	; 61
3e608c66:	df 91       	pop	r29
3e608c68:	cf 91       	pop	r28
3e608c6a:	1f 91       	pop	r17
3e608c6c:	0f 91       	pop	r16
3e608c6e:	ff 90       	pop	r15
3e608c70:	ef 90       	pop	r14
3e608c72:	08 95       	ret

Disassembly of section .text._ZN6String6concatEl:

7cc11884 <_ZN6String6concatEl>:
7cc11884:	ef 92       	push	r14
7cc11886:	ff 92       	push	r15
7cc11888:	0f 93       	push	r16
7cc1188a:	1f 93       	push	r17
7cc1188c:	cf 93       	push	r28
7cc1188e:	df 93       	push	r29
7cc11890:	cd b7       	in	r28, 0x3d	; 61
7cc11892:	de b7       	in	r29, 0x3e	; 62
7cc11894:	2e 97       	sbiw	r28, 0x0e	; 14
7cc11896:	0f b6       	in	r0, 0x3f	; 63
7cc11898:	f8 94       	cli
7cc1189a:	de bf       	out	0x3e, r29	; 62
7cc1189c:	0f be       	out	0x3f, r0	; 63
7cc1189e:	cd bf       	out	0x3d, r28	; 61
7cc118a0:	7c 01       	movw	r14, r24
7cc118a2:	cb 01       	movw	r24, r22
7cc118a4:	ba 01       	movw	r22, r20
7cc118a6:	2a e0       	ldi	r18, 0x0A	; 10
7cc118a8:	30 e0       	ldi	r19, 0x00	; 0
7cc118aa:	8e 01       	movw	r16, r28
7cc118ac:	0f 5f       	subi	r16, 0xFF	; 255
7cc118ae:	1f 4f       	sbci	r17, 0xFF	; 255
7cc118b0:	a8 01       	movw	r20, r16
7cc118b2:	0e 94 00 00 	call	0	; 0x0 <__tmp_reg__>
7cc118b6:	f8 01       	movw	r30, r16
7cc118b8:	01 90       	ld	r0, Z+
7cc118ba:	00 20       	and	r0, r0
7cc118bc:	01 f4       	brne	.+0      	; 0x7cc118be <_ZN6String6concatEPKc+0x28db1028>
7cc118be:	af 01       	movw	r20, r30
7cc118c0:	41 50       	subi	r20, 0x01	; 1
7cc118c2:	51 09       	sbc	r21, r1
7cc118c4:	40 1b       	sub	r20, r16
7cc118c6:	51 0b       	sbc	r21, r17
7cc118c8:	b8 01       	movw	r22, r16
7cc118ca:	c7 01       	movw	r24, r14
7cc118cc:	0e 94 00 00 	call	0	; 0x0 <__tmp_reg__>
7cc118d0:	2e 96       	adiw	r28, 0x0e	; 14
7cc118d2:	0f b6       	in	r0, 0x3f	; 63
7cc118d4:	f8 94       	cli
7cc118d6:	de bf       	out	0x3e, r29	; 62
7cc118d8:	0f be       	out	0x3f, r0	; 63
7cc118da:	cd bf       	out	0x3d, r28	; 61
7cc118dc:	df 91       	pop	r29
7cc118de:	cf 91       	pop	r28
7cc118e0:	1f 91       	pop	r17
7cc118e2:	0f 91       	pop	r16
7cc118e4:	ff 90       	pop	r15
7cc118e6:	ef 90       	pop	r14
7cc118e8:	08 95       	ret

Disassembly of section .text._ZN6String6concatEm:

f982316e <_ZN6String6concatEm>:
f982316e:	ef 92       	push	r14
f9823170:	ff 92       	push	r15
f9823172:	0f 93       	push	r16
f9823174:	1f 93       	push	r17
f9823176:	cf 93       	push	r28
f9823178:	df 93       	push	r29
f982317a:	cd b7       	in	r28, 0x3d	; 61
f982317c:	de b7       	in	r29, 0x3e	; 62
f982317e:	2d 97       	sbiw	r28, 0x0d	; 13
f9823180:	0f b6       	in	r0, 0x3f	; 63
f9823182:	f8 94       	cli
f9823184:	de bf       	out	0x3e, r29	; 62
f9823186:	0f be       	out	0x3f, r0	; 63
f9823188:	cd bf       	out	0x3d, r28	; 61
f982318a:	7c 01       	movw	r14, r24
f982318c:	cb 01       	movw	r24, r22
f982318e:	ba 01       	movw	r22, r20
f9823190:	2a e0       	ldi	r18, 0x0A	; 10
f9823192:	30 e0       	ldi	r19, 0x00	; 0
f9823194:	8e 01       	movw	r16, r28
f9823196:	0f 5f       	subi	r16, 0xFF	; 255
f9823198:	1f 4f       	sbci	r17, 0xFF	; 255
f982319a:	a8 01       	movw	r20, r16
f982319c:	0e 94 00 00 	call	0	; 0x0 <__tmp_reg__>
f98231a0:	f8 01       	movw	r30, r16
f98231a2:	01 90       	ld	r0, Z+
f98231a4:	00 20       	and	r0, r0
f98231a6:	01 f4       	brne	.+0      	; 0xf98231a8 <_ZN6String6concatEc+0x51b6205c>
f98231a8:	af 01       	movw	r20, r30
f98231aa:	41 50       	subi	r20, 0x01	; 1
f98231ac:	51 09       	sbc	r21, r1
f98231ae:	40 1b       	sub	r20, r16
f98231b0:	51 0b       	sbc	r21, r17
f98231b2:	b8 01       	movw	r22, r16
f98231b4:	c7 01       	movw	r24, r14
f98231b6:	0e 94 00 00 	call	0	; 0x0 <__tmp_reg__>
f98231ba:	2d 96       	adiw	r28, 0x0d	; 13
f98231bc:	0f b6       	in	r0, 0x3f	; 63
f98231be:	f8 94       	cli
f98231c0:	de bf       	out	0x3e, r29	; 62
f98231c2:	0f be       	out	0x3f, r0	; 63
f98231c4:	cd bf       	out	0x3d, r28	; 61
f98231c6:	df 91       	pop	r29
f98231c8:	cf 91       	pop	r28
f98231ca:	1f 91       	pop	r17
f98231cc:	0f 91       	pop	r16
f98231ce:	ff 90       	pop	r15
f98231d0:	ef 90       	pop	r14
f98231d2:	08 95       	ret

Disassembly of section .text._ZN6String6concatEf:

f3046342 <_ZN6String6concatEf>:
f3046342:	ef 92       	push	r14
f3046344:	ff 92       	push	r15
f3046346:	0f 93       	push	r16
f3046348:	1f 93       	push	r17
f304634a:	cf 93       	push	r28
f304634c:	df 93       	push	r29
f304634e:	cd b7       	in	r28, 0x3d	; 61
f3046350:	de b7       	in	r29, 0x3e	; 62
f3046352:	64 97       	sbiw	r28, 0x14	; 20
f3046354:	0f b6       	in	r0, 0x3f	; 63
f3046356:	f8 94       	cli
f3046358:	de bf       	out	0x3e, r29	; 62
f304635a:	0f be       	out	0x3f, r0	; 63
f304635c:	cd bf       	out	0x3d, r28	; 61
f304635e:	7c 01       	movw	r14, r24
f3046360:	cb 01       	movw	r24, r22
f3046362:	ba 01       	movw	r22, r20
f3046364:	8e 01       	movw	r16, r28
f3046366:	0f 5f       	subi	r16, 0xFF	; 255
f3046368:	1f 4f       	sbci	r17, 0xFF	; 255
f304636a:	22 e0       	ldi	r18, 0x02	; 2
f304636c:	44 e0       	ldi	r20, 0x04	; 4
f304636e:	0e 94 00 00 	call	0	; 0x0 <__tmp_reg__>
f3046372:	fc 01       	movw	r30, r24
f3046374:	01 90       	ld	r0, Z+
f3046376:	00 20       	and	r0, r0
f3046378:	01 f4       	brne	.+0      	; 0xf304637a <_ZN6String6concatEc+0x4b38522e>
f304637a:	af 01       	movw	r20, r30
f304637c:	41 50       	subi	r20, 0x01	; 1
f304637e:	51 09       	sbc	r21, r1
f3046380:	48 1b       	sub	r20, r24
f3046382:	59 0b       	sbc	r21, r25
f3046384:	bc 01       	movw	r22, r24
f3046386:	c7 01       	movw	r24, r14
f3046388:	0e 94 00 00 	call	0	; 0x0 <__tmp_reg__>
f304638c:	64 96       	adiw	r28, 0x14	; 20
f304638e:	0f b6       	in	r0, 0x3f	; 63
f3046390:	f8 94       	cli
f3046392:	de bf       	out	0x3e, r29	; 62
f3046394:	0f be       	out	0x3f, r0	; 63
f3046396:	cd bf       	out	0x3d, r28	; 61
f3046398:	df 91       	pop	r29
f304639a:	cf 91       	pop	r28
f304639c:	1f 91       	pop	r17
f304639e:	0f 91       	pop	r16
f30463a0:	ff 90       	pop	r15
f30463a2:	ef 90       	pop	r14
f30463a4:	08 95       	ret

Disassembly of section .text._ZN6String6concatEd:

e608c6e8 <_ZN6String6concatEd>:
e608c6e8:	ef 92       	push	r14
e608c6ea:	ff 92       	push	r15
e608c6ec:	0f 93       	push	r16
e608c6ee:	1f 93       	push	r17
e608c6f0:	cf 93       	push	r28
e608c6f2:	df 93       	push	r29
e608c6f4:	cd b7       	in	r28, 0x3d	; 61
e608c6f6:	de b7       	in	r29, 0x3e	; 62
e608c6f8:	64 97       	sbiw	r28, 0x14	; 20
e608c6fa:	0f b6       	in	r0, 0x3f	; 63
e608c6fc:	f8 94       	cli
e608c6fe:	de bf       	out	0x3e, r29	; 62
e608c700:	0f be       	out	0x3f, r0	; 63
e608c702:	cd bf       	out	0x3d, r28	; 61
e608c704:	7c 01       	movw	r14, r24
e608c706:	cb 01       	movw	r24, r22
e608c708:	ba 01       	movw	r22, r20
e608c70a:	8e 01       	movw	r16, r28
e608c70c:	0f 5f       	subi	r16, 0xFF	; 255
e608c70e:	1f 4f       	sbci	r17, 0xFF	; 255
e608c710:	22 e0       	ldi	r18, 0x02	; 2
e608c712:	44 e0       	ldi	r20, 0x04	; 4
e608c714:	0e 94 00 00 	call	0	; 0x0 <__tmp_reg__>
e608c718:	fc 01       	movw	r30, r24
e608c71a:	01 90       	ld	r0, Z+
e608c71c:	00 20       	and	r0, r0
e608c71e:	01 f4       	brne	.+0      	; 0xe608c720 <_ZN6String6concatEc+0x3e3cb5d4>
e608c720:	af 01       	movw	r20, r30
e608c722:	41 50       	subi	r20, 0x01	; 1
e608c724:	51 09       	sbc	r21, r1
e608c726:	48 1b       	sub	r20, r24
e608c728:	59 0b       	sbc	r21, r25
e608c72a:	bc 01       	movw	r22, r24
e608c72c:	c7 01       	movw	r24, r14
e608c72e:	0e 94 00 00 	call	0	; 0x0 <__tmp_reg__>
e608c732:	64 96       	adiw	r28, 0x14	; 20
e608c734:	0f b6       	in	r0, 0x3f	; 63
e608c736:	f8 94       	cli
e608c738:	de bf       	out	0x3e, r29	; 62
e608c73a:	0f be       	out	0x3f, r0	; 63
e608c73c:	cd bf       	out	0x3d, r28	; 61
e608c73e:	df 91       	pop	r29
e608c740:	cf 91       	pop	r28
e608c742:	1f 91       	pop	r17
e608c744:	0f 91       	pop	r16
e608c746:	ff 90       	pop	r15
e608c748:	ef 90       	pop	r14
e608c74a:	08 95       	ret

Disassembly of section .text._ZN6String6concatEPK19__FlashStringHelper:

cc118e34 <_ZN6String6concatEPK19__FlashStringHelper>:
cc118e34:	ef 92       	push	r14
cc118e36:	ff 92       	push	r15
cc118e38:	0f 93       	push	r16
cc118e3a:	1f 93       	push	r17
cc118e3c:	cf 93       	push	r28
cc118e3e:	df 93       	push	r29
cc118e40:	ec 01       	movw	r28, r24
cc118e42:	7b 01       	movw	r14, r22
cc118e44:	61 15       	cp	r22, r1
cc118e46:	71 05       	cpc	r23, r1
cc118e48:	01 f4       	brne	.+0      	; 0xcc118e4a <_ZN6String6concatEc+0x24457cfe>
cc118e4a:	80 e0       	ldi	r24, 0x00	; 0
cc118e4c:	00 c0       	rjmp	.+0      	; 0xcc118e4e <_ZN6String6concatEc+0x24457d02>
cc118e4e:	cb 01       	movw	r24, r22
cc118e50:	0e 94 00 00 	call	0	; 0x0 <__tmp_reg__>
cc118e54:	00 97       	sbiw	r24, 0x00	; 0
cc118e56:	01 f0       	breq	.+0      	; 0xcc118e58 <_ZN6String6concatEc+0x24457d0c>
cc118e58:	0c 81       	ldd	r16, Y+4	; 0x04
cc118e5a:	1d 81       	ldd	r17, Y+5	; 0x05
cc118e5c:	08 0f       	add	r16, r24
cc118e5e:	19 1f       	adc	r17, r25
cc118e60:	b8 01       	movw	r22, r16
cc118e62:	ce 01       	movw	r24, r28
cc118e64:	0e 94 00 00 	call	0	; 0x0 <__tmp_reg__>
cc118e68:	88 23       	and	r24, r24
cc118e6a:	01 f0       	breq	.+0      	; 0xcc118e6c <_ZN6String6concatEc+0x24457d20>
cc118e6c:	28 81       	ld	r18, Y
cc118e6e:	39 81       	ldd	r19, Y+1	; 0x01
cc118e70:	8c 81       	ldd	r24, Y+4	; 0x04
cc118e72:	9d 81       	ldd	r25, Y+5	; 0x05
cc118e74:	b7 01       	movw	r22, r14
cc118e76:	82 0f       	add	r24, r18
cc118e78:	93 1f       	adc	r25, r19
cc118e7a:	0e 94 00 00 	call	0	; 0x0 <__tmp_reg__>
cc118e7e:	1d 83       	std	Y+5, r17	; 0x05
cc118e80:	0c 83       	std	Y+4, r16	; 0x04
cc118e82:	81 e0       	ldi	r24, 0x01	; 1
cc118e84:	df 91       	pop	r29
cc118e86:	cf 91       	pop	r28
cc118e88:	1f 91       	pop	r17
cc118e8a:	0f 91       	pop	r16
cc118e8c:	ff 90       	pop	r15
cc118e8e:	ef 90       	pop	r14
cc118e90:	08 95       	ret

Disassembly of section .text._ZplRK15StringSumHelperRK6String:

98231cc6 <_ZplRK15StringSumHelperRK6String>:
98231cc6:	cf 93       	push	r28
98231cc8:	df 93       	push	r29
98231cca:	ec 01       	movw	r28, r24
98231ccc:	fb 01       	movw	r30, r22
98231cce:	44 81       	ldd	r20, Z+4	; 0x04
98231cd0:	55 81       	ldd	r21, Z+5	; 0x05
98231cd2:	60 81       	ld	r22, Z
98231cd4:	71 81       	ldd	r23, Z+1	; 0x01
98231cd6:	0e 94 00 00 	call	0	; 0x0 <__tmp_reg__>
98231cda:	81 11       	cpse	r24, r1
98231cdc:	00 c0       	rjmp	.+0      	; 0x98231cde <_ZN6String6concatEPKc+0x443d1448>
98231cde:	ce 01       	movw	r24, r28
98231ce0:	0e 94 00 00 	call	0	; 0x0 <__tmp_reg__>
98231ce4:	ce 01       	movw	r24, r28
98231ce6:	df 91       	pop	r29
98231ce8:	cf 91       	pop	r28
98231cea:	08 95       	ret

Disassembly of section .text._ZplRK15StringSumHelperPKc:

304639b2 <_ZplRK15StringSumHelperPKc>:
304639b2:	cf 93       	push	r28
304639b4:	df 93       	push	r29
304639b6:	ec 01       	movw	r28, r24
304639b8:	61 15       	cp	r22, r1
304639ba:	71 05       	cpc	r23, r1
304639bc:	01 f0       	breq	.+0      	; 0x304639be <_ZN6String6concatERKS_+0x653357a>
304639be:	fb 01       	movw	r30, r22
304639c0:	01 90       	ld	r0, Z+
304639c2:	00 20       	and	r0, r0
304639c4:	01 f4       	brne	.+0      	; 0x304639c6 <_ZN6String6concatERKS_+0x6533582>
304639c6:	af 01       	movw	r20, r30
304639c8:	41 50       	subi	r20, 0x01	; 1
304639ca:	51 09       	sbc	r21, r1
304639cc:	46 1b       	sub	r20, r22
304639ce:	57 0b       	sbc	r21, r23
304639d0:	0e 94 00 00 	call	0	; 0x0 <__tmp_reg__>
304639d4:	81 11       	cpse	r24, r1
304639d6:	00 c0       	rjmp	.+0      	; 0x304639d8 <_ZN6String6concatERKS_+0x6533594>
304639d8:	ce 01       	movw	r24, r28
304639da:	0e 94 00 00 	call	0	; 0x0 <__tmp_reg__>
304639de:	ce 01       	movw	r24, r28
304639e0:	df 91       	pop	r29
304639e2:	cf 91       	pop	r28
304639e4:	08 95       	ret

Disassembly of section .text._ZplRK15StringSumHelperc:

608c7398 <_ZplRK15StringSumHelperc>:
608c7398:	cf 93       	push	r28
608c739a:	df 93       	push	r29
608c739c:	ec 01       	movw	r28, r24
608c739e:	0e 94 00 00 	call	0	; 0x0 <__tmp_reg__>
608c73a2:	81 11       	cpse	r24, r1
608c73a4:	00 c0       	rjmp	.+0      	; 0x608c73a6 <_ZN6String6concatEPKc+0xca66b10>
608c73a6:	ce 01       	movw	r24, r28
608c73a8:	0e 94 00 00 	call	0	; 0x0 <__tmp_reg__>
608c73ac:	ce 01       	movw	r24, r28
608c73ae:	df 91       	pop	r29
608c73b0:	cf 91       	pop	r28
608c73b2:	08 95       	ret

Disassembly of section .text._ZplRK15StringSumHelperh:

c118e74c <_ZplRK15StringSumHelperh>:
c118e74c:	cf 93       	push	r28
c118e74e:	df 93       	push	r29
c118e750:	ec 01       	movw	r28, r24
c118e752:	0e 94 00 00 	call	0	; 0x0 <__tmp_reg__>
c118e756:	81 11       	cpse	r24, r1
c118e758:	00 c0       	rjmp	.+0      	; 0xc118e75a <_ZN6String6concatEc+0x194cd60e>
c118e75a:	ce 01       	movw	r24, r28
c118e75c:	0e 94 00 00 	call	0	; 0x0 <__tmp_reg__>
c118e760:	ce 01       	movw	r24, r28
c118e762:	df 91       	pop	r29
c118e764:	cf 91       	pop	r28
c118e766:	08 95       	ret

Disassembly of section .text._ZplRK15StringSumHelperi:

8231ceb4 <_ZplRK15StringSumHelperi>:
8231ceb4:	cf 93       	push	r28
8231ceb6:	df 93       	push	r29
8231ceb8:	ec 01       	movw	r28, r24
8231ceba:	0e 94 00 00 	call	0	; 0x0 <__tmp_reg__>
8231cebe:	81 11       	cpse	r24, r1
8231cec0:	00 c0       	rjmp	.+0      	; 0x8231cec2 <_ZN6String6concatEPKc+0x2e4bc62c>
8231cec2:	ce 01       	movw	r24, r28
8231cec4:	0e 94 00 00 	call	0	; 0x0 <__tmp_reg__>
8231cec8:	ce 01       	movw	r24, r28
8231ceca:	df 91       	pop	r29
8231cecc:	cf 91       	pop	r28
8231cece:	08 95       	ret

Disassembly of section .text._ZplRK15StringSumHelperj:

04639d84 <_ZplRK15StringSumHelperj>:
 4639d84:	cf 93       	push	r28
 4639d86:	df 93       	push	r29
 4639d88:	ec 01       	movw	r28, r24
 4639d8a:	0e 94 00 00 	call	0	; 0x0 <__tmp_reg__>
 4639d8e:	81 11       	cpse	r24, r1
 4639d90:	00 c0       	rjmp	.+0      	; 0x4639d92 <_ZN6StringC1Edh+0x1c46d96>
 4639d92:	ce 01       	movw	r24, r28
 4639d94:	0e 94 00 00 	call	0	; 0x0 <__tmp_reg__>
 4639d98:	ce 01       	movw	r24, r28
 4639d9a:	df 91       	pop	r29
 4639d9c:	cf 91       	pop	r28
 4639d9e:	08 95       	ret

Disassembly of section .text._ZplRK15StringSumHelperl:

08c73b24 <_ZplRK15StringSumHelperl>:
 8c73b24:	cf 93       	push	r28
 8c73b26:	df 93       	push	r29
 8c73b28:	ec 01       	movw	r28, r24
 8c73b2a:	0e 94 00 00 	call	0	; 0x0 <__tmp_reg__>
 8c73b2e:	81 11       	cpse	r24, r1
 8c73b30:	00 c0       	rjmp	.+0      	; 0x8c73b32 <_ZN6StringaSEPK19__FlashStringHelper+0x388dada>
 8c73b32:	ce 01       	movw	r24, r28
 8c73b34:	0e 94 00 00 	call	0	; 0x0 <__tmp_reg__>
 8c73b38:	ce 01       	movw	r24, r28
 8c73b3a:	df 91       	pop	r29
 8c73b3c:	cf 91       	pop	r28
 8c73b3e:	08 95       	ret

Disassembly of section .text._ZplRK15StringSumHelperm:

118e7664 <_ZplRK15StringSumHelperm>:
118e7664:	cf 93       	push	r28
118e7666:	df 93       	push	r29
118e7668:	ec 01       	movw	r28, r24
118e766a:	0e 94 00 00 	call	0	; 0x0 <__tmp_reg__>
118e766e:	81 11       	cpse	r24, r1
118e7670:	00 c0       	rjmp	.+0      	; 0x118e7672 <_ZN6StringC1EPK19__FlashStringHelper+0x711b580>
118e7672:	ce 01       	movw	r24, r28
118e7674:	0e 94 00 00 	call	0	; 0x0 <__tmp_reg__>
118e7678:	ce 01       	movw	r24, r28
118e767a:	df 91       	pop	r29
118e767c:	cf 91       	pop	r28
118e767e:	08 95       	ret

Disassembly of section .text._ZplRK15StringSumHelperf:

231cece4 <_ZplRK15StringSumHelperf>:
231cece4:	cf 93       	push	r28
231cece6:	df 93       	push	r29
231cece8:	ec 01       	movw	r28, r24
231cecea:	0e 94 00 00 	call	0	; 0x0 <__tmp_reg__>
231cecee:	81 11       	cpse	r24, r1
231cecf0:	00 c0       	rjmp	.+0      	; 0x231cecf2 <_ZN6String6concatEPKcj+0xe236afc>
231cecf2:	ce 01       	movw	r24, r28
231cecf4:	0e 94 00 00 	call	0	; 0x0 <__tmp_reg__>
231cecf8:	ce 01       	movw	r24, r28
231cecfa:	df 91       	pop	r29
231cecfc:	cf 91       	pop	r28
231cecfe:	08 95       	ret

Disassembly of section .text._ZplRK15StringSumHelperd:

4639d9e4 <_ZplRK15StringSumHelperd>:
4639d9e4:	cf 93       	push	r28
4639d9e6:	df 93       	push	r29
4639d9e8:	ec 01       	movw	r28, r24
4639d9ea:	0e 94 00 00 	call	0	; 0x0 <__tmp_reg__>
4639d9ee:	81 11       	cpse	r24, r1
4639d9f0:	00 c0       	rjmp	.+0      	; 0x4639d9f2 <_ZN6String6concatERKS_+0x1c46d5ae>
4639d9f2:	ce 01       	movw	r24, r28
4639d9f4:	0e 94 00 00 	call	0	; 0x0 <__tmp_reg__>
4639d9f8:	ce 01       	movw	r24, r28
4639d9fa:	df 91       	pop	r29
4639d9fc:	cf 91       	pop	r28
4639d9fe:	08 95       	ret

Disassembly of section .text._ZplRK15StringSumHelperPK19__FlashStringHelper:

8c73b3e4 <_ZplRK15StringSumHelperPK19__FlashStringHelper>:
8c73b3e4:	cf 93       	push	r28
8c73b3e6:	df 93       	push	r29
8c73b3e8:	ec 01       	movw	r28, r24
8c73b3ea:	0e 94 00 00 	call	0	; 0x0 <__tmp_reg__>
8c73b3ee:	81 11       	cpse	r24, r1
8c73b3f0:	00 c0       	rjmp	.+0      	; 0x8c73b3f2 <_ZN6String6concatEPKc+0x388dab5c>
8c73b3f2:	ce 01       	movw	r24, r28
8c73b3f4:	0e 94 00 00 	call	0	; 0x0 <__tmp_reg__>
8c73b3f8:	ce 01       	movw	r24, r28
8c73b3fa:	df 91       	pop	r29
8c73b3fc:	cf 91       	pop	r28
8c73b3fe:	08 95       	ret

Disassembly of section .text._ZNK6String9compareToERKS_:

18e767e4 <_ZNK6String9compareToERKS_>:
18e767e4:	cf 93       	push	r28
18e767e6:	df 93       	push	r29
18e767e8:	dc 01       	movw	r26, r24
18e767ea:	ed 91       	ld	r30, X+
18e767ec:	fc 91       	ld	r31, X
18e767ee:	eb 01       	movw	r28, r22
18e767f0:	a8 81       	ld	r26, Y
18e767f2:	b9 81       	ldd	r27, Y+1	; 0x01
18e767f4:	30 97       	sbiw	r30, 0x00	; 0
18e767f6:	01 f0       	breq	.+0      	; 0x18e767f8 <_ZN6String6concatEPKcj+0x3ede602>
18e767f8:	10 97       	sbiw	r26, 0x00	; 0
18e767fa:	01 f4       	brne	.+0      	; 0x18e767fc <_ZN6String6concatEPKcj+0x3ede606>
18e767fc:	10 97       	sbiw	r26, 0x00	; 0
18e767fe:	01 f0       	breq	.+0      	; 0x18e76800 <_ZN6String6concatEPKcj+0x3ede60a>
18e76800:	eb 01       	movw	r28, r22
18e76802:	2c 81       	ldd	r18, Y+4	; 0x04
18e76804:	3d 81       	ldd	r19, Y+5	; 0x05
18e76806:	23 2b       	or	r18, r19
18e76808:	01 f0       	breq	.+0      	; 0x18e7680a <_ZN6String6concatEPKcj+0x3ede614>
18e7680a:	8c 91       	ld	r24, X
18e7680c:	90 e0       	ldi	r25, 0x00	; 0
18e7680e:	91 95       	neg	r25
18e76810:	81 95       	neg	r24
18e76812:	91 09       	sbc	r25, r1
18e76814:	00 c0       	rjmp	.+0      	; 0x18e76816 <_ZN6String6concatEPKcj+0x3ede620>
18e76816:	30 97       	sbiw	r30, 0x00	; 0
18e76818:	01 f0       	breq	.+0      	; 0x18e7681a <_ZN6String6concatEPKcj+0x3ede624>
18e7681a:	dc 01       	movw	r26, r24
18e7681c:	14 96       	adiw	r26, 0x04	; 4
18e7681e:	8d 91       	ld	r24, X+
18e76820:	9c 91       	ld	r25, X
18e76822:	15 97       	sbiw	r26, 0x05	; 5
18e76824:	89 2b       	or	r24, r25
18e76826:	01 f0       	breq	.+0      	; 0x18e76828 <_ZN6String6concatEPKcj+0x3ede632>
18e76828:	80 81       	ld	r24, Z
18e7682a:	90 e0       	ldi	r25, 0x00	; 0
18e7682c:	00 c0       	rjmp	.+0      	; 0x18e7682e <_ZN6String6concatEPKcj+0x3ede638>
18e7682e:	bd 01       	movw	r22, r26
18e76830:	cf 01       	movw	r24, r30
18e76832:	df 91       	pop	r29
18e76834:	cf 91       	pop	r28
18e76836:	0c 94 00 00 	jmp	0	; 0x0 <__tmp_reg__>
18e7683a:	80 e0       	ldi	r24, 0x00	; 0
18e7683c:	90 e0       	ldi	r25, 0x00	; 0
18e7683e:	df 91       	pop	r29
18e76840:	cf 91       	pop	r28
18e76842:	08 95       	ret

Disassembly of section .text._ZNK6String6equalsERKS_:

31ced028 <_ZNK6String6equalsERKS_>:
31ced028:	fc 01       	movw	r30, r24
31ced02a:	44 81       	ldd	r20, Z+4	; 0x04
31ced02c:	55 81       	ldd	r21, Z+5	; 0x05
31ced02e:	fb 01       	movw	r30, r22
31ced030:	24 81       	ldd	r18, Z+4	; 0x04
31ced032:	35 81       	ldd	r19, Z+5	; 0x05
31ced034:	42 17       	cp	r20, r18
31ced036:	53 07       	cpc	r21, r19
31ced038:	01 f4       	brne	.+0      	; 0x31ced03a <_ZN6String6concatERKS_+0x7dbcbf6>
31ced03a:	0e 94 00 00 	call	0	; 0x0 <__tmp_reg__>
31ced03e:	21 e0       	ldi	r18, 0x01	; 1
31ced040:	89 2b       	or	r24, r25
31ced042:	01 f0       	breq	.+0      	; 0x31ced044 <_ZN6String6concatERKS_+0x7dbcc00>
31ced044:	20 e0       	ldi	r18, 0x00	; 0
31ced046:	82 2f       	mov	r24, r18
31ced048:	08 95       	ret
31ced04a:	80 e0       	ldi	r24, 0x00	; 0
31ced04c:	08 95       	ret

Disassembly of section .text._ZNK6String6equalsEPKc:

639da076 <_ZNK6String6equalsEPKc>:
639da076:	fc 01       	movw	r30, r24
639da078:	24 81       	ldd	r18, Z+4	; 0x04
639da07a:	35 81       	ldd	r19, Z+5	; 0x05
639da07c:	23 2b       	or	r18, r19
639da07e:	01 f4       	brne	.+0      	; 0x639da080 <_ZN6String6concatEPKc+0xfb797ea>
639da080:	21 e0       	ldi	r18, 0x01	; 1
639da082:	61 15       	cp	r22, r1
639da084:	71 05       	cpc	r23, r1
639da086:	01 f0       	breq	.+0      	; 0x639da088 <_ZN6String6concatEPKc+0xfb797f2>
639da088:	fb 01       	movw	r30, r22
639da08a:	00 c0       	rjmp	.+0      	; 0x639da08c <_ZN6String6concatEPKc+0xfb797f6>
639da08c:	fc 01       	movw	r30, r24
639da08e:	80 81       	ld	r24, Z
639da090:	91 81       	ldd	r25, Z+1	; 0x01
639da092:	61 15       	cp	r22, r1
639da094:	71 05       	cpc	r23, r1
639da096:	01 f4       	brne	.+0      	; 0x639da098 <_ZN6String6concatEPKc+0xfb79802>
639da098:	21 e0       	ldi	r18, 0x01	; 1
639da09a:	fc 01       	movw	r30, r24
639da09c:	80 81       	ld	r24, Z
639da09e:	88 23       	and	r24, r24
639da0a0:	01 f0       	breq	.+0      	; 0x639da0a2 <_ZN6String6concatEPKc+0xfb7980c>
639da0a2:	00 c0       	rjmp	.+0      	; 0x639da0a4 <_ZN6String6concatEPKc+0xfb7980e>
639da0a4:	0e 94 00 00 	call	0	; 0x0 <__tmp_reg__>
639da0a8:	21 e0       	ldi	r18, 0x01	; 1
639da0aa:	89 2b       	or	r24, r25
639da0ac:	01 f0       	breq	.+0      	; 0x639da0ae <_ZN6String6concatEPKc+0xfb79818>
639da0ae:	20 e0       	ldi	r18, 0x00	; 0
639da0b0:	82 2f       	mov	r24, r18
639da0b2:	08 95       	ret

Disassembly of section .text._ZNK6StringltERKS_:

c73b412a <_ZNK6StringltERKS_>:
c73b412a:	0e 94 00 00 	call	0	; 0x0 <__tmp_reg__>
c73b412e:	89 2f       	mov	r24, r25
c73b4130:	88 1f       	adc	r24, r24
c73b4132:	88 27       	eor	r24, r24
c73b4134:	88 1f       	adc	r24, r24
c73b4136:	08 95       	ret

Disassembly of section .text._ZNK6StringgtERKS_:

8e768262 <_ZNK6StringgtERKS_>:
8e768262:	0e 94 00 00 	call	0	; 0x0 <__tmp_reg__>
8e768266:	21 e0       	ldi	r18, 0x01	; 1
8e768268:	18 16       	cp	r1, r24
8e76826a:	19 06       	cpc	r1, r25
8e76826c:	04 f0       	brlt	.+0      	; 0x8e76826e <_ZN6String6concatEPKc+0x3a9079d8>
8e76826e:	20 e0       	ldi	r18, 0x00	; 0
8e768270:	82 2f       	mov	r24, r18
8e768272:	08 95       	ret

Disassembly of section .text._ZNK6StringleERKS_:

1ced04d6 <_ZNK6StringleERKS_>:
1ced04d6:	0e 94 00 00 	call	0	; 0x0 <__tmp_reg__>
1ced04da:	21 e0       	ldi	r18, 0x01	; 1
1ced04dc:	18 16       	cp	r1, r24
1ced04de:	19 06       	cpc	r1, r25
1ced04e0:	04 f4       	brge	.+0      	; 0x1ced04e2 <_ZN6String6concatEPKcj+0x7f382ec>
1ced04e2:	20 e0       	ldi	r18, 0x00	; 0
1ced04e4:	82 2f       	mov	r24, r18
1ced04e6:	08 95       	ret

Disassembly of section .text._ZNK6StringgeERKS_:

39da09be <_ZNK6StringgeERKS_>:
39da09be:	0e 94 00 00 	call	0	; 0x0 <__tmp_reg__>
39da09c2:	89 2f       	mov	r24, r25
39da09c4:	80 95       	com	r24
39da09c6:	88 1f       	adc	r24, r24
39da09c8:	88 27       	eor	r24, r24
39da09ca:	88 1f       	adc	r24, r24
39da09cc:	08 95       	ret

Disassembly of section .text._ZNK6String16equalsIgnoreCaseERKS_:

73b4138c <_ZNK6String16equalsIgnoreCaseERKS_>:
73b4138c:	ef 92       	push	r14
73b4138e:	ff 92       	push	r15
73b41390:	0f 93       	push	r16
73b41392:	1f 93       	push	r17
73b41394:	cf 93       	push	r28
73b41396:	df 93       	push	r29
73b41398:	86 17       	cp	r24, r22
73b4139a:	97 07       	cpc	r25, r23
73b4139c:	01 f0       	breq	.+0      	; 0x73b4139e <_ZN6String6concatEPKc+0x1fce0b08>
73b4139e:	fc 01       	movw	r30, r24
73b413a0:	24 81       	ldd	r18, Z+4	; 0x04
73b413a2:	35 81       	ldd	r19, Z+5	; 0x05
73b413a4:	fb 01       	movw	r30, r22
73b413a6:	44 81       	ldd	r20, Z+4	; 0x04
73b413a8:	55 81       	ldd	r21, Z+5	; 0x05
73b413aa:	24 17       	cp	r18, r20
73b413ac:	35 07       	cpc	r19, r21
73b413ae:	01 f4       	brne	.+0      	; 0x73b413b0 <_ZN6String6concatEPKc+0x1fce0b1a>
73b413b0:	23 2b       	or	r18, r19
73b413b2:	01 f0       	breq	.+0      	; 0x73b413b4 <_ZN6String6concatEPKc+0x1fce0b1e>
73b413b4:	fc 01       	movw	r30, r24
73b413b6:	00 81       	ld	r16, Z
73b413b8:	11 81       	ldd	r17, Z+1	; 0x01
73b413ba:	fb 01       	movw	r30, r22
73b413bc:	c0 81       	ld	r28, Z
73b413be:	d1 81       	ldd	r29, Z+1	; 0x01
73b413c0:	f8 01       	movw	r30, r16
73b413c2:	81 91       	ld	r24, Z+
73b413c4:	8f 01       	movw	r16, r30
73b413c6:	88 23       	and	r24, r24
73b413c8:	01 f0       	breq	.+0      	; 0x73b413ca <_ZN6String6concatEPKc+0x1fce0b34>
73b413ca:	90 e0       	ldi	r25, 0x00	; 0
73b413cc:	0e 94 00 00 	call	0	; 0x0 <__tmp_reg__>
73b413d0:	7c 01       	movw	r14, r24
73b413d2:	89 91       	ld	r24, Y+
73b413d4:	90 e0       	ldi	r25, 0x00	; 0
73b413d6:	0e 94 00 00 	call	0	; 0x0 <__tmp_reg__>
73b413da:	e8 16       	cp	r14, r24
73b413dc:	f9 06       	cpc	r15, r25
73b413de:	01 f0       	breq	.+0      	; 0x73b413e0 <_ZN6String6concatEPKc+0x1fce0b4a>
73b413e0:	00 c0       	rjmp	.+0      	; 0x73b413e2 <_ZN6String6concatEPKc+0x1fce0b4c>
73b413e2:	81 e0       	ldi	r24, 0x01	; 1
73b413e4:	00 c0       	rjmp	.+0      	; 0x73b413e6 <_ZN6String6concatEPKc+0x1fce0b50>
73b413e6:	80 e0       	ldi	r24, 0x00	; 0
73b413e8:	df 91       	pop	r29
73b413ea:	cf 91       	pop	r28
73b413ec:	1f 91       	pop	r17
73b413ee:	0f 91       	pop	r16
73b413f0:	ff 90       	pop	r15
73b413f2:	ef 90       	pop	r14
73b413f4:	08 95       	ret

Disassembly of section .text._ZNK6String10startsWithERKS_j:

e7682782 <_ZNK6String10startsWithERKS_j>:
e7682782:	fa 01       	movw	r30, r20
e7682784:	db 01       	movw	r26, r22
e7682786:	14 96       	adiw	r26, 0x04	; 4
e7682788:	4d 91       	ld	r20, X+
e768278a:	5c 91       	ld	r21, X
e768278c:	15 97       	sbiw	r26, 0x05	; 5
e768278e:	dc 01       	movw	r26, r24
e7682790:	14 96       	adiw	r26, 0x04	; 4
e7682792:	2d 91       	ld	r18, X+
e7682794:	3c 91       	ld	r19, X
e7682796:	15 97       	sbiw	r26, 0x05	; 5
e7682798:	24 1b       	sub	r18, r20
e768279a:	35 0b       	sbc	r19, r21
e768279c:	2e 17       	cp	r18, r30
e768279e:	3f 07       	cpc	r19, r31
e76827a0:	00 f0       	brcs	.+0      	; 0xe76827a2 <_ZN6String6concatEc+0x3f9c1656>
e76827a2:	8d 91       	ld	r24, X+
e76827a4:	9c 91       	ld	r25, X
e76827a6:	00 97       	sbiw	r24, 0x00	; 0
e76827a8:	01 f0       	breq	.+0      	; 0xe76827aa <_ZN6String6concatEc+0x3f9c165e>
e76827aa:	db 01       	movw	r26, r22
e76827ac:	6d 91       	ld	r22, X+
e76827ae:	7c 91       	ld	r23, X
e76827b0:	61 15       	cp	r22, r1
e76827b2:	71 05       	cpc	r23, r1
e76827b4:	01 f0       	breq	.+0      	; 0xe76827b6 <_ZN6String6concatEc+0x3f9c166a>
e76827b6:	8e 0f       	add	r24, r30
e76827b8:	9f 1f       	adc	r25, r31
e76827ba:	0e 94 00 00 	call	0	; 0x0 <__tmp_reg__>
e76827be:	21 e0       	ldi	r18, 0x01	; 1
e76827c0:	89 2b       	or	r24, r25
e76827c2:	01 f0       	breq	.+0      	; 0xe76827c4 <_ZN6String6concatEc+0x3f9c1678>
e76827c4:	20 e0       	ldi	r18, 0x00	; 0
e76827c6:	82 2f       	mov	r24, r18
e76827c8:	08 95       	ret

Disassembly of section .text._ZNK6String10startsWithERKS_:

ced04f4c <_ZNK6String10startsWithERKS_>:
ced04f4c:	fc 01       	movw	r30, r24
ced04f4e:	44 81       	ldd	r20, Z+4	; 0x04
ced04f50:	55 81       	ldd	r21, Z+5	; 0x05
ced04f52:	fb 01       	movw	r30, r22
ced04f54:	24 81       	ldd	r18, Z+4	; 0x04
ced04f56:	35 81       	ldd	r19, Z+5	; 0x05
ced04f58:	42 17       	cp	r20, r18
ced04f5a:	53 07       	cpc	r21, r19
ced04f5c:	00 f0       	brcs	.+0      	; 0xced04f5e <_ZN6String6concatEc+0x27043e12>
ced04f5e:	40 e0       	ldi	r20, 0x00	; 0
ced04f60:	50 e0       	ldi	r21, 0x00	; 0
ced04f62:	0c 94 00 00 	jmp	0	; 0x0 <__tmp_reg__>
ced04f66:	80 e0       	ldi	r24, 0x00	; 0
ced04f68:	08 95       	ret

Disassembly of section .text._ZNK6String8endsWithERKS_:

9da09eb6 <_ZNK6String8endsWithERKS_>:
9da09eb6:	fc 01       	movw	r30, r24
9da09eb8:	84 81       	ldd	r24, Z+4	; 0x04
9da09eba:	95 81       	ldd	r25, Z+5	; 0x05
9da09ebc:	db 01       	movw	r26, r22
9da09ebe:	14 96       	adiw	r26, 0x04	; 4
9da09ec0:	4d 91       	ld	r20, X+
9da09ec2:	5c 91       	ld	r21, X
9da09ec4:	15 97       	sbiw	r26, 0x05	; 5
9da09ec6:	84 17       	cp	r24, r20
9da09ec8:	95 07       	cpc	r25, r21
9da09eca:	00 f0       	brcs	.+0      	; 0x9da09ecc <_ZN6String6concatEPKc+0x49ba9636>
9da09ecc:	20 81       	ld	r18, Z
9da09ece:	31 81       	ldd	r19, Z+1	; 0x01
9da09ed0:	21 15       	cp	r18, r1
9da09ed2:	31 05       	cpc	r19, r1
9da09ed4:	01 f0       	breq	.+0      	; 0x9da09ed6 <_ZN6String6concatEPKc+0x49ba9640>
9da09ed6:	6d 91       	ld	r22, X+
9da09ed8:	7c 91       	ld	r23, X
9da09eda:	61 15       	cp	r22, r1
9da09edc:	71 05       	cpc	r23, r1
9da09ede:	01 f0       	breq	.+0      	; 0x9da09ee0 <_ZN6String6concatEPKc+0x49ba964a>
9da09ee0:	84 1b       	sub	r24, r20
9da09ee2:	95 0b       	sbc	r25, r21
9da09ee4:	82 0f       	add	r24, r18
9da09ee6:	93 1f       	adc	r25, r19
9da09ee8:	0e 94 00 00 	call	0	; 0x0 <__tmp_reg__>
9da09eec:	21 e0       	ldi	r18, 0x01	; 1
9da09eee:	89 2b       	or	r24, r25
9da09ef0:	01 f0       	breq	.+0      	; 0x9da09ef2 <_ZN6String6concatEPKc+0x49ba965c>
9da09ef2:	20 e0       	ldi	r18, 0x00	; 0
9da09ef4:	82 2f       	mov	r24, r18
9da09ef6:	08 95       	ret

Disassembly of section .text._ZN6String9setCharAtEjc:

3b413dae <_ZN6String9setCharAtEjc>:
3b413dae:	dc 01       	movw	r26, r24
3b413db0:	14 96       	adiw	r26, 0x04	; 4
3b413db2:	2d 91       	ld	r18, X+
3b413db4:	3c 91       	ld	r19, X
3b413db6:	15 97       	sbiw	r26, 0x05	; 5
3b413db8:	62 17       	cp	r22, r18
3b413dba:	73 07       	cpc	r23, r19
3b413dbc:	00 f4       	brcc	.+0      	; 0x3b413dbe <_ZN6String6concatERKS_+0x114e397a>
3b413dbe:	ed 91       	ld	r30, X+
3b413dc0:	fc 91       	ld	r31, X
3b413dc2:	e6 0f       	add	r30, r22
3b413dc4:	f7 1f       	adc	r31, r23
3b413dc6:	40 83       	st	Z, r20
3b413dc8:	08 95       	ret

Disassembly of section .text._ZN6StringixEj:

76827b78 <_ZN6StringixEj>:
76827b78:	fc 01       	movw	r30, r24
76827b7a:	84 81       	ldd	r24, Z+4	; 0x04
76827b7c:	95 81       	ldd	r25, Z+5	; 0x05
76827b7e:	68 17       	cp	r22, r24
76827b80:	79 07       	cpc	r23, r25
76827b82:	00 f4       	brcc	.+0      	; 0x76827b84 <_ZN6String6concatEPKc+0x229c72ee>
76827b84:	80 81       	ld	r24, Z
76827b86:	91 81       	ldd	r25, Z+1	; 0x01
76827b88:	00 97       	sbiw	r24, 0x00	; 0
76827b8a:	01 f4       	brne	.+0      	; 0x76827b8c <_ZN6String6concatEPKc+0x229c72f6>
76827b8c:	10 92 00 00 	sts	0x0000, r1
76827b90:	80 e0       	ldi	r24, 0x00	; 0
76827b92:	90 e0       	ldi	r25, 0x00	; 0
76827b94:	08 95       	ret
76827b96:	86 0f       	add	r24, r22
76827b98:	97 1f       	adc	r25, r23
76827b9a:	08 95       	ret

Disassembly of section .text._ZNK6StringixEj:

ed04f714 <_ZNK6StringixEj>:
ed04f714:	fc 01       	movw	r30, r24
ed04f716:	24 81       	ldd	r18, Z+4	; 0x04
ed04f718:	35 81       	ldd	r19, Z+5	; 0x05
ed04f71a:	62 17       	cp	r22, r18
ed04f71c:	73 07       	cpc	r23, r19
ed04f71e:	00 f4       	brcc	.+0      	; 0xed04f720 <_ZN6String6concatEc+0x4538e5d4>
ed04f720:	80 81       	ld	r24, Z
ed04f722:	91 81       	ldd	r25, Z+1	; 0x01
ed04f724:	00 97       	sbiw	r24, 0x00	; 0
ed04f726:	01 f0       	breq	.+0      	; 0xed04f728 <_ZN6String6concatEc+0x4538e5dc>
ed04f728:	fc 01       	movw	r30, r24
ed04f72a:	e6 0f       	add	r30, r22
ed04f72c:	f7 1f       	adc	r31, r23
ed04f72e:	80 81       	ld	r24, Z
ed04f730:	08 95       	ret
ed04f732:	80 e0       	ldi	r24, 0x00	; 0
ed04f734:	08 95       	ret

Disassembly of section .text._ZNK6String6charAtEj:

da09ee4a <_ZNK6String6charAtEj>:
da09ee4a:	0c 94 00 00 	jmp	0	; 0x0 <__tmp_reg__>

Disassembly of section .text._ZNK6String8getBytesEPhjj:

b413dc98 <_ZNK6String8getBytesEPhjj>:
b413dc98:	0f 93       	push	r16
b413dc9a:	1f 93       	push	r17
b413dc9c:	cf 93       	push	r28
b413dc9e:	df 93       	push	r29
b413dca0:	eb 01       	movw	r28, r22
b413dca2:	41 15       	cp	r20, r1
b413dca4:	51 05       	cpc	r21, r1
b413dca6:	01 f0       	breq	.+0      	; 0xb413dca8 <_ZN6String6concatEc+0xc47cb5c>
b413dca8:	20 97       	sbiw	r28, 0x00	; 0
b413dcaa:	01 f0       	breq	.+0      	; 0xb413dcac <_ZN6String6concatEc+0xc47cb60>
b413dcac:	fc 01       	movw	r30, r24
b413dcae:	64 81       	ldd	r22, Z+4	; 0x04
b413dcb0:	75 81       	ldd	r23, Z+5	; 0x05
b413dcb2:	26 17       	cp	r18, r22
b413dcb4:	37 07       	cpc	r19, r23
b413dcb6:	00 f4       	brcc	.+0      	; 0xb413dcb8 <_ZN6String6concatEc+0xc47cb6c>
b413dcb8:	62 1b       	sub	r22, r18
b413dcba:	73 0b       	sbc	r23, r19
b413dcbc:	8a 01       	movw	r16, r20
b413dcbe:	01 50       	subi	r16, 0x01	; 1
b413dcc0:	11 09       	sbc	r17, r1
b413dcc2:	60 17       	cp	r22, r16
b413dcc4:	71 07       	cpc	r23, r17
b413dcc6:	00 f4       	brcc	.+0      	; 0xb413dcc8 <_ZN6String6concatEc+0xc47cb7c>
b413dcc8:	8b 01       	movw	r16, r22
b413dcca:	fc 01       	movw	r30, r24
b413dccc:	60 81       	ld	r22, Z
b413dcce:	71 81       	ldd	r23, Z+1	; 0x01
b413dcd0:	62 0f       	add	r22, r18
b413dcd2:	73 1f       	adc	r23, r19
b413dcd4:	a8 01       	movw	r20, r16
b413dcd6:	ce 01       	movw	r24, r28
b413dcd8:	0e 94 00 00 	call	0	; 0x0 <__tmp_reg__>
b413dcdc:	c0 0f       	add	r28, r16
b413dcde:	d1 1f       	adc	r29, r17
b413dce0:	18 82       	st	Y, r1
b413dce2:	df 91       	pop	r29
b413dce4:	cf 91       	pop	r28
b413dce6:	1f 91       	pop	r17
b413dce8:	0f 91       	pop	r16
b413dcea:	08 95       	ret

Disassembly of section .text._ZNK6String7indexOfEcj:

6827b984 <_ZNK6String7indexOfEcj>:
6827b984:	cf 93       	push	r28
6827b986:	df 93       	push	r29
6827b988:	fc 01       	movw	r30, r24
6827b98a:	84 81       	ldd	r24, Z+4	; 0x04
6827b98c:	95 81       	ldd	r25, Z+5	; 0x05
6827b98e:	48 17       	cp	r20, r24
6827b990:	59 07       	cpc	r21, r25
6827b992:	00 f4       	brcc	.+0      	; 0x6827b994 <_ZN6String6concatEPKc+0x1441b0fe>
6827b994:	c0 81       	ld	r28, Z
6827b996:	d1 81       	ldd	r29, Z+1	; 0x01
6827b998:	70 e0       	ldi	r23, 0x00	; 0
6827b99a:	ce 01       	movw	r24, r28
6827b99c:	84 0f       	add	r24, r20
6827b99e:	95 1f       	adc	r25, r21
6827b9a0:	0e 94 00 00 	call	0	; 0x0 <__tmp_reg__>
6827b9a4:	00 97       	sbiw	r24, 0x00	; 0
6827b9a6:	01 f0       	breq	.+0      	; 0x6827b9a8 <_ZN6String6concatEPKc+0x1441b112>
6827b9a8:	8c 1b       	sub	r24, r28
6827b9aa:	9d 0b       	sbc	r25, r29
6827b9ac:	00 c0       	rjmp	.+0      	; 0x6827b9ae <_ZN6String6concatEPKc+0x1441b118>
6827b9ae:	8f ef       	ldi	r24, 0xFF	; 255
6827b9b0:	9f ef       	ldi	r25, 0xFF	; 255
6827b9b2:	df 91       	pop	r29
6827b9b4:	cf 91       	pop	r28
6827b9b6:	08 95       	ret

Disassembly of section .text._ZNK6String7indexOfEc:

d04f733c <_ZNK6String7indexOfEc>:
d04f733c:	40 e0       	ldi	r20, 0x00	; 0
d04f733e:	50 e0       	ldi	r21, 0x00	; 0
d04f7340:	0c 94 00 00 	jmp	0	; 0x0 <__tmp_reg__>

Disassembly of section .text._ZNK6String7indexOfERKS_j:

a09ee680 <_ZNK6String7indexOfERKS_j>:
a09ee680:	cf 93       	push	r28
a09ee682:	df 93       	push	r29
a09ee684:	fc 01       	movw	r30, r24
a09ee686:	84 81       	ldd	r24, Z+4	; 0x04
a09ee688:	95 81       	ldd	r25, Z+5	; 0x05
a09ee68a:	48 17       	cp	r20, r24
a09ee68c:	59 07       	cpc	r21, r25
a09ee68e:	00 f4       	brcc	.+0      	; 0xa09ee690 <_ZN6String6concatEPKc+0x4cb8ddfa>
a09ee690:	c0 81       	ld	r28, Z
a09ee692:	d1 81       	ldd	r29, Z+1	; 0x01
a09ee694:	fb 01       	movw	r30, r22
a09ee696:	60 81       	ld	r22, Z
a09ee698:	71 81       	ldd	r23, Z+1	; 0x01
a09ee69a:	ce 01       	movw	r24, r28
a09ee69c:	84 0f       	add	r24, r20
a09ee69e:	95 1f       	adc	r25, r21
a09ee6a0:	0e 94 00 00 	call	0	; 0x0 <__tmp_reg__>
a09ee6a4:	00 97       	sbiw	r24, 0x00	; 0
a09ee6a6:	01 f0       	breq	.+0      	; 0xa09ee6a8 <_ZN6String6concatEPKc+0x4cb8de12>
a09ee6a8:	8c 1b       	sub	r24, r28
a09ee6aa:	9d 0b       	sbc	r25, r29
a09ee6ac:	00 c0       	rjmp	.+0      	; 0xa09ee6ae <_ZN6String6concatEPKc+0x4cb8de18>
a09ee6ae:	8f ef       	ldi	r24, 0xFF	; 255
a09ee6b0:	9f ef       	ldi	r25, 0xFF	; 255
a09ee6b2:	df 91       	pop	r29
a09ee6b4:	cf 91       	pop	r28
a09ee6b6:	08 95       	ret

Disassembly of section .text._ZNK6String7indexOfERKS_:

413dcd38 <_ZNK6String7indexOfERKS_>:
413dcd38:	40 e0       	ldi	r20, 0x00	; 0
413dcd3a:	50 e0       	ldi	r21, 0x00	; 0
413dcd3c:	0c 94 00 00 	jmp	0	; 0x0 <__tmp_reg__>

Disassembly of section .text._ZNK6String11lastIndexOfEcj:

827b9a78 <_ZNK6String11lastIndexOfEcj>:
827b9a78:	df 92       	push	r13
827b9a7a:	ef 92       	push	r14
827b9a7c:	ff 92       	push	r15
827b9a7e:	0f 93       	push	r16
827b9a80:	1f 93       	push	r17
827b9a82:	cf 93       	push	r28
827b9a84:	df 93       	push	r29
827b9a86:	ec 01       	movw	r28, r24
827b9a88:	8c 81       	ldd	r24, Y+4	; 0x04
827b9a8a:	9d 81       	ldd	r25, Y+5	; 0x05
827b9a8c:	48 17       	cp	r20, r24
827b9a8e:	59 07       	cpc	r21, r25
827b9a90:	00 f0       	brcs	.+0      	; 0x827b9a92 <_ZN6String6concatEPKc+0x2e9591fc>
827b9a92:	8f ef       	ldi	r24, 0xFF	; 255
827b9a94:	9f ef       	ldi	r25, 0xFF	; 255
827b9a96:	00 c0       	rjmp	.+0      	; 0x827b9a98 <_ZN6String6concatEPKc+0x2e959202>
827b9a98:	8a 01       	movw	r16, r20
827b9a9a:	0f 5f       	subi	r16, 0xFF	; 255
827b9a9c:	1f 4f       	sbci	r17, 0xFF	; 255
827b9a9e:	e8 81       	ld	r30, Y
827b9aa0:	f9 81       	ldd	r31, Y+1	; 0x01
827b9aa2:	e0 0f       	add	r30, r16
827b9aa4:	f1 1f       	adc	r31, r17
827b9aa6:	d0 80       	ld	r13, Z
827b9aa8:	10 82       	st	Z, r1
827b9aaa:	e8 80       	ld	r14, Y
827b9aac:	f9 80       	ldd	r15, Y+1	; 0x01
827b9aae:	70 e0       	ldi	r23, 0x00	; 0
827b9ab0:	c7 01       	movw	r24, r14
827b9ab2:	0e 94 00 00 	call	0	; 0x0 <__tmp_reg__>
827b9ab6:	f7 01       	movw	r30, r14
827b9ab8:	e0 0f       	add	r30, r16
827b9aba:	f1 1f       	adc	r31, r17
827b9abc:	d0 82       	st	Z, r13
827b9abe:	00 97       	sbiw	r24, 0x00	; 0
827b9ac0:	01 f0       	breq	.+0      	; 0x827b9ac2 <_ZN6String6concatEPKc+0x2e95922c>
827b9ac2:	28 81       	ld	r18, Y
827b9ac4:	39 81       	ldd	r19, Y+1	; 0x01
827b9ac6:	82 1b       	sub	r24, r18
827b9ac8:	93 0b       	sbc	r25, r19
827b9aca:	df 91       	pop	r29
827b9acc:	cf 91       	pop	r28
827b9ace:	1f 91       	pop	r17
827b9ad0:	0f 91       	pop	r16
827b9ad2:	ff 90       	pop	r15
827b9ad4:	ef 90       	pop	r14
827b9ad6:	df 90       	pop	r13
827b9ad8:	08 95       	ret

Disassembly of section .text._ZNK6String11lastIndexOfEc:

04f73552 <_ZNK6String11lastIndexOfEc>:
 4f73552:	fc 01       	movw	r30, r24
 4f73554:	44 81       	ldd	r20, Z+4	; 0x04
 4f73556:	55 81       	ldd	r21, Z+5	; 0x05
 4f73558:	41 50       	subi	r20, 0x01	; 1
 4f7355a:	51 09       	sbc	r21, r1
 4f7355c:	0c 94 00 00 	jmp	0	; 0x0 <__tmp_reg__>

Disassembly of section .text._ZNK6String11lastIndexOfERKS_j:

09ee6ab2 <_ZNK6String11lastIndexOfERKS_j>:
 9ee6ab2:	af 92       	push	r10
 9ee6ab4:	bf 92       	push	r11
 9ee6ab6:	cf 92       	push	r12
 9ee6ab8:	df 92       	push	r13
 9ee6aba:	ef 92       	push	r14
 9ee6abc:	ff 92       	push	r15
 9ee6abe:	0f 93       	push	r16
 9ee6ac0:	1f 93       	push	r17
 9ee6ac2:	cf 93       	push	r28
 9ee6ac4:	df 93       	push	r29
 9ee6ac6:	7b 01       	movw	r14, r22
 9ee6ac8:	ea 01       	movw	r28, r20
 9ee6aca:	fb 01       	movw	r30, r22
 9ee6acc:	44 81       	ldd	r20, Z+4	; 0x04
 9ee6ace:	55 81       	ldd	r21, Z+5	; 0x05
 9ee6ad0:	41 15       	cp	r20, r1
 9ee6ad2:	51 05       	cpc	r21, r1
 9ee6ad4:	01 f0       	breq	.+0      	; 0x9ee6ad6 <_ZN6StringaSEPK19__FlashStringHelper+0x4b00a7e>
 9ee6ad6:	fc 01       	movw	r30, r24
 9ee6ad8:	24 81       	ldd	r18, Z+4	; 0x04
 9ee6ada:	35 81       	ldd	r19, Z+5	; 0x05
 9ee6adc:	21 15       	cp	r18, r1
 9ee6ade:	31 05       	cpc	r19, r1
 9ee6ae0:	01 f0       	breq	.+0      	; 0x9ee6ae2 <_ZN6StringaSEPK19__FlashStringHelper+0x4b00a8a>
 9ee6ae2:	24 17       	cp	r18, r20
 9ee6ae4:	35 07       	cpc	r19, r21
 9ee6ae6:	00 f0       	brcs	.+0      	; 0x9ee6ae8 <_ZN6StringaSEPK19__FlashStringHelper+0x4b00a90>
 9ee6ae8:	c2 17       	cp	r28, r18
 9ee6aea:	d3 07       	cpc	r29, r19
 9ee6aec:	00 f0       	brcs	.+0      	; 0x9ee6aee <_ZN6StringaSEPK19__FlashStringHelper+0x4b00a96>
 9ee6aee:	e9 01       	movw	r28, r18
 9ee6af0:	21 97       	sbiw	r28, 0x01	; 1
 9ee6af2:	fc 01       	movw	r30, r24
 9ee6af4:	00 81       	ld	r16, Z
 9ee6af6:	11 81       	ldd	r17, Z+1	; 0x01
 9ee6af8:	c8 01       	movw	r24, r16
 9ee6afa:	aa 24       	eor	r10, r10
 9ee6afc:	aa 94       	dec	r10
 9ee6afe:	bb 24       	eor	r11, r11
 9ee6b00:	ba 94       	dec	r11
 9ee6b02:	68 01       	movw	r12, r16
 9ee6b04:	cc 0e       	add	r12, r28
 9ee6b06:	dd 1e       	adc	r13, r29
 9ee6b08:	c8 16       	cp	r12, r24
 9ee6b0a:	d9 06       	cpc	r13, r25
 9ee6b0c:	00 f0       	brcs	.+0      	; 0x9ee6b0e <_ZN6StringaSEPK19__FlashStringHelper+0x4b00ab6>
 9ee6b0e:	f7 01       	movw	r30, r14
 9ee6b10:	60 81       	ld	r22, Z
 9ee6b12:	71 81       	ldd	r23, Z+1	; 0x01
 9ee6b14:	0e 94 00 00 	call	0	; 0x0 <__tmp_reg__>
 9ee6b18:	00 97       	sbiw	r24, 0x00	; 0
 9ee6b1a:	01 f0       	breq	.+0      	; 0x9ee6b1c <_ZN6StringaSEPK19__FlashStringHelper+0x4b00ac4>
 9ee6b1c:	9c 01       	movw	r18, r24
 9ee6b1e:	20 1b       	sub	r18, r16
 9ee6b20:	31 0b       	sbc	r19, r17
 9ee6b22:	c2 17       	cp	r28, r18
 9ee6b24:	d3 07       	cpc	r29, r19
 9ee6b26:	00 f4       	brcc	.+0      	; 0x9ee6b28 <_ZN6StringaSEPK19__FlashStringHelper+0x4b00ad0>
 9ee6b28:	95 01       	movw	r18, r10
 9ee6b2a:	01 96       	adiw	r24, 0x01	; 1
 9ee6b2c:	59 01       	movw	r10, r18
 9ee6b2e:	00 c0       	rjmp	.+0      	; 0x9ee6b30 <_ZN6StringaSEPK19__FlashStringHelper+0x4b00ad8>
 9ee6b30:	8f ef       	ldi	r24, 0xFF	; 255
 9ee6b32:	9f ef       	ldi	r25, 0xFF	; 255
 9ee6b34:	00 c0       	rjmp	.+0      	; 0x9ee6b36 <_ZN6StringaSEPK19__FlashStringHelper+0x4b00ade>
 9ee6b36:	c5 01       	movw	r24, r10
 9ee6b38:	df 91       	pop	r29
 9ee6b3a:	cf 91       	pop	r28
 9ee6b3c:	1f 91       	pop	r17
 9ee6b3e:	0f 91       	pop	r16
 9ee6b40:	ff 90       	pop	r15
 9ee6b42:	ef 90       	pop	r14
 9ee6b44:	df 90       	pop	r13
 9ee6b46:	cf 90       	pop	r12
 9ee6b48:	bf 90       	pop	r11
 9ee6b4a:	af 90       	pop	r10
 9ee6b4c:	08 95       	ret

Disassembly of section .text._ZNK6String11lastIndexOfERKS_:

13dcd600 <_ZNK6String11lastIndexOfERKS_>:
13dcd600:	fc 01       	movw	r30, r24
13dcd602:	44 81       	ldd	r20, Z+4	; 0x04
13dcd604:	55 81       	ldd	r21, Z+5	; 0x05
13dcd606:	fb 01       	movw	r30, r22
13dcd608:	24 81       	ldd	r18, Z+4	; 0x04
13dcd60a:	35 81       	ldd	r19, Z+5	; 0x05
13dcd60c:	42 1b       	sub	r20, r18
13dcd60e:	53 0b       	sbc	r21, r19
13dcd610:	0c 94 00 00 	jmp	0	; 0x0 <__tmp_reg__>

Disassembly of section .text._ZNK6String9substringEjj:

4f735829 <_ZNK6String9substringEjj>:
4f735829:	bf 92       	push	r11
4f73582b:	cf 92       	push	r12
4f73582d:	df 92       	push	r13
4f73582f:	ef 92       	push	r14
4f735831:	ff 92       	push	r15
4f735833:	0f 93       	push	r16
4f735835:	1f 93       	push	r17
4f735837:	cf 93       	push	r28
4f735839:	df 93       	push	r29
4f73583b:	6c 01       	movw	r12, r24
4f73583d:	7b 01       	movw	r14, r22
4f73583f:	ea 01       	movw	r28, r20
4f735841:	89 01       	movw	r16, r18
4f735843:	24 17       	cp	r18, r20
4f735845:	35 07       	cpc	r19, r21
4f735847:	00 f4       	brcc	.+0      	; 0x4f735849 <_ZN6String6concatERKS_+0x25805405>
4f735849:	8d 2f       	mov	r24, r29
4f73584b:	e9 01       	movw	r28, r18
4f73584d:	04 2f       	mov	r16, r20
4f73584f:	18 2f       	mov	r17, r24
4f735851:	60 e0       	ldi	r22, 0x00	; 0
4f735853:	70 e0       	ldi	r23, 0x00	; 0
4f735855:	c6 01       	movw	r24, r12
4f735857:	0e 94 00 00 	call	0	; 0x0 <__tmp_reg__>
4f73585b:	d7 01       	movw	r26, r14
4f73585d:	14 96       	adiw	r26, 0x04	; 4
4f73585f:	8d 91       	ld	r24, X+
4f735861:	9c 91       	ld	r25, X
4f735863:	15 97       	sbiw	r26, 0x05	; 5
4f735865:	c8 17       	cp	r28, r24
4f735867:	d9 07       	cpc	r29, r25
4f735869:	00 f4       	brcc	.+0      	; 0x4f73586b <_ZN6String6concatERKS_+0x25805427>
4f73586b:	80 17       	cp	r24, r16
4f73586d:	91 07       	cpc	r25, r17
4f73586f:	00 f4       	brcc	.+0      	; 0x4f735871 <_ZN6String6concatERKS_+0x2580542d>
4f735871:	8c 01       	movw	r16, r24
4f735873:	d7 01       	movw	r26, r14
4f735875:	ed 91       	ld	r30, X+
4f735877:	fc 91       	ld	r31, X
4f735879:	11 97       	sbiw	r26, 0x01	; 1
4f73587b:	e0 0f       	add	r30, r16
4f73587d:	f1 1f       	adc	r31, r17
4f73587f:	b0 80       	ld	r11, Z
4f735881:	10 82       	st	Z, r1
4f735883:	6d 91       	ld	r22, X+
4f735885:	7c 91       	ld	r23, X
4f735887:	6c 0f       	add	r22, r28
4f735889:	7d 1f       	adc	r23, r29
4f73588b:	c6 01       	movw	r24, r12
4f73588d:	0e 94 00 00 	call	0	; 0x0 <__tmp_reg__>
4f735891:	d7 01       	movw	r26, r14
4f735893:	ed 91       	ld	r30, X+
4f735895:	fc 91       	ld	r31, X
4f735897:	e0 0f       	add	r30, r16
4f735899:	f1 1f       	adc	r31, r17
4f73589b:	b0 82       	st	Z, r11
4f73589d:	c6 01       	movw	r24, r12
4f73589f:	df 91       	pop	r29
4f7358a1:	cf 91       	pop	r28
4f7358a3:	1f 91       	pop	r17
4f7358a5:	0f 91       	pop	r16
4f7358a7:	ff 90       	pop	r15
4f7358a9:	ef 90       	pop	r14
4f7358ab:	df 90       	pop	r13
4f7358ad:	cf 90       	pop	r12
4f7358af:	bf 90       	pop	r11
4f7358b1:	08 95       	ret

Disassembly of section .text._ZN6String7replaceEcc:

9ee6b0dc <_ZN6String7replaceEcc>:
9ee6b0dc:	dc 01       	movw	r26, r24
9ee6b0de:	ed 91       	ld	r30, X+
9ee6b0e0:	fc 91       	ld	r31, X
9ee6b0e2:	30 97       	sbiw	r30, 0x00	; 0
9ee6b0e4:	01 f4       	brne	.+0      	; 0x9ee6b0e6 <_ZN6String6concatEPKc+0x4b00a850>
9ee6b0e6:	08 95       	ret
9ee6b0e8:	86 13       	cpse	r24, r22
9ee6b0ea:	00 c0       	rjmp	.+0      	; 0x9ee6b0ec <_ZN6String6concatEPKc+0x4b00a856>
9ee6b0ec:	40 83       	st	Z, r20
9ee6b0ee:	31 96       	adiw	r30, 0x01	; 1
9ee6b0f0:	80 81       	ld	r24, Z
9ee6b0f2:	81 11       	cpse	r24, r1
9ee6b0f4:	00 c0       	rjmp	.+0      	; 0x9ee6b0f6 <_ZN6String6concatEPKc+0x4b00a860>
9ee6b0f6:	08 95       	ret

Disassembly of section .text._ZN6String7replaceERKS_S1_:

3dcd61d4 <_ZN6String7replaceERKS_S1_>:
3dcd61d4:	2f 92       	push	r2
3dcd61d6:	3f 92       	push	r3
3dcd61d8:	4f 92       	push	r4
3dcd61da:	5f 92       	push	r5
3dcd61dc:	6f 92       	push	r6
3dcd61de:	7f 92       	push	r7
3dcd61e0:	8f 92       	push	r8
3dcd61e2:	9f 92       	push	r9
3dcd61e4:	af 92       	push	r10
3dcd61e6:	bf 92       	push	r11
3dcd61e8:	cf 92       	push	r12
3dcd61ea:	df 92       	push	r13
3dcd61ec:	ef 92       	push	r14
3dcd61ee:	ff 92       	push	r15
3dcd61f0:	0f 93       	push	r16
3dcd61f2:	1f 93       	push	r17
3dcd61f4:	cf 93       	push	r28
3dcd61f6:	df 93       	push	r29
3dcd61f8:	ec 01       	movw	r28, r24
3dcd61fa:	5b 01       	movw	r10, r22
3dcd61fc:	7a 01       	movw	r14, r20
3dcd61fe:	4c 80       	ldd	r4, Y+4	; 0x04
3dcd6200:	5d 80       	ldd	r5, Y+5	; 0x05
3dcd6202:	41 14       	cp	r4, r1
3dcd6204:	51 04       	cpc	r5, r1
3dcd6206:	01 f4       	brne	.+0      	; 0x3dcd6208 <_ZN6String6concatERKS_+0x13da5dc4>
3dcd6208:	00 c0       	rjmp	.+0      	; 0x3dcd620a <_ZN6String6concatERKS_+0x13da5dc6>
3dcd620a:	fb 01       	movw	r30, r22
3dcd620c:	64 80       	ldd	r6, Z+4	; 0x04
3dcd620e:	75 80       	ldd	r7, Z+5	; 0x05
3dcd6210:	61 14       	cp	r6, r1
3dcd6212:	71 04       	cpc	r7, r1
3dcd6214:	01 f4       	brne	.+0      	; 0x3dcd6216 <_ZN6String6concatERKS_+0x13da5dd2>
3dcd6216:	00 c0       	rjmp	.+0      	; 0x3dcd6218 <_ZN6String6concatERKS_+0x13da5dd4>
3dcd6218:	fa 01       	movw	r30, r20
3dcd621a:	c4 80       	ldd	r12, Z+4	; 0x04
3dcd621c:	d5 80       	ldd	r13, Z+5	; 0x05
3dcd621e:	c6 18       	sub	r12, r6
3dcd6220:	d7 08       	sbc	r13, r7
3dcd6222:	08 81       	ld	r16, Y
3dcd6224:	19 81       	ldd	r17, Y+1	; 0x01
3dcd6226:	c1 14       	cp	r12, r1
3dcd6228:	d1 04       	cpc	r13, r1
3dcd622a:	01 f4       	brne	.+0      	; 0x3dcd622c <_ZN6String6concatERKS_+0x13da5de8>
3dcd622c:	f5 01       	movw	r30, r10
3dcd622e:	60 81       	ld	r22, Z
3dcd6230:	71 81       	ldd	r23, Z+1	; 0x01
3dcd6232:	c8 01       	movw	r24, r16
3dcd6234:	0e 94 00 00 	call	0	; 0x0 <__tmp_reg__>
3dcd6238:	ec 01       	movw	r28, r24
3dcd623a:	00 97       	sbiw	r24, 0x00	; 0
3dcd623c:	01 f4       	brne	.+0      	; 0x3dcd623e <_ZN6String6concatERKS_+0x13da5dfa>
3dcd623e:	00 c0       	rjmp	.+0      	; 0x3dcd6240 <_ZN6String6concatERKS_+0x13da5dfc>
3dcd6240:	f7 01       	movw	r30, r14
3dcd6242:	60 81       	ld	r22, Z
3dcd6244:	71 81       	ldd	r23, Z+1	; 0x01
3dcd6246:	44 81       	ldd	r20, Z+4	; 0x04
3dcd6248:	55 81       	ldd	r21, Z+5	; 0x05
3dcd624a:	ce 01       	movw	r24, r28
3dcd624c:	0e 94 00 00 	call	0	; 0x0 <__tmp_reg__>
3dcd6250:	f7 01       	movw	r30, r14
3dcd6252:	04 81       	ldd	r16, Z+4	; 0x04
3dcd6254:	15 81       	ldd	r17, Z+5	; 0x05
3dcd6256:	0c 0f       	add	r16, r28
3dcd6258:	1d 1f       	adc	r17, r29
3dcd625a:	00 c0       	rjmp	.+0      	; 0x3dcd625c <_ZN6String6concatERKS_+0x13da5e18>
3dcd625c:	d7 fc       	sbrc	r13, 7
3dcd625e:	00 c0       	rjmp	.+0      	; 0x3dcd6260 <_ZN6String6concatERKS_+0x13da5e1c>
3dcd6260:	fb 01       	movw	r30, r22
3dcd6262:	20 80       	ld	r2, Z
3dcd6264:	31 80       	ldd	r3, Z+1	; 0x01
3dcd6266:	42 01       	movw	r8, r4
3dcd6268:	00 c0       	rjmp	.+0      	; 0x3dcd626a <_ZN6String6concatERKS_+0x13da5e26>
3dcd626a:	48 01       	movw	r8, r16
3dcd626c:	f5 01       	movw	r30, r10
3dcd626e:	60 81       	ld	r22, Z
3dcd6270:	71 81       	ldd	r23, Z+1	; 0x01
3dcd6272:	c8 01       	movw	r24, r16
3dcd6274:	0e 94 00 00 	call	0	; 0x0 <__tmp_reg__>
3dcd6278:	2c 01       	movw	r4, r24
3dcd627a:	00 97       	sbiw	r24, 0x00	; 0
3dcd627c:	01 f0       	breq	.+0      	; 0x3dcd627e <_ZN6String6concatERKS_+0x13da5e3a>
3dcd627e:	32 01       	movw	r6, r4
3dcd6280:	60 1a       	sub	r6, r16
3dcd6282:	71 0a       	sbc	r7, r17
3dcd6284:	a3 01       	movw	r20, r6
3dcd6286:	b8 01       	movw	r22, r16
3dcd6288:	c4 01       	movw	r24, r8
3dcd628a:	0e 94 00 00 	call	0	; 0x0 <__tmp_reg__>
3dcd628e:	68 0c       	add	r6, r8
3dcd6290:	79 1c       	adc	r7, r9
3dcd6292:	f7 01       	movw	r30, r14
3dcd6294:	60 81       	ld	r22, Z
3dcd6296:	71 81       	ldd	r23, Z+1	; 0x01
3dcd6298:	44 81       	ldd	r20, Z+4	; 0x04
3dcd629a:	55 81       	ldd	r21, Z+5	; 0x05
3dcd629c:	c3 01       	movw	r24, r6
3dcd629e:	0e 94 00 00 	call	0	; 0x0 <__tmp_reg__>
3dcd62a2:	f7 01       	movw	r30, r14
3dcd62a4:	84 80       	ldd	r8, Z+4	; 0x04
3dcd62a6:	95 80       	ldd	r9, Z+5	; 0x05
3dcd62a8:	86 0c       	add	r8, r6
3dcd62aa:	97 1c       	adc	r9, r7
3dcd62ac:	f5 01       	movw	r30, r10
3dcd62ae:	04 81       	ldd	r16, Z+4	; 0x04
3dcd62b0:	15 81       	ldd	r17, Z+5	; 0x05
3dcd62b2:	04 0d       	add	r16, r4
3dcd62b4:	15 1d       	adc	r17, r5
3dcd62b6:	8c 81       	ldd	r24, Y+4	; 0x04
3dcd62b8:	9d 81       	ldd	r25, Y+5	; 0x05
3dcd62ba:	8c 0d       	add	r24, r12
3dcd62bc:	9d 1d       	adc	r25, r13
3dcd62be:	9d 83       	std	Y+5, r25	; 0x05
3dcd62c0:	8c 83       	std	Y+4, r24	; 0x04
3dcd62c2:	00 c0       	rjmp	.+0      	; 0x3dcd62c4 <_ZN6String6concatERKS_+0x13da5e80>
3dcd62c4:	b8 01       	movw	r22, r16
3dcd62c6:	c4 01       	movw	r24, r8
3dcd62c8:	df 91       	pop	r29
3dcd62ca:	cf 91       	pop	r28
3dcd62cc:	1f 91       	pop	r17
3dcd62ce:	0f 91       	pop	r16
3dcd62d0:	ff 90       	pop	r15
3dcd62d2:	ef 90       	pop	r14
3dcd62d4:	df 90       	pop	r13
3dcd62d6:	cf 90       	pop	r12
3dcd62d8:	bf 90       	pop	r11
3dcd62da:	af 90       	pop	r10
3dcd62dc:	9f 90       	pop	r9
3dcd62de:	8f 90       	pop	r8
3dcd62e0:	7f 90       	pop	r7
3dcd62e2:	6f 90       	pop	r6
3dcd62e4:	5f 90       	pop	r5
3dcd62e6:	4f 90       	pop	r4
3dcd62e8:	3f 90       	pop	r3
3dcd62ea:	2f 90       	pop	r2
3dcd62ec:	0c 94 00 00 	jmp	0	; 0x0 <__tmp_reg__>
3dcd62f0:	b1 01       	movw	r22, r2
3dcd62f2:	c8 01       	movw	r24, r16
3dcd62f4:	0e 94 00 00 	call	0	; 0x0 <__tmp_reg__>
3dcd62f8:	00 97       	sbiw	r24, 0x00	; 0
3dcd62fa:	01 f0       	breq	.+0      	; 0x3dcd62fc <_ZN6String6concatERKS_+0x13da5eb8>
3dcd62fc:	8c 01       	movw	r16, r24
3dcd62fe:	06 0d       	add	r16, r6
3dcd6300:	17 1d       	adc	r17, r7
3dcd6302:	8c 0c       	add	r8, r12
3dcd6304:	9d 1c       	adc	r9, r13
3dcd6306:	00 c0       	rjmp	.+0      	; 0x3dcd6308 <_ZN6String6concatERKS_+0x13da5ec4>
3dcd6308:	84 14       	cp	r8, r4
3dcd630a:	95 04       	cpc	r9, r5
3dcd630c:	01 f4       	brne	.+0      	; 0x3dcd630e <_ZN6String6concatERKS_+0x13da5eca>
3dcd630e:	00 c0       	rjmp	.+0      	; 0x3dcd6310 <_ZN6String6concatERKS_+0x13da5ecc>
3dcd6310:	8a 81       	ldd	r24, Y+2	; 0x02
3dcd6312:	9b 81       	ldd	r25, Y+3	; 0x03
3dcd6314:	88 15       	cp	r24, r8
3dcd6316:	99 05       	cpc	r25, r9
3dcd6318:	00 f4       	brcc	.+0      	; 0x3dcd631a <_ZN6String6concatERKS_+0x13da5ed6>
3dcd631a:	b4 01       	movw	r22, r8
3dcd631c:	ce 01       	movw	r24, r28
3dcd631e:	0e 94 00 00 	call	0	; 0x0 <__tmp_reg__>
3dcd6322:	88 23       	and	r24, r24
3dcd6324:	01 f0       	breq	.+0      	; 0x3dcd6326 <_ZN6String6concatERKS_+0x13da5ee2>
3dcd6326:	4c 81       	ldd	r20, Y+4	; 0x04
3dcd6328:	5d 81       	ldd	r21, Y+5	; 0x05
3dcd632a:	41 50       	subi	r20, 0x01	; 1
3dcd632c:	51 09       	sbc	r21, r1
3dcd632e:	57 fd       	sbrc	r21, 7
3dcd6330:	00 c0       	rjmp	.+0      	; 0x3dcd6332 <_ZN6String6concatERKS_+0x13da5eee>
3dcd6332:	b5 01       	movw	r22, r10
3dcd6334:	ce 01       	movw	r24, r28
3dcd6336:	0e 94 00 00 	call	0	; 0x0 <__tmp_reg__>
3dcd633a:	8c 01       	movw	r16, r24
3dcd633c:	97 fd       	sbrc	r25, 7
3dcd633e:	00 c0       	rjmp	.+0      	; 0x3dcd6340 <_ZN6String6concatERKS_+0x13da5efc>
3dcd6340:	88 81       	ld	r24, Y
3dcd6342:	99 81       	ldd	r25, Y+1	; 0x01
3dcd6344:	f5 01       	movw	r30, r10
3dcd6346:	24 81       	ldd	r18, Z+4	; 0x04
3dcd6348:	35 81       	ldd	r19, Z+5	; 0x05
3dcd634a:	20 0f       	add	r18, r16
3dcd634c:	31 1f       	adc	r19, r17
3dcd634e:	82 0f       	add	r24, r18
3dcd6350:	93 1f       	adc	r25, r19
3dcd6352:	4c 81       	ldd	r20, Y+4	; 0x04
3dcd6354:	5d 81       	ldd	r21, Y+5	; 0x05
3dcd6356:	42 1b       	sub	r20, r18
3dcd6358:	53 0b       	sbc	r21, r19
3dcd635a:	bc 01       	movw	r22, r24
3dcd635c:	8c 0d       	add	r24, r12
3dcd635e:	9d 1d       	adc	r25, r13
3dcd6360:	0e 94 00 00 	call	0	; 0x0 <__tmp_reg__>
3dcd6364:	8c 81       	ldd	r24, Y+4	; 0x04
3dcd6366:	9d 81       	ldd	r25, Y+5	; 0x05
3dcd6368:	8c 0d       	add	r24, r12
3dcd636a:	9d 1d       	adc	r25, r13
3dcd636c:	9d 83       	std	Y+5, r25	; 0x05
3dcd636e:	8c 83       	std	Y+4, r24	; 0x04
3dcd6370:	e8 81       	ld	r30, Y
3dcd6372:	f9 81       	ldd	r31, Y+1	; 0x01
3dcd6374:	e8 0f       	add	r30, r24
3dcd6376:	f9 1f       	adc	r31, r25
3dcd6378:	10 82       	st	Z, r1
3dcd637a:	88 81       	ld	r24, Y
3dcd637c:	99 81       	ldd	r25, Y+1	; 0x01
3dcd637e:	f7 01       	movw	r30, r14
3dcd6380:	60 81       	ld	r22, Z
3dcd6382:	71 81       	ldd	r23, Z+1	; 0x01
3dcd6384:	44 81       	ldd	r20, Z+4	; 0x04
3dcd6386:	55 81       	ldd	r21, Z+5	; 0x05
3dcd6388:	80 0f       	add	r24, r16
3dcd638a:	91 1f       	adc	r25, r17
3dcd638c:	0e 94 00 00 	call	0	; 0x0 <__tmp_reg__>
3dcd6390:	a8 01       	movw	r20, r16
3dcd6392:	00 c0       	rjmp	.+0      	; 0x3dcd6394 <_ZN6String6concatERKS_+0x13da5f50>
3dcd6394:	df 91       	pop	r29
3dcd6396:	cf 91       	pop	r28
3dcd6398:	1f 91       	pop	r17
3dcd639a:	0f 91       	pop	r16
3dcd639c:	ff 90       	pop	r15
3dcd639e:	ef 90       	pop	r14
3dcd63a0:	df 90       	pop	r13
3dcd63a2:	cf 90       	pop	r12
3dcd63a4:	bf 90       	pop	r11
3dcd63a6:	af 90       	pop	r10
3dcd63a8:	9f 90       	pop	r9
3dcd63aa:	8f 90       	pop	r8
3dcd63ac:	7f 90       	pop	r7
3dcd63ae:	6f 90       	pop	r6
3dcd63b0:	5f 90       	pop	r5
3dcd63b2:	4f 90       	pop	r4
3dcd63b4:	3f 90       	pop	r3
3dcd63b6:	2f 90       	pop	r2
3dcd63b8:	08 95       	ret

Disassembly of section .text._ZN6String6removeEjj:

7b9ac58e <_ZN6String6removeEjj>:
7b9ac58e:	cf 93       	push	r28
7b9ac590:	df 93       	push	r29
7b9ac592:	ec 01       	movw	r28, r24
7b9ac594:	cb 01       	movw	r24, r22
7b9ac596:	2c 81       	ldd	r18, Y+4	; 0x04
7b9ac598:	3d 81       	ldd	r19, Y+5	; 0x05
7b9ac59a:	62 17       	cp	r22, r18
7b9ac59c:	73 07       	cpc	r23, r19
7b9ac59e:	00 f4       	brcc	.+0      	; 0x7b9ac5a0 <_ZN6String6concatEPKc+0x27b4bd0a>
7b9ac5a0:	41 15       	cp	r20, r1
7b9ac5a2:	51 05       	cpc	r21, r1
7b9ac5a4:	01 f0       	breq	.+0      	; 0x7b9ac5a6 <_ZN6String6concatEPKc+0x27b4bd10>
7b9ac5a6:	b9 01       	movw	r22, r18
7b9ac5a8:	68 1b       	sub	r22, r24
7b9ac5aa:	79 0b       	sbc	r23, r25
7b9ac5ac:	46 17       	cp	r20, r22
7b9ac5ae:	57 07       	cpc	r21, r23
7b9ac5b0:	00 f4       	brcc	.+0      	; 0x7b9ac5b2 <_ZN6String6concatEPKc+0x27b4bd1c>
7b9ac5b2:	ba 01       	movw	r22, r20
7b9ac5b4:	e8 81       	ld	r30, Y
7b9ac5b6:	f9 81       	ldd	r31, Y+1	; 0x01
7b9ac5b8:	26 1b       	sub	r18, r22
7b9ac5ba:	37 0b       	sbc	r19, r23
7b9ac5bc:	3d 83       	std	Y+5, r19	; 0x05
7b9ac5be:	2c 83       	std	Y+4, r18	; 0x04
7b9ac5c0:	a9 01       	movw	r20, r18
7b9ac5c2:	48 1b       	sub	r20, r24
7b9ac5c4:	59 0b       	sbc	r21, r25
7b9ac5c6:	68 0f       	add	r22, r24
7b9ac5c8:	79 1f       	adc	r23, r25
7b9ac5ca:	6e 0f       	add	r22, r30
7b9ac5cc:	7f 1f       	adc	r23, r31
7b9ac5ce:	8e 0f       	add	r24, r30
7b9ac5d0:	9f 1f       	adc	r25, r31
7b9ac5d2:	0e 94 00 00 	call	0	; 0x0 <__tmp_reg__>
7b9ac5d6:	e8 81       	ld	r30, Y
7b9ac5d8:	f9 81       	ldd	r31, Y+1	; 0x01
7b9ac5da:	8c 81       	ldd	r24, Y+4	; 0x04
7b9ac5dc:	9d 81       	ldd	r25, Y+5	; 0x05
7b9ac5de:	e8 0f       	add	r30, r24
7b9ac5e0:	f9 1f       	adc	r31, r25
7b9ac5e2:	10 82       	st	Z, r1
7b9ac5e4:	df 91       	pop	r29
7b9ac5e6:	cf 91       	pop	r28
7b9ac5e8:	08 95       	ret

Disassembly of section .text._ZN6String6removeEj:

f7358b78 <_ZN6String6removeEj>:
f7358b78:	4f ef       	ldi	r20, 0xFF	; 255
f7358b7a:	5f ef       	ldi	r21, 0xFF	; 255
f7358b7c:	0c 94 00 00 	jmp	0	; 0x0 <__tmp_reg__>

Disassembly of section .text._ZN6String11toLowerCaseEv:

ee6b16f8 <_ZN6String11toLowerCaseEv>:
ee6b16f8:	cf 93       	push	r28
ee6b16fa:	df 93       	push	r29
ee6b16fc:	fc 01       	movw	r30, r24
ee6b16fe:	c0 81       	ld	r28, Z
ee6b1700:	d1 81       	ldd	r29, Z+1	; 0x01
ee6b1702:	20 97       	sbiw	r28, 0x00	; 0
ee6b1704:	01 f0       	breq	.+0      	; 0xee6b1706 <_ZN6String6concatEc+0x469f05ba>
ee6b1706:	88 81       	ld	r24, Y
ee6b1708:	88 23       	and	r24, r24
ee6b170a:	01 f0       	breq	.+0      	; 0xee6b170c <_ZN6String6concatEc+0x469f05c0>
ee6b170c:	90 e0       	ldi	r25, 0x00	; 0
ee6b170e:	0e 94 00 00 	call	0	; 0x0 <__tmp_reg__>
ee6b1712:	89 93       	st	Y+, r24
ee6b1714:	00 c0       	rjmp	.+0      	; 0xee6b1716 <_ZN6String6concatEc+0x469f05ca>
ee6b1716:	df 91       	pop	r29
ee6b1718:	cf 91       	pop	r28
ee6b171a:	08 95       	ret

Disassembly of section .text._ZN6String11toUpperCaseEv:

dcd62e14 <_ZN6String11toUpperCaseEv>:
dcd62e14:	cf 93       	push	r28
dcd62e16:	df 93       	push	r29
dcd62e18:	fc 01       	movw	r30, r24
dcd62e1a:	c0 81       	ld	r28, Z
dcd62e1c:	d1 81       	ldd	r29, Z+1	; 0x01
dcd62e1e:	20 97       	sbiw	r28, 0x00	; 0
dcd62e20:	01 f0       	breq	.+0      	; 0xdcd62e22 <_ZN6String6concatEc+0x350a1cd6>
dcd62e22:	88 81       	ld	r24, Y
dcd62e24:	88 23       	and	r24, r24
dcd62e26:	01 f0       	breq	.+0      	; 0xdcd62e28 <_ZN6String6concatEc+0x350a1cdc>
dcd62e28:	90 e0       	ldi	r25, 0x00	; 0
dcd62e2a:	0e 94 00 00 	call	0	; 0x0 <__tmp_reg__>
dcd62e2e:	89 93       	st	Y+, r24
dcd62e30:	00 c0       	rjmp	.+0      	; 0xdcd62e32 <_ZN6String6concatEc+0x350a1ce6>
dcd62e32:	df 91       	pop	r29
dcd62e34:	cf 91       	pop	r28
dcd62e36:	08 95       	ret

Disassembly of section .text._ZN6String4trimEv:

b9ac5c4c <_ZN6String4trimEv>:
b9ac5c4c:	af 92       	push	r10
b9ac5c4e:	bf 92       	push	r11
b9ac5c50:	cf 92       	push	r12
b9ac5c52:	df 92       	push	r13
b9ac5c54:	ef 92       	push	r14
b9ac5c56:	ff 92       	push	r15
b9ac5c58:	0f 93       	push	r16
b9ac5c5a:	1f 93       	push	r17
b9ac5c5c:	cf 93       	push	r28
b9ac5c5e:	df 93       	push	r29
b9ac5c60:	7c 01       	movw	r14, r24
b9ac5c62:	dc 01       	movw	r26, r24
b9ac5c64:	cd 90       	ld	r12, X+
b9ac5c66:	dc 90       	ld	r13, X
b9ac5c68:	11 97       	sbiw	r26, 0x01	; 1
b9ac5c6a:	c1 14       	cp	r12, r1
b9ac5c6c:	d1 04       	cpc	r13, r1
b9ac5c6e:	01 f0       	breq	.+0      	; 0xb9ac5c70 <_ZN6String6concatEc+0x11e04b24>
b9ac5c70:	14 96       	adiw	r26, 0x04	; 4
b9ac5c72:	cd 91       	ld	r28, X+
b9ac5c74:	dc 91       	ld	r29, X
b9ac5c76:	15 97       	sbiw	r26, 0x05	; 5
b9ac5c78:	20 97       	sbiw	r28, 0x00	; 0
b9ac5c7a:	01 f0       	breq	.+0      	; 0xb9ac5c7c <_ZN6String6concatEc+0x11e04b30>
b9ac5c7c:	56 01       	movw	r10, r12
b9ac5c7e:	85 01       	movw	r16, r10
b9ac5c80:	bf ef       	ldi	r27, 0xFF	; 255
b9ac5c82:	ab 1a       	sub	r10, r27
b9ac5c84:	bb 0a       	sbc	r11, r27
b9ac5c86:	f8 01       	movw	r30, r16
b9ac5c88:	80 81       	ld	r24, Z
b9ac5c8a:	90 e0       	ldi	r25, 0x00	; 0
b9ac5c8c:	0e 94 00 00 	call	0	; 0x0 <__tmp_reg__>
b9ac5c90:	89 2b       	or	r24, r25
b9ac5c92:	01 f4       	brne	.+0      	; 0xb9ac5c94 <_ZN6String6concatEc+0x11e04b48>
b9ac5c94:	21 97       	sbiw	r28, 0x01	; 1
b9ac5c96:	cc 0d       	add	r28, r12
b9ac5c98:	dd 1d       	adc	r29, r13
b9ac5c9a:	88 81       	ld	r24, Y
b9ac5c9c:	90 e0       	ldi	r25, 0x00	; 0
b9ac5c9e:	0e 94 00 00 	call	0	; 0x0 <__tmp_reg__>
b9ac5ca2:	89 2b       	or	r24, r25
b9ac5ca4:	01 f4       	brne	.+0      	; 0xb9ac5ca6 <_ZN6String6concatEc+0x11e04b5a>
b9ac5ca6:	ae 01       	movw	r20, r28
b9ac5ca8:	4f 5f       	subi	r20, 0xFF	; 255
b9ac5caa:	5f 4f       	sbci	r21, 0xFF	; 255
b9ac5cac:	40 1b       	sub	r20, r16
b9ac5cae:	51 0b       	sbc	r21, r17
b9ac5cb0:	d7 01       	movw	r26, r14
b9ac5cb2:	15 96       	adiw	r26, 0x05	; 5
b9ac5cb4:	5c 93       	st	X, r21
b9ac5cb6:	4e 93       	st	-X, r20
b9ac5cb8:	14 97       	sbiw	r26, 0x04	; 4
b9ac5cba:	c0 16       	cp	r12, r16
b9ac5cbc:	d1 06       	cpc	r13, r17
b9ac5cbe:	00 f4       	brcc	.+0      	; 0xb9ac5cc0 <_ZN6String6concatEc+0x11e04b74>
b9ac5cc0:	b8 01       	movw	r22, r16
b9ac5cc2:	c6 01       	movw	r24, r12
b9ac5cc4:	0e 94 00 00 	call	0	; 0x0 <__tmp_reg__>
b9ac5cc8:	00 c0       	rjmp	.+0      	; 0xb9ac5cca <_ZN6String6concatEc+0x11e04b7e>
b9ac5cca:	c0 17       	cp	r28, r16
b9ac5ccc:	d1 07       	cpc	r29, r17
b9ac5cce:	00 f0       	brcs	.+0      	; 0xb9ac5cd0 <_ZN6String6concatEc+0x11e04b84>
b9ac5cd0:	21 97       	sbiw	r28, 0x01	; 1
b9ac5cd2:	00 c0       	rjmp	.+0      	; 0xb9ac5cd4 <_ZN6String6concatEc+0x11e04b88>
b9ac5cd4:	d7 01       	movw	r26, r14
b9ac5cd6:	ed 91       	ld	r30, X+
b9ac5cd8:	fc 91       	ld	r31, X
b9ac5cda:	11 97       	sbiw	r26, 0x01	; 1
b9ac5cdc:	14 96       	adiw	r26, 0x04	; 4
b9ac5cde:	8d 91       	ld	r24, X+
b9ac5ce0:	9c 91       	ld	r25, X
b9ac5ce2:	15 97       	sbiw	r26, 0x05	; 5
b9ac5ce4:	e8 0f       	add	r30, r24
b9ac5ce6:	f9 1f       	adc	r31, r25
b9ac5ce8:	10 82       	st	Z, r1
b9ac5cea:	df 91       	pop	r29
b9ac5cec:	cf 91       	pop	r28
b9ac5cee:	1f 91       	pop	r17
b9ac5cf0:	0f 91       	pop	r16
b9ac5cf2:	ff 90       	pop	r15
b9ac5cf4:	ef 90       	pop	r14
b9ac5cf6:	df 90       	pop	r13
b9ac5cf8:	cf 90       	pop	r12
b9ac5cfa:	bf 90       	pop	r11
b9ac5cfc:	af 90       	pop	r10
b9ac5cfe:	08 95       	ret

Disassembly of section .text._ZNK6String5toIntEv:

7358b94c <_ZNK6String5toIntEv>:
7358b94c:	fc 01       	movw	r30, r24
7358b94e:	80 81       	ld	r24, Z
7358b950:	91 81       	ldd	r25, Z+1	; 0x01
7358b952:	00 97       	sbiw	r24, 0x00	; 0
7358b954:	01 f0       	breq	.+0      	; 0x7358b956 <_ZN6String6concatEPKc+0x1f72b0c0>
7358b956:	0c 94 00 00 	jmp	0	; 0x0 <__tmp_reg__>
7358b95a:	60 e0       	ldi	r22, 0x00	; 0
7358b95c:	70 e0       	ldi	r23, 0x00	; 0
7358b95e:	cb 01       	movw	r24, r22
7358b960:	08 95       	ret

Disassembly of section .text._ZNK6String7toFloatEv:

e6b172ae <_ZNK6String7toFloatEv>:
e6b172ae:	fc 01       	movw	r30, r24
e6b172b0:	80 81       	ld	r24, Z
e6b172b2:	91 81       	ldd	r25, Z+1	; 0x01
e6b172b4:	00 97       	sbiw	r24, 0x00	; 0
e6b172b6:	01 f0       	breq	.+0      	; 0xe6b172b8 <_ZN6String6concatEc+0x3ee5616c>
e6b172b8:	0c 94 00 00 	jmp	0	; 0x0 <__tmp_reg__>
e6b172bc:	60 e0       	ldi	r22, 0x00	; 0
e6b172be:	70 e0       	ldi	r23, 0x00	; 0
e6b172c0:	cb 01       	movw	r24, r22
e6b172c2:	08 95       	ret

abi.o:     file format elf32-avr

Sections:
Idx Name          Size      VMA       LMA       File off  Algn
  0 .text         00000000  00000000  00000000  00000034  2**0
                  CONTENTS, ALLOC, LOAD, READONLY, CODE
  1 .data         00000008  00000000  00000000  00000034  2**0
                  CONTENTS, ALLOC, LOAD, DATA
  2 .bss          00000000  00000000  00000000  0000003c  2**0
                  ALLOC
  3 .stab         000003a8  00000000  00000000  0000003c  2**2
                  CONTENTS, RELOC, READONLY, DEBUGGING
  4 .stabstr      00000a25  00000000  00000000  000003e4  2**0
                  CONTENTS, READONLY, DEBUGGING
  5 .text.__cxa_pure_virtual 00000004  00000000  00000000  00000e09  2**0
                  CONTENTS, ALLOC, LOAD, RELOC, READONLY, CODE
  6 .text.__cxa_deleted_virtual 00000004  00000000  00000000  00000e0d  2**0
                  CONTENTS, ALLOC, LOAD, RELOC, READONLY, CODE
  7 .comment      00000012  00000000  00000000  00000e11  2**0
                  CONTENTS, READONLY

Disassembly of section .text.__cxa_pure_virtual:

00000000 <__cxa_pure_virtual>:
}

void __cxa_deleted_virtual(void) {
  // We might want to write some diagnostics to uart in this case
  //std::terminate();
  abort();
   0:	0e 94 00 00 	call	0	; 0x0 <__cxa_pure_virtual>

Disassembly of section .text.__cxa_deleted_virtual:

00000000 <__cxa_deleted_virtual>:
  14:	0e 94       	Address 0x0000000000000014 is out of bounds.
.word	0xffff	; ????
	...

hooks.o:     file format elf32-avr

Sections:
Idx Name          Size      VMA       LMA       File off  Algn
  0 .text         00000000  00000000  00000000  00000034  2**0
                  CONTENTS, ALLOC, LOAD, READONLY, CODE
  1 .data         00000000  00000000  00000000  00000034  2**0
                  CONTENTS, ALLOC, LOAD, DATA
  2 .bss          00000000  00000000  00000000  00000034  2**0
                  ALLOC
  3 .stab         0000027c  00000000  00000000  00000034  2**2
                  CONTENTS, RELOC, READONLY, DEBUGGING
  4 .stabstr      00000769  00000000  00000000  000002b0  2**0
                  CONTENTS, READONLY, DEBUGGING
  5 .text.__empty 00000002  00000000  00000000  00000a19  2**0
                  CONTENTS, ALLOC, LOAD, READONLY, CODE
  6 .comment      00000012  00000000  00000000  00000a1b  2**0
                  CONTENTS, READONLY

Disassembly of section .text.__empty:

00000000 <yield>:
 * libraries or sketches that supports cooperative threads.
 *
 * Its defined as a weak symbol and it can be redefined to implement a
 * real cooperative scheduler.
 */
static void __empty() {
   0:	08 95       	ret

main.o:     file format elf32-avr

Sections:
Idx Name          Size      VMA       LMA       File off  Algn
  0 .text         00000000  00000000  00000000  00000034  2**0
                  CONTENTS, ALLOC, LOAD, READONLY, CODE
  1 .data         00000010  00000000  00000000  00000034  2**0
                  CONTENTS, ALLOC, LOAD, DATA
  2 .bss          00000000  00000000  00000000  00000044  2**0
                  ALLOC
  3 .stab         00000774  00000000  00000000  00000044  2**2
                  CONTENTS, RELOC, READONLY, DEBUGGING
  4 .stabstr      000011e3  00000000  00000000  000007b8  2**0
                  CONTENTS, READONLY, DEBUGGING
  5 .text.atexit  00000006  00000000  00000000  0000199b  2**0
                  CONTENTS, ALLOC, LOAD, READONLY, CODE
  6 .text.initVariant 00000002  00000000  00000000  000019a1  2**0
                  CONTENTS, ALLOC, LOAD, READONLY, CODE
  7 .text._Z8setupUSBv 00000002  00000000  00000000  000019a3  2**0
                  CONTENTS, ALLOC, LOAD, READONLY, CODE
  8 .text.startup.main 0000001e  00000000  00000000  000019a5  2**0
                  CONTENTS, ALLOC, LOAD, RELOC, READONLY, CODE
  9 .comment      00000012  00000000  00000000  000019c3  2**0
                  CONTENTS, READONLY

Disassembly of section .text.atexit:

00000000 <atexit>:
void setupUSB() __attribute__((weak));
void setupUSB() { }

int main(void)
{
	init();
   0:	80 e0       	ldi	r24, 0x00	; 0
#endif
	
	setup();
    
	for (;;) {
		loop();
  12:	90 e0       	Address 0x0000000000000012 is out of bounds.
.word	0xffff	; ????
		if (serialEventRun) serialEventRun();
  14:	08 95       	Address 0x0000000000000014 is out of bounds.
.word	0xffff	; ????

Disassembly of section .text.initVariant:

00000026 <initVariant>:
  26:	08 95       	ret

Disassembly of section .text._Z8setupUSBv:

0000004e <_Z8setupUSBv>:
  4e:	08 95       	ret

Disassembly of section .text.startup.main:

0000009e <main>:
  9e:	0e 94 00 00 	call	0	; 0x0 <__tmp_reg__>
  a2:	0e 94 00 00 	call	0	; 0x0 <__tmp_reg__>
  a6:	0e 94 00 00 	call	0	; 0x0 <__tmp_reg__>
  aa:	c0 e0       	ldi	r28, 0x00	; 0
  ac:	d0 e0       	ldi	r29, 0x00	; 0
  ae:	0e 94 00 00 	call	0	; 0x0 <__tmp_reg__>
  b2:	20 97       	sbiw	r28, 0x00	; 0
  b4:	01 f0       	breq	.+0      	; 0xb6 <main+0x18>
  b6:	0e 94 00 00 	call	0	; 0x0 <__tmp_reg__>
  ba:	00 c0       	rjmp	.+0      	; 0xbc <__SREG__+0x7d>

new.o:     file format elf32-avr

Sections:
Idx Name          Size      VMA       LMA       File off  Algn
  0 .text         00000000  00000000  00000000  00000034  2**0
                  CONTENTS, ALLOC, LOAD, READONLY, CODE
  1 .data         00000010  00000000  00000000  00000034  2**0
                  CONTENTS, ALLOC, LOAD, DATA
  2 .bss          00000000  00000000  00000000  00000044  2**0
                  ALLOC
  3 .stab         00000420  00000000  00000000  00000044  2**2
                  CONTENTS, RELOC, READONLY, DEBUGGING
  4 .stabstr      00000a54  00000000  00000000  00000464  2**0
                  CONTENTS, READONLY, DEBUGGING
  5 .text._Znwj   00000004  00000000  00000000  00000eb8  2**0
                  CONTENTS, ALLOC, LOAD, RELOC, READONLY, CODE
  6 .text._Znaj   00000004  00000000  00000000  00000ebc  2**0
                  CONTENTS, ALLOC, LOAD, RELOC, READONLY, CODE
  7 .text._ZdlPv  00000004  00000000  00000000  00000ec0  2**0
                  CONTENTS, ALLOC, LOAD, RELOC, READONLY, CODE
  8 .text._ZdaPv  00000004  00000000  00000000  00000ec4  2**0
                  CONTENTS, ALLOC, LOAD, RELOC, READONLY, CODE
  9 .comment      00000012  00000000  00000000  00000ec8  2**0
                  CONTENTS, READONLY

Disassembly of section .text._Znwj:

00000000 <_Znwj>:
void operator delete(void * ptr) {
  free(ptr);
}

void operator delete[](void * ptr) {
  free(ptr);
   0:	0c 94 00 00 	jmp	0	; 0x0 <_Znwj>

Disassembly of section .text._Znaj:

00000000 <_Znaj>:
  24:	0c 94       	Address 0x0000000000000024 is out of bounds.
.word	0xffff	; ????
	...

Disassembly of section .text._ZdlPv:

0000004c <_ZdlPv>:
  4c:	0c 94 00 00 	jmp	0	; 0x0 <__tmp_reg__>

Disassembly of section .text._ZdaPv:

0000009c <_ZdaPv>:
  9c:	0c 94 00 00 	jmp	0	; 0x0 <__tmp_reg__>

wiring.o:     file format elf32-avr

Sections:
Idx Name          Size      VMA       LMA       File off  Algn
  0 .text         00000000  00000000  00000000  00000034  2**0
                  CONTENTS, ALLOC, LOAD, READONLY, CODE
  1 .data         00000000  00000000  00000000  00000034  2**0
                  CONTENTS, ALLOC, LOAD, DATA
  2 .bss          00000000  00000000  00000000  00000034  2**0
                  ALLOC
  3 .stab         00000a2c  00000000  00000000  00000034  2**2
                  CONTENTS, RELOC, READONLY, DEBUGGING
  4 .stabstr      00001071  00000000  00000000  00000a60  2**0
                  CONTENTS, READONLY, DEBUGGING
  5 .text.__vector_16 00000094  00000000  00000000  00001ad1  2**0
                  CONTENTS, ALLOC, LOAD, RELOC, READONLY, CODE
  6 .text.millis  00000018  00000000  00000000  00001b65  2**0
                  CONTENTS, ALLOC, LOAD, RELOC, READONLY, CODE
  7 .text.micros  00000046  00000000  00000000  00001b7d  2**0
                  CONTENTS, ALLOC, LOAD, RELOC, READONLY, CODE
  8 .text.delay   00000050  00000000  00000000  00001bc3  2**0
                  CONTENTS, ALLOC, LOAD, RELOC, READONLY, CODE
  9 .text.delayMicroseconds 00000016  00000000  00000000  00001c13  2**0
                  CONTENTS, ALLOC, LOAD, RELOC, READONLY, CODE
 10 .text.init    00000076  00000000  00000000  00001c29  2**0
                  CONTENTS, ALLOC, LOAD, READONLY, CODE
 11 .bss.timer0_fract 00000001  00000000  00000000  00001c9f  2**0
                  ALLOC
 12 .bss.timer0_millis 00000004  00000000  00000000  00001c9f  2**0
                  ALLOC
 13 .bss.timer0_overflow_count 00000004  00000000  00000000  00001c9f  2**0
                  ALLOC
 14 .comment      00000012  00000000  00000000  00001c9f  2**0
                  CONTENTS, READONLY

Disassembly of section .text.__vector_16:

00000000 <__vector_16>:

void init()
{
	// this needs to be called before setup() or some functions won't
	// work there
	sei();
   0:	1f 92       	push	r1
	
	// on the ATmega168, timer 0 is also used for fast hardware pwm
	// (using phase-correct PWM would mean that timer 0 overflowed half as often
	// resulting in different millis() behavior on the ATmega8 and ATmega168)
#if defined(TCCR0A) && defined(WGM01)
	sbi(TCCR0A, WGM01);
   2:	0f 92       	push	r0
   4:	0f b6       	in	r0, 0x3f	; 63
   6:	0f 92       	push	r0
	sbi(TCCR0A, WGM00);
   8:	11 24       	eor	r1, r1
   a:	2f 93       	push	r18
   c:	3f 93       	push	r19
	// this combination is for the standard atmega8
	sbi(TCCR0, CS01);
	sbi(TCCR0, CS00);
#elif defined(TCCR0B) && defined(CS01) && defined(CS00)
	// this combination is for the standard 168/328/1280/2560
	sbi(TCCR0B, CS01);
   e:	8f 93       	push	r24
  10:	9f 93       	push	r25
  12:	af 93       	push	r26
	sbi(TCCR0B, CS00);
  14:	bf 93       	push	r27
  16:	80 91 00 00 	lds	r24, 0x0000

	// enable timer 0 overflow interrupt
#if defined(TIMSK) && defined(TOIE0)
	sbi(TIMSK, TOIE0);
#elif defined(TIMSK0) && defined(TOIE0)
	sbi(TIMSK0, TOIE0);
  1a:	90 91 00 00 	lds	r25, 0x0000
  1e:	a0 91 00 00 	lds	r26, 0x0000
  22:	b0 91 00 00 	lds	r27, 0x0000
	// this is better for motors as it ensures an even waveform
	// note, however, that fast pwm mode can achieve a frequency of up
	// 8 MHz (with a 16 MHz clock) at 50% duty cycle

#if defined(TCCR1B) && defined(CS11) && defined(CS10)
	TCCR1B = 0;
  26:	30 91 00 00 	lds	r19, 0x0000

	// set timer 1 prescale factor to 64
	sbi(TCCR1B, CS11);
  2a:	23 e0       	ldi	r18, 0x03	; 3
  2c:	23 0f       	add	r18, r19
  2e:	2d 37       	cpi	r18, 0x7D	; 125
#if F_CPU >= 8000000L
	sbi(TCCR1B, CS10);
  30:	00 f4       	brcc	.+0      	; 0x32 <__vector_16+0x32>
  32:	01 96       	adiw	r24, 0x01	; 1
  34:	a1 1d       	adc	r26, r1
	sbi(TCCR1, CS10);
#endif
#endif
	// put timer 1 in 8-bit phase correct pwm mode
#if defined(TCCR1A) && defined(WGM10)
	sbi(TCCR1A, WGM10);
  36:	b1 1d       	adc	r27, r1
  38:	00 c0       	rjmp	.+0      	; 0x3a <__vector_16+0x3a>
  3a:	26 e8       	ldi	r18, 0x86	; 134
  3c:	23 0f       	add	r18, r19
  3e:	02 96       	adiw	r24, 0x02	; 2

	// set timer 2 prescale factor to 64
#if defined(TCCR2) && defined(CS22)
	sbi(TCCR2, CS22);
#elif defined(TCCR2B) && defined(CS22)
	sbi(TCCR2B, CS22);
  40:	a1 1d       	adc	r26, r1
  42:	b1 1d       	adc	r27, r1
  44:	20 93 00 00 	sts	0x0000, r18
  48:	80 93 00 00 	sts	0x0000, r24

	// configure timer 2 for phase correct pwm (8-bit)
#if defined(TCCR2) && defined(WGM20)
	sbi(TCCR2, WGM20);
#elif defined(TCCR2A) && defined(WGM20)
	sbi(TCCR2A, WGM20);
  4c:	90 93 00 00 	sts	0x0000, r25
  50:	a0 93 00 00 	sts	0x0000, r26
#endif

#if defined(ADCSRA)
	// set a2d prescaler so we are inside the desired 50-200 KHz range.
	#if F_CPU >= 16000000 // 16 MHz / 128 = 125 KHz
		sbi(ADCSRA, ADPS2);
  54:	b0 93 00 00 	sts	0x0000, r27
  58:	80 91 00 00 	lds	r24, 0x0000
  5c:	90 91 00 00 	lds	r25, 0x0000
		sbi(ADCSRA, ADPS1);
  60:	a0 91 00 00 	lds	r26, 0x0000
		sbi(ADCSRA, ADPS0);
  64:	b0 91 00 00 	lds	r27, 0x0000
  68:	01 96       	adiw	r24, 0x01	; 1
		cbi(ADCSRA, ADPS2);
		cbi(ADCSRA, ADPS1);
		sbi(ADCSRA, ADPS0);
	#endif
	// enable a2d conversions
	sbi(ADCSRA, ADEN);
  6a:	a1 1d       	adc	r26, r1
  6c:	b1 1d       	adc	r27, r1
  6e:	80 93 00 00 	sts	0x0000, r24
	// here so they can be used as normal digital i/o; they will be
	// reconnected in Serial.begin()
#if defined(UCSRB)
	UCSRB = 0;
#elif defined(UCSR0B)
	UCSR0B = 0;
  72:	90 93 00 00 	sts	0x0000, r25
  76:	a0 93 00 00 	sts	0x0000, r26
  7a:	b0 93 00 00 	sts	0x0000, r27
  7e:	bf 91       	pop	r27
  80:	af 91       	pop	r26
  82:	9f 91       	pop	r25
  84:	8f 91       	pop	r24
  86:	3f 91       	pop	r19
  88:	2f 91       	pop	r18
  8a:	0f 90       	pop	r0
  8c:	0f be       	out	0x3f, r0	; 63
  8e:	0f 90       	pop	r0
  90:	1f 90       	pop	r1
  92:	18 95       	reti

Disassembly of section .text.millis:

00000094 <millis>:
  94:	2f b7       	in	r18, 0x3f	; 63
  96:	f8 94       	cli
  98:	60 91 00 00 	lds	r22, 0x0000
  9c:	70 91 00 00 	lds	r23, 0x0000
  a0:	80 91 00 00 	lds	r24, 0x0000
  a4:	90 91 00 00 	lds	r25, 0x0000
  a8:	2f bf       	out	0x3f, r18	; 63
  aa:	08 95       	ret

Disassembly of section .text.micros:

00000140 <micros>:
 140:	3f b7       	in	r19, 0x3f	; 63
 142:	f8 94       	cli
 144:	80 91 00 00 	lds	r24, 0x0000
 148:	90 91 00 00 	lds	r25, 0x0000
 14c:	a0 91 00 00 	lds	r26, 0x0000
 150:	b0 91 00 00 	lds	r27, 0x0000
 154:	26 b5       	in	r18, 0x26	; 38
 156:	a8 9b       	sbis	0x15, 0	; 21
 158:	00 c0       	rjmp	.+0      	; 0x15a <micros+0x1a>
 15a:	2f 3f       	cpi	r18, 0xFF	; 255
 15c:	01 f0       	breq	.+0      	; 0x15e <micros+0x1e>
 15e:	01 96       	adiw	r24, 0x01	; 1
 160:	a1 1d       	adc	r26, r1
 162:	b1 1d       	adc	r27, r1
 164:	3f bf       	out	0x3f, r19	; 63
 166:	66 27       	eor	r22, r22
 168:	78 2f       	mov	r23, r24
 16a:	89 2f       	mov	r24, r25
 16c:	9a 2f       	mov	r25, r26
 16e:	62 0f       	add	r22, r18
 170:	71 1d       	adc	r23, r1
 172:	81 1d       	adc	r24, r1
 174:	91 1d       	adc	r25, r1
 176:	42 e0       	ldi	r20, 0x02	; 2
 178:	66 0f       	add	r22, r22
 17a:	77 1f       	adc	r23, r23
 17c:	88 1f       	adc	r24, r24
 17e:	99 1f       	adc	r25, r25
 180:	4a 95       	dec	r20
 182:	01 f4       	brne	.+0      	; 0x184 <micros+0x44>
 184:	08 95       	ret

Disassembly of section .text.delay:

000002c6 <delay>:
 2c6:	cf 92       	push	r12
 2c8:	df 92       	push	r13
 2ca:	ef 92       	push	r14
 2cc:	ff 92       	push	r15
 2ce:	cf 93       	push	r28
 2d0:	df 93       	push	r29
 2d2:	6b 01       	movw	r12, r22
 2d4:	7c 01       	movw	r14, r24
 2d6:	0e 94 00 00 	call	0	; 0x0 <__tmp_reg__>
 2da:	eb 01       	movw	r28, r22
 2dc:	c1 14       	cp	r12, r1
 2de:	d1 04       	cpc	r13, r1
 2e0:	e1 04       	cpc	r14, r1
 2e2:	f1 04       	cpc	r15, r1
 2e4:	01 f0       	breq	.+0      	; 0x2e6 <delay+0x20>
 2e6:	0e 94 00 00 	call	0	; 0x0 <__tmp_reg__>
 2ea:	0e 94 00 00 	call	0	; 0x0 <__tmp_reg__>
 2ee:	6c 1b       	sub	r22, r28
 2f0:	7d 0b       	sbc	r23, r29
 2f2:	68 3e       	cpi	r22, 0xE8	; 232
 2f4:	73 40       	sbci	r23, 0x03	; 3
 2f6:	00 f0       	brcs	.+0      	; 0x2f8 <delay+0x32>
 2f8:	81 e0       	ldi	r24, 0x01	; 1
 2fa:	c8 1a       	sub	r12, r24
 2fc:	d1 08       	sbc	r13, r1
 2fe:	e1 08       	sbc	r14, r1
 300:	f1 08       	sbc	r15, r1
 302:	c8 51       	subi	r28, 0x18	; 24
 304:	dc 4f       	sbci	r29, 0xFC	; 252
 306:	00 c0       	rjmp	.+0      	; 0x308 <delay+0x42>
 308:	df 91       	pop	r29
 30a:	cf 91       	pop	r28
 30c:	ff 90       	pop	r15
 30e:	ef 90       	pop	r14
 310:	df 90       	pop	r13
 312:	cf 90       	pop	r12
 314:	08 95       	ret

Disassembly of section .text.delayMicroseconds:

000005dc <delayMicroseconds>:
 5dc:	82 30       	cpi	r24, 0x02	; 2
 5de:	91 05       	cpc	r25, r1
 5e0:	00 f0       	brcs	.+0      	; 0x5e2 <delayMicroseconds+0x6>
 5e2:	88 0f       	add	r24, r24
 5e4:	99 1f       	adc	r25, r25
 5e6:	88 0f       	add	r24, r24
 5e8:	99 1f       	adc	r25, r25
 5ea:	05 97       	sbiw	r24, 0x05	; 5
 5ec:	01 97       	sbiw	r24, 0x01	; 1
 5ee:	01 f4       	brne	.+0      	; 0x5f0 <delayMicroseconds+0x14>
 5f0:	08 95       	ret

Disassembly of section .text.init:

00000bce <init>:
 bce:	78 94       	sei
 bd0:	84 b5       	in	r24, 0x24	; 36
 bd2:	82 60       	ori	r24, 0x02	; 2
 bd4:	84 bd       	out	0x24, r24	; 36
 bd6:	84 b5       	in	r24, 0x24	; 36
 bd8:	81 60       	ori	r24, 0x01	; 1
 bda:	84 bd       	out	0x24, r24	; 36
 bdc:	85 b5       	in	r24, 0x25	; 37
 bde:	82 60       	ori	r24, 0x02	; 2
 be0:	85 bd       	out	0x25, r24	; 37
 be2:	85 b5       	in	r24, 0x25	; 37
 be4:	81 60       	ori	r24, 0x01	; 1
 be6:	85 bd       	out	0x25, r24	; 37
 be8:	ee e6       	ldi	r30, 0x6E	; 110
 bea:	f0 e0       	ldi	r31, 0x00	; 0
 bec:	80 81       	ld	r24, Z
 bee:	81 60       	ori	r24, 0x01	; 1
 bf0:	80 83       	st	Z, r24
 bf2:	e1 e8       	ldi	r30, 0x81	; 129
 bf4:	f0 e0       	ldi	r31, 0x00	; 0
 bf6:	10 82       	st	Z, r1
 bf8:	80 81       	ld	r24, Z
 bfa:	82 60       	ori	r24, 0x02	; 2
 bfc:	80 83       	st	Z, r24
 bfe:	80 81       	ld	r24, Z
 c00:	81 60       	ori	r24, 0x01	; 1
 c02:	80 83       	st	Z, r24
 c04:	e0 e8       	ldi	r30, 0x80	; 128
 c06:	f0 e0       	ldi	r31, 0x00	; 0
 c08:	80 81       	ld	r24, Z
 c0a:	81 60       	ori	r24, 0x01	; 1
 c0c:	80 83       	st	Z, r24
 c0e:	e1 eb       	ldi	r30, 0xB1	; 177
 c10:	f0 e0       	ldi	r31, 0x00	; 0
 c12:	80 81       	ld	r24, Z
 c14:	84 60       	ori	r24, 0x04	; 4
 c16:	80 83       	st	Z, r24
 c18:	e0 eb       	ldi	r30, 0xB0	; 176
 c1a:	f0 e0       	ldi	r31, 0x00	; 0
 c1c:	80 81       	ld	r24, Z
 c1e:	81 60       	ori	r24, 0x01	; 1
 c20:	80 83       	st	Z, r24
 c22:	ea e7       	ldi	r30, 0x7A	; 122
 c24:	f0 e0       	ldi	r31, 0x00	; 0
 c26:	80 81       	ld	r24, Z
 c28:	84 60       	ori	r24, 0x04	; 4
 c2a:	80 83       	st	Z, r24
 c2c:	80 81       	ld	r24, Z
 c2e:	82 60       	ori	r24, 0x02	; 2
 c30:	80 83       	st	Z, r24
 c32:	80 81       	ld	r24, Z
 c34:	81 60       	ori	r24, 0x01	; 1
 c36:	80 83       	st	Z, r24
 c38:	80 81       	ld	r24, Z
 c3a:	80 68       	ori	r24, 0x80	; 128
 c3c:	80 83       	st	Z, r24
 c3e:	10 92 c1 00 	sts	0x00C1, r1
 c42:	08 95       	ret

wiring_analog.o:     file format elf32-avr

Sections:
Idx Name          Size      VMA       LMA       File off  Algn
  0 .text         00000000  00000000  00000000  00000034  2**0
                  CONTENTS, ALLOC, LOAD, READONLY, CODE
  1 .data         00000000  00000000  00000000  00000034  2**0
                  CONTENTS, ALLOC, LOAD, DATA
  2 .bss          00000000  00000000  00000000  00000034  2**0
                  ALLOC
  3 .stab         000008d0  00000000  00000000  00000034  2**2
                  CONTENTS, RELOC, READONLY, DEBUGGING
  4 .stabstr      00001013  00000000  00000000  00000904  2**0
                  CONTENTS, READONLY, DEBUGGING
  5 .text.analogReference 00000006  00000000  00000000  00001917  2**0
                  CONTENTS, ALLOC, LOAD, RELOC, READONLY, CODE
  6 .text.analogRead 0000003a  00000000  00000000  0000191d  2**0
                  CONTENTS, ALLOC, LOAD, RELOC, READONLY, CODE
  7 .text.analogWrite 000000be  00000000  00000000  00001957  2**0
                  CONTENTS, ALLOC, LOAD, RELOC, READONLY, CODE
  8 .data.analog_reference 00000001  00000000  00000000  00001a15  2**0
                  CONTENTS, ALLOC, LOAD, DATA
  9 .comment      00000012  00000000  00000000  00001a16  2**0
                  CONTENTS, READONLY

Disassembly of section .text.analogReference:

00000000 <analogReference>:
// Right now, PWM output only works on the pins with
// hardware support.  These are defined in the appropriate
// pins_*.c file.  For the rest of the pins, we default
// to digital output.
void analogWrite(uint8_t pin, int val)
{
   0:	80 93 00 00 	sts	0x0000, r24
   4:	08 95       	ret

Disassembly of section .text.analogRead:

00000006 <analogRead>:
   6:	8e 30       	cpi	r24, 0x0E	; 14
   8:	00 f0       	brcs	.+0      	; 0xa <analogRead+0x4>
	// We need to make sure the PWM output is enabled for those pins
	// that support it, as we turn it off when digitally reading or
	// writing with them.  Also, make sure the pin is in output mode
	// for consistenty with Wiring, which doesn't require a pinMode
	// call for the analog output pins.
	pinMode(pin, OUTPUT);
   a:	8e 50       	subi	r24, 0x0E	; 14
   c:	87 70       	andi	r24, 0x07	; 7
   e:	20 91 00 00 	lds	r18, 0x0000
	if (val == 0)
  12:	90 e4       	ldi	r25, 0x40	; 64
	{
		digitalWrite(pin, LOW);
  14:	29 9f       	mul	r18, r25
  16:	90 01       	movw	r18, r0
	}
	else if (val == 255)
  18:	11 24       	eor	r1, r1
  1a:	82 2b       	or	r24, r18
  1c:	80 93 7c 00 	sts	0x007C, r24
	{
		digitalWrite(pin, HIGH);
  20:	80 91 7a 00 	lds	r24, 0x007A
				} else {
					digitalWrite(pin, HIGH);
				}
		}
	}
}
  24:	80 64       	ori	r24, 0x40	; 64
  26:	80 93 7a 00 	sts	0x007A, r24
	{
		digitalWrite(pin, LOW);
	}
	else if (val == 255)
	{
		digitalWrite(pin, HIGH);
  2a:	80 91 7a 00 	lds	r24, 0x007A
	}
	else
	{
		switch(digitalPinToTimer(pin))
  2e:	86 fd       	sbrc	r24, 6
  30:	00 c0       	rjmp	.+0      	; 0x32 <analogRead+0x2c>
  32:	80 91 78 00 	lds	r24, 0x0078
  36:	20 91 79 00 	lds	r18, 0x0079
  3a:	90 e0       	ldi	r25, 0x00	; 0
  3c:	92 2b       	or	r25, r18
  3e:	08 95       	ret

Disassembly of section .text.analogWrite:

00000046 <analogWrite>:
			#endif

			#if defined(TCCR0A) && defined(COM0B1)
			case TIMER0B:
				// connect pwm to pin on timer 0, channel B
				sbi(TCCR0A, COM0B1);
  46:	1f 93       	push	r17
  48:	cf 93       	push	r28
				OCR0B = val; // set pwm duty
  4a:	df 93       	push	r29
				break;
  4c:	18 2f       	mov	r17, r24
	{
		digitalWrite(pin, HIGH);
	}
	else
	{
		switch(digitalPinToTimer(pin))
  4e:	eb 01       	movw	r28, r22
  50:	61 e0       	ldi	r22, 0x01	; 1
  52:	0e 94 00 00 	call	0	; 0x0 <__tmp_reg__>
  56:	20 97       	sbiw	r28, 0x00	; 0
  58:	01 f4       	brne	.+0      	; 0x5a <analogWrite+0x14>
			#endif

			#if defined(TCCR1A) && defined(COM1B1)
			case TIMER1B:
				// connect pwm to pin on timer 1, channel B
				sbi(TCCR1A, COM1B1);
  5a:	60 e0       	ldi	r22, 0x00	; 0
  5c:	00 c0       	rjmp	.+0      	; 0x5e <analogWrite+0x18>
  5e:	cf 3f       	cpi	r28, 0xFF	; 255
  60:	d1 05       	cpc	r29, r1
  62:	01 f4       	brne	.+0      	; 0x64 <analogWrite+0x1e>
				OCR1B = val; // set pwm duty
  64:	61 e0       	ldi	r22, 0x01	; 1
  66:	81 2f       	mov	r24, r17
  68:	df 91       	pop	r29
  6a:	cf 91       	pop	r28
				break;
  6c:	1f 91       	pop	r17
			#endif

			#if defined(TCCR0A) && defined(COM0A1)
			case TIMER0A:
				// connect pwm to pin on timer 0, channel A
				sbi(TCCR0A, COM0A1);
  6e:	0c 94 00 00 	jmp	0	; 0x0 <__tmp_reg__>
  72:	e1 2f       	mov	r30, r17
				OCR0A = val; // set pwm duty
  74:	f0 e0       	ldi	r31, 0x00	; 0
				break;
  76:	e0 50       	subi	r30, 0x00	; 0
			#endif

			#if defined(TCCR1A) && defined(COM1A1)
			case TIMER1A:
				// connect pwm to pin on timer 1, channel A
				sbi(TCCR1A, COM1A1);
  78:	f0 40       	sbci	r31, 0x00	; 0
  7a:	e4 91       	lpm	r30, Z
  7c:	e3 30       	cpi	r30, 0x03	; 3
  7e:	01 f0       	breq	.+0      	; 0x80 <analogWrite+0x3a>
  80:	00 f4       	brcc	.+0      	; 0x82 <analogWrite+0x3c>
				OCR1A = val; // set pwm duty
  82:	e1 30       	cpi	r30, 0x01	; 1
  84:	01 f0       	breq	.+0      	; 0x86 <analogWrite+0x40>
  86:	e2 30       	cpi	r30, 0x02	; 2
  88:	01 f4       	brne	.+0      	; 0x8a <analogWrite+0x44>
				break;
  8a:	84 b5       	in	r24, 0x24	; 36
			#endif

			#if defined(TCCR2A) && defined(COM2A1)
			case TIMER2A:
				// connect pwm to pin on timer 2, channel A
				sbi(TCCR2A, COM2A1);
  8c:	80 62       	ori	r24, 0x20	; 32
  8e:	84 bd       	out	0x24, r24	; 36
  90:	c8 bd       	out	0x28, r28	; 40
  92:	00 c0       	rjmp	.+0      	; 0x94 <analogWrite+0x4e>
  94:	e7 30       	cpi	r30, 0x07	; 7
				OCR2A = val; // set pwm duty
  96:	01 f0       	breq	.+0      	; 0x98 <analogWrite+0x52>
  98:	e8 30       	cpi	r30, 0x08	; 8
				break;
  9a:	01 f0       	breq	.+0      	; 0x9c <analogWrite+0x56>
			#endif

			#if defined(TCCR2A) && defined(COM2B1)
			case TIMER2B:
				// connect pwm to pin on timer 2, channel B
				sbi(TCCR2A, COM2B1);
  9c:	e4 30       	cpi	r30, 0x04	; 4
  9e:	01 f4       	brne	.+0      	; 0xa0 <analogWrite+0x5a>
  a0:	80 91 80 00 	lds	r24, 0x0080
  a4:	80 62       	ori	r24, 0x20	; 32
				OCR2B = val; // set pwm duty
  a6:	80 93 80 00 	sts	0x0080, r24
				break;
  aa:	d0 93 8b 00 	sts	0x008B, r29
				break;
			#endif

			case NOT_ON_TIMER:
			default:
				if (val < 128) {
  ae:	c0 93 8a 00 	sts	0x008A, r28
  b2:	00 c0       	rjmp	.+0      	; 0xb4 <analogWrite+0x6e>
  b4:	84 b5       	in	r24, 0x24	; 36
				} else {
					digitalWrite(pin, HIGH);
				}
		}
	}
}
  b6:	80 68       	ori	r24, 0x80	; 128
  b8:	84 bd       	out	0x24, r24	; 36
  ba:	c7 bd       	out	0x27, r28	; 39
  bc:	00 c0       	rjmp	.+0      	; 0xbe <analogWrite+0x78>
  be:	80 91 80 00 	lds	r24, 0x0080
  c2:	80 68       	ori	r24, 0x80	; 128
  c4:	80 93 80 00 	sts	0x0080, r24
  c8:	d0 93 89 00 	sts	0x0089, r29
  cc:	c0 93 88 00 	sts	0x0088, r28
  d0:	00 c0       	rjmp	.+0      	; 0xd2 <analogWrite+0x8c>
  d2:	80 91 b0 00 	lds	r24, 0x00B0
  d6:	80 68       	ori	r24, 0x80	; 128
  d8:	80 93 b0 00 	sts	0x00B0, r24
  dc:	c0 93 b3 00 	sts	0x00B3, r28
  e0:	00 c0       	rjmp	.+0      	; 0xe2 <analogWrite+0x9c>
  e2:	80 91 b0 00 	lds	r24, 0x00B0
  e6:	80 62       	ori	r24, 0x20	; 32
  e8:	80 93 b0 00 	sts	0x00B0, r24
  ec:	c0 93 b4 00 	sts	0x00B4, r28
  f0:	00 c0       	rjmp	.+0      	; 0xf2 <analogWrite+0xac>
  f2:	c0 38       	cpi	r28, 0x80	; 128
  f4:	d1 05       	cpc	r29, r1
  f6:	04 f0       	brlt	.+0      	; 0xf8 <analogWrite+0xb2>
  f8:	00 c0       	rjmp	.+0      	; 0xfa <analogWrite+0xb4>
  fa:	00 c0       	rjmp	.+0      	; 0xfc <analogWrite+0xb6>
  fc:	df 91       	pop	r29
  fe:	cf 91       	pop	r28
 100:	1f 91       	pop	r17
 102:	08 95       	ret

wiring_digital.o:     file format elf32-avr

Sections:
Idx Name          Size      VMA       LMA       File off  Algn
  0 .text         00000000  00000000  00000000  00000034  2**0
                  CONTENTS, ALLOC, LOAD, READONLY, CODE
  1 .data         00000000  00000000  00000000  00000034  2**0
                  CONTENTS, ALLOC, LOAD, DATA
  2 .bss          00000000  00000000  00000000  00000034  2**0
                  ALLOC
  3 .stab         00000b1c  00000000  00000000  00000034  2**2
                  CONTENTS, RELOC, READONLY, DEBUGGING
  4 .stabstr      000011af  00000000  00000000  00000b50  2**0
                  CONTENTS, READONLY, DEBUGGING
  5 .text.turnOffPWM 00000052  00000000  00000000  00001cff  2**0
                  CONTENTS, ALLOC, LOAD, RELOC, READONLY, CODE
  6 .text.pinMode 00000072  00000000  00000000  00001d51  2**0
                  CONTENTS, ALLOC, LOAD, RELOC, READONLY, CODE
  7 .text.digitalWrite 0000006c  00000000  00000000  00001dc3  2**0
                  CONTENTS, ALLOC, LOAD, RELOC, READONLY, CODE
  8 .text.digitalRead 00000052  00000000  00000000  00001e2f  2**0
                  CONTENTS, ALLOC, LOAD, RELOC, READONLY, CODE
  9 .progmem.data.digital_pin_to_timer_PGM 00000014  00000000  00000000  00001e81  2**0
                  CONTENTS, ALLOC, LOAD, READONLY, DATA
 10 .progmem.data.digital_pin_to_bit_mask_PGM 00000014  00000000  00000000  00001e95  2**0
                  CONTENTS, ALLOC, LOAD, READONLY, DATA
 11 .progmem.data.digital_pin_to_port_PGM 00000014  00000000  00000000  00001ea9  2**0
                  CONTENTS, ALLOC, LOAD, READONLY, DATA
 12 .progmem.data.port_to_input_PGM 0000000a  00000000  00000000  00001ebd  2**0
                  CONTENTS, ALLOC, LOAD, READONLY, DATA
 13 .progmem.data.port_to_output_PGM 0000000a  00000000  00000000  00001ec7  2**0
                  CONTENTS, ALLOC, LOAD, READONLY, DATA
 14 .progmem.data.port_to_mode_PGM 0000000a  00000000  00000000  00001ed1  2**0
                  CONTENTS, ALLOC, LOAD, READONLY, DATA
 15 .comment      00000012  00000000  00000000  00001edb  2**0
                  CONTENTS, READONLY

Disassembly of section .text.turnOffPWM:

00000000 <turnOffPWM>:

	SREG = oldSREG;
}

int digitalRead(uint8_t pin)
{
   0:	83 30       	cpi	r24, 0x03	; 3
   2:	01 f0       	breq	.+0      	; 0x4 <turnOffPWM+0x4>
	uint8_t timer = digitalPinToTimer(pin);
   4:	00 f4       	brcc	.+0      	; 0x6 <turnOffPWM+0x6>
   6:	81 30       	cpi	r24, 0x01	; 1
   8:	01 f0       	breq	.+0      	; 0xa <turnOffPWM+0xa>
   a:	82 30       	cpi	r24, 0x02	; 2
   c:	01 f0       	breq	.+0      	; 0xe <turnOffPWM+0xe>
   e:	08 95       	ret
	uint8_t bit = digitalPinToBitMask(pin);
  10:	87 30       	cpi	r24, 0x07	; 7
  12:	01 f0       	breq	.+0      	; 0x14 <turnOffPWM+0x14>
  14:	88 30       	cpi	r24, 0x08	; 8
  16:	01 f0       	breq	.+0      	; 0x18 <turnOffPWM+0x18>
	uint8_t port = digitalPinToPort(pin);
  18:	84 30       	cpi	r24, 0x04	; 4
  1a:	01 f4       	brne	.+0      	; 0x1c <turnOffPWM+0x1c>
  1c:	80 91 80 00 	lds	r24, 0x0080

	if (port == NOT_A_PIN) return LOW;
  20:	8f 7d       	andi	r24, 0xDF	; 223
  22:	00 c0       	rjmp	.+0      	; 0x24 <turnOffPWM+0x24>

	// If the pin that support PWM output, we need to turn it off
	// before getting a digital reading.
	if (timer != NOT_ON_TIMER) turnOffPWM(timer);
  24:	80 91 80 00 	lds	r24, 0x0080
  28:	8f 77       	andi	r24, 0x7F	; 127

	if (*portInputRegister(port) & bit) return HIGH;
  2a:	80 93 80 00 	sts	0x0080, r24
  2e:	08 95       	ret
  30:	84 b5       	in	r24, 0x24	; 36
  32:	8f 77       	andi	r24, 0x7F	; 127
  34:	00 c0       	rjmp	.+0      	; 0x36 <turnOffPWM+0x36>
  36:	84 b5       	in	r24, 0x24	; 36
  38:	8f 7d       	andi	r24, 0xDF	; 223
  3a:	84 bd       	out	0x24, r24	; 36
  3c:	08 95       	ret
  3e:	80 91 b0 00 	lds	r24, 0x00B0
  42:	8f 77       	andi	r24, 0x7F	; 127
  44:	00 c0       	rjmp	.+0      	; 0x46 <turnOffPWM+0x46>
  46:	80 91 b0 00 	lds	r24, 0x00B0
{
	uint8_t timer = digitalPinToTimer(pin);
	uint8_t bit = digitalPinToBitMask(pin);
	uint8_t port = digitalPinToPort(pin);

	if (port == NOT_A_PIN) return LOW;
  4a:	8f 7d       	andi	r24, 0xDF	; 223
	// before getting a digital reading.
	if (timer != NOT_ON_TIMER) turnOffPWM(timer);

	if (*portInputRegister(port) & bit) return HIGH;
	return LOW;
}
  4c:	80 93 b0 00 	sts	0x00B0, r24
  50:	08 95       	ret

Disassembly of section .text.pinMode:

00000052 <pinMode>:
  52:	cf 93       	push	r28
  54:	df 93       	push	r29
  56:	90 e0       	ldi	r25, 0x00	; 0
  58:	fc 01       	movw	r30, r24
  5a:	e0 50       	subi	r30, 0x00	; 0
  5c:	f0 40       	sbci	r31, 0x00	; 0
  5e:	24 91       	lpm	r18, Z
  60:	fc 01       	movw	r30, r24
  62:	e0 50       	subi	r30, 0x00	; 0
  64:	f0 40       	sbci	r31, 0x00	; 0
  66:	84 91       	lpm	r24, Z
  68:	88 23       	and	r24, r24
  6a:	01 f0       	breq	.+0      	; 0x6c <pinMode+0x1a>
  6c:	90 e0       	ldi	r25, 0x00	; 0
  6e:	88 0f       	add	r24, r24
  70:	99 1f       	adc	r25, r25
  72:	fc 01       	movw	r30, r24
  74:	e0 50       	subi	r30, 0x00	; 0
  76:	f0 40       	sbci	r31, 0x00	; 0
  78:	a5 91       	lpm	r26, Z+
  7a:	b4 91       	lpm	r27, Z
  7c:	80 50       	subi	r24, 0x00	; 0
  7e:	90 40       	sbci	r25, 0x00	; 0
  80:	fc 01       	movw	r30, r24
  82:	c5 91       	lpm	r28, Z+
  84:	d4 91       	lpm	r29, Z
  86:	9f b7       	in	r25, 0x3f	; 63
  88:	61 11       	cpse	r22, r1
  8a:	00 c0       	rjmp	.+0      	; 0x8c <pinMode+0x3a>
  8c:	f8 94       	cli
  8e:	8c 91       	ld	r24, X
  90:	20 95       	com	r18
  92:	82 23       	and	r24, r18
  94:	8c 93       	st	X, r24
  96:	88 81       	ld	r24, Y
  98:	82 23       	and	r24, r18
  9a:	00 c0       	rjmp	.+0      	; 0x9c <pinMode+0x4a>
  9c:	62 30       	cpi	r22, 0x02	; 2
  9e:	01 f4       	brne	.+0      	; 0xa0 <pinMode+0x4e>
  a0:	f8 94       	cli
  a2:	8c 91       	ld	r24, X
  a4:	32 2f       	mov	r19, r18
  a6:	30 95       	com	r19
  a8:	83 23       	and	r24, r19
  aa:	8c 93       	st	X, r24
  ac:	88 81       	ld	r24, Y
  ae:	82 2b       	or	r24, r18
  b0:	88 83       	st	Y, r24
  b2:	00 c0       	rjmp	.+0      	; 0xb4 <pinMode+0x62>
  b4:	f8 94       	cli
  b6:	8c 91       	ld	r24, X
  b8:	82 2b       	or	r24, r18
  ba:	8c 93       	st	X, r24
  bc:	9f bf       	out	0x3f, r25	; 63
  be:	df 91       	pop	r29
  c0:	cf 91       	pop	r28
  c2:	08 95       	ret

Disassembly of section .text.digitalWrite:

00000116 <digitalWrite>:
 116:	0f 93       	push	r16
 118:	1f 93       	push	r17
 11a:	cf 93       	push	r28
 11c:	df 93       	push	r29
 11e:	1f 92       	push	r1
 120:	cd b7       	in	r28, 0x3d	; 61
 122:	de b7       	in	r29, 0x3e	; 62
 124:	28 2f       	mov	r18, r24
 126:	30 e0       	ldi	r19, 0x00	; 0
 128:	f9 01       	movw	r30, r18
 12a:	e0 50       	subi	r30, 0x00	; 0
 12c:	f0 40       	sbci	r31, 0x00	; 0
 12e:	84 91       	lpm	r24, Z
 130:	f9 01       	movw	r30, r18
 132:	e0 50       	subi	r30, 0x00	; 0
 134:	f0 40       	sbci	r31, 0x00	; 0
 136:	14 91       	lpm	r17, Z
 138:	f9 01       	movw	r30, r18
 13a:	e0 50       	subi	r30, 0x00	; 0
 13c:	f0 40       	sbci	r31, 0x00	; 0
 13e:	04 91       	lpm	r16, Z
 140:	00 23       	and	r16, r16
 142:	01 f0       	breq	.+0      	; 0x144 <digitalWrite+0x2e>
 144:	88 23       	and	r24, r24
 146:	01 f0       	breq	.+0      	; 0x148 <digitalWrite+0x32>
 148:	69 83       	std	Y+1, r22	; 0x01
 14a:	0e 94 00 00 	call	0	; 0x0 <__tmp_reg__>
 14e:	69 81       	ldd	r22, Y+1	; 0x01
 150:	e0 2f       	mov	r30, r16
 152:	f0 e0       	ldi	r31, 0x00	; 0
 154:	ee 0f       	add	r30, r30
 156:	ff 1f       	adc	r31, r31
 158:	e0 50       	subi	r30, 0x00	; 0
 15a:	f0 40       	sbci	r31, 0x00	; 0
 15c:	a5 91       	lpm	r26, Z+
 15e:	b4 91       	lpm	r27, Z
 160:	9f b7       	in	r25, 0x3f	; 63
 162:	f8 94       	cli
 164:	8c 91       	ld	r24, X
 166:	61 11       	cpse	r22, r1
 168:	00 c0       	rjmp	.+0      	; 0x16a <digitalWrite+0x54>
 16a:	10 95       	com	r17
 16c:	81 23       	and	r24, r17
 16e:	00 c0       	rjmp	.+0      	; 0x170 <digitalWrite+0x5a>
 170:	81 2b       	or	r24, r17
 172:	8c 93       	st	X, r24
 174:	9f bf       	out	0x3f, r25	; 63
 176:	0f 90       	pop	r0
 178:	df 91       	pop	r29
 17a:	cf 91       	pop	r28
 17c:	1f 91       	pop	r17
 17e:	0f 91       	pop	r16
 180:	08 95       	ret

Disassembly of section .text.digitalRead:

00000298 <digitalRead>:
 298:	cf 93       	push	r28
 29a:	df 93       	push	r29
 29c:	28 2f       	mov	r18, r24
 29e:	30 e0       	ldi	r19, 0x00	; 0
 2a0:	f9 01       	movw	r30, r18
 2a2:	e0 50       	subi	r30, 0x00	; 0
 2a4:	f0 40       	sbci	r31, 0x00	; 0
 2a6:	84 91       	lpm	r24, Z
 2a8:	f9 01       	movw	r30, r18
 2aa:	e0 50       	subi	r30, 0x00	; 0
 2ac:	f0 40       	sbci	r31, 0x00	; 0
 2ae:	d4 91       	lpm	r29, Z
 2b0:	f9 01       	movw	r30, r18
 2b2:	e0 50       	subi	r30, 0x00	; 0
 2b4:	f0 40       	sbci	r31, 0x00	; 0
 2b6:	c4 91       	lpm	r28, Z
 2b8:	cc 23       	and	r28, r28
 2ba:	01 f0       	breq	.+0      	; 0x2bc <digitalRead+0x24>
 2bc:	81 11       	cpse	r24, r1
 2be:	0e 94 00 00 	call	0	; 0x0 <__tmp_reg__>
 2c2:	ec 2f       	mov	r30, r28
 2c4:	f0 e0       	ldi	r31, 0x00	; 0
 2c6:	ee 0f       	add	r30, r30
 2c8:	ff 1f       	adc	r31, r31
 2ca:	e0 50       	subi	r30, 0x00	; 0
 2cc:	f0 40       	sbci	r31, 0x00	; 0
 2ce:	a5 91       	lpm	r26, Z+
 2d0:	b4 91       	lpm	r27, Z
 2d2:	2c 91       	ld	r18, X
 2d4:	2d 23       	and	r18, r29
 2d6:	81 e0       	ldi	r24, 0x01	; 1
 2d8:	90 e0       	ldi	r25, 0x00	; 0
 2da:	01 f4       	brne	.+0      	; 0x2dc <digitalRead+0x44>
 2dc:	80 e0       	ldi	r24, 0x00	; 0
 2de:	00 c0       	rjmp	.+0      	; 0x2e0 <digitalRead+0x48>
 2e0:	80 e0       	ldi	r24, 0x00	; 0
 2e2:	90 e0       	ldi	r25, 0x00	; 0
 2e4:	df 91       	pop	r29
 2e6:	cf 91       	pop	r28
 2e8:	08 95       	ret

wiring_pulse.o:     file format elf32-avr

Sections:
Idx Name          Size      VMA       LMA       File off  Algn
  0 .text         00000000  00000000  00000000  00000034  2**0
                  CONTENTS, ALLOC, LOAD, READONLY, CODE
  1 .data         00000000  00000000  00000000  00000034  2**0
                  CONTENTS, ALLOC, LOAD, DATA
  2 .bss          00000000  00000000  00000000  00000034  2**0
                  ALLOC
  3 .stab         000008a0  00000000  00000000  00000034  2**2
                  CONTENTS, RELOC, READONLY, DEBUGGING
  4 .stabstr      0000103c  00000000  00000000  000008d4  2**0
                  CONTENTS, READONLY, DEBUGGING
  5 .text.pulseIn 00000058  00000000  00000000  00001910  2**0
                  CONTENTS, ALLOC, LOAD, RELOC, READONLY, CODE
  6 .text.pulseInLong 0000015e  00000000  00000000  00001968  2**0
                  CONTENTS, ALLOC, LOAD, RELOC, READONLY, CODE
  7 .comment      00000012  00000000  00000000  00001ac6  2**0
                  CONTENTS, READONLY

Disassembly of section .text.pulseIn:

00000000 <pulseIn>:
 *
 * ATTENTION:
 * this function relies on micros() so cannot be used in noInterrupt() context
 */
unsigned long pulseInLong(uint8_t pin, uint8_t state, unsigned long timeout)
{
   0:	0f 93       	push	r16
   2:	1f 93       	push	r17
   4:	76 2f       	mov	r23, r22
   6:	90 e0       	ldi	r25, 0x00	; 0
   8:	fc 01       	movw	r30, r24
   a:	e0 50       	subi	r30, 0x00	; 0
   c:	f0 40       	sbci	r31, 0x00	; 0
   e:	64 91       	lpm	r22, Z
  10:	fc 01       	movw	r30, r24
  12:	e0 50       	subi	r30, 0x00	; 0
  14:	f0 40       	sbci	r31, 0x00	; 0
  16:	e4 91       	lpm	r30, Z
  18:	71 11       	cpse	r23, r1
  1a:	76 2f       	mov	r23, r22
  1c:	f0 e0       	ldi	r31, 0x00	; 0
  1e:	ee 0f       	add	r30, r30
  20:	ff 1f       	adc	r31, r31
  22:	e0 50       	subi	r30, 0x00	; 0
  24:	f0 40       	sbci	r31, 0x00	; 0
  26:	85 91       	lpm	r24, Z+
	// cache the port and bit of the pin in order to speed up the
	// pulse width measuring loop and achieve finer resolution.  calling
	// digitalRead() instead yields much coarser resolution.
	uint8_t bit = digitalPinToBitMask(pin);
  28:	94 91       	lpm	r25, Z
  2a:	89 01       	movw	r16, r18
  2c:	9a 01       	movw	r18, r20
  2e:	3f 70       	andi	r19, 0x0F	; 15
  30:	47 2f       	mov	r20, r23
	uint8_t port = digitalPinToPort(pin);
  32:	0e 94 00 00 	call	0	; 0x0 <pulseIn>
  36:	61 15       	cp	r22, r1
  38:	71 05       	cpc	r23, r1
	uint8_t stateMask = (state ? bit : 0);
  3a:	81 05       	cpc	r24, r1
  3c:	91 05       	cpc	r25, r1
  3e:	01 f0       	breq	.+0      	; 0x40 <pulseIn+0x40>
  40:	6f 5f       	subi	r22, 0xFF	; 255
  42:	7f 4f       	sbci	r23, 0xFF	; 255

	unsigned long startMicros = micros();
  44:	8f 4f       	sbci	r24, 0xFF	; 255
  46:	9f 4f       	sbci	r25, 0xFF	; 255
  48:	9f 70       	andi	r25, 0x0F	; 15
  4a:	00 c0       	rjmp	.+0      	; 0x4c <pulseIn+0x4c>
  4c:	60 e0       	ldi	r22, 0x00	; 0
  4e:	70 e0       	ldi	r23, 0x00	; 0
  50:	cb 01       	movw	r24, r22
  52:	1f 91       	pop	r17

	// wait for any previous pulse to end
	while ((*portInputRegister(port) & bit) == stateMask) {
  54:	0f 91       	pop	r16
  56:	08 95       	ret

Disassembly of section .text.pulseInLong:

00000058 <pulseInLong>:
  58:	4f 92       	push	r4
  5a:	5f 92       	push	r5
  5c:	6f 92       	push	r6
  5e:	7f 92       	push	r7
  60:	8f 92       	push	r8
  62:	9f 92       	push	r9
  64:	af 92       	push	r10
  66:	bf 92       	push	r11
  68:	cf 92       	push	r12
  6a:	df 92       	push	r13
  6c:	ef 92       	push	r14
  6e:	ff 92       	push	r15
  70:	0f 93       	push	r16
  72:	1f 93       	push	r17
  74:	cf 93       	push	r28
  76:	df 93       	push	r29
  78:	00 d0       	rcall	.+0      	; 0x7a <pulseInLong+0x22>
		if (micros() - startMicros > timeout)
  7a:	00 d0       	rcall	.+0      	; 0x7c <pulseInLong+0x24>
  7c:	cd b7       	in	r28, 0x3d	; 61
  7e:	de b7       	in	r29, 0x3e	; 62
  80:	90 e0       	ldi	r25, 0x00	; 0
  82:	fc 01       	movw	r30, r24
  84:	e0 50       	subi	r30, 0x00	; 0
  86:	f0 40       	sbci	r31, 0x00	; 0
  88:	a4 90       	lpm	r10, Z
  8a:	fc 01       	movw	r30, r24
  8c:	e0 50       	subi	r30, 0x00	; 0
  8e:	f0 40       	sbci	r31, 0x00	; 0
  90:	84 90       	lpm	r8, Z
  92:	61 11       	cpse	r22, r1
  94:	00 c0       	rjmp	.+0      	; 0x96 <pulseInLong+0x3e>
  96:	b1 2c       	mov	r11, r1
  98:	00 c0       	rjmp	.+0      	; 0x9a <pulseInLong+0x42>
  9a:	ba 2c       	mov	r11, r10
  9c:	29 83       	std	Y+1, r18	; 0x01
  9e:	3a 83       	std	Y+2, r19	; 0x02
			return 0;
  a0:	4b 83       	std	Y+3, r20	; 0x03
  a2:	5c 83       	std	Y+4, r21	; 0x04
  a4:	0e 94 00 00 	call	0	; 0x0 <__tmp_reg__>
	}

	// wait for the pulse to start
	while ((*portInputRegister(port) & bit) != stateMask) {
  a8:	6b 01       	movw	r12, r22
  aa:	7c 01       	movw	r14, r24
  ac:	91 2c       	mov	r9, r1
  ae:	88 0c       	add	r8, r8
  b0:	99 1c       	adc	r9, r9
  b2:	c4 01       	movw	r24, r8
		if (micros() - startMicros > timeout)
  b4:	80 50       	subi	r24, 0x00	; 0
  b6:	90 40       	sbci	r25, 0x00	; 0
  b8:	4c 01       	movw	r8, r24
  ba:	fc 01       	movw	r30, r24
		if (micros() - startMicros > timeout)
			return 0;
	}

	// wait for the pulse to start
	while ((*portInputRegister(port) & bit) != stateMask) {
  bc:	05 91       	lpm	r16, Z+
  be:	14 91       	lpm	r17, Z
		if (micros() - startMicros > timeout)
  c0:	29 81       	ldd	r18, Y+1	; 0x01
  c2:	3a 81       	ldd	r19, Y+2	; 0x02
  c4:	4b 81       	ldd	r20, Y+3	; 0x03
  c6:	5c 81       	ldd	r21, Y+4	; 0x04
  c8:	f8 01       	movw	r30, r16
  ca:	80 81       	ld	r24, Z
  cc:	8a 21       	and	r24, r10
  ce:	8b 11       	cpse	r24, r11
  d0:	00 c0       	rjmp	.+0      	; 0xd2 <pulseInLong+0x7a>
  d2:	29 83       	std	Y+1, r18	; 0x01
  d4:	3a 83       	std	Y+2, r19	; 0x02
  d6:	4b 83       	std	Y+3, r20	; 0x03
  d8:	5c 83       	std	Y+4, r21	; 0x04
  da:	0e 94 00 00 	call	0	; 0x0 <__tmp_reg__>
  de:	6c 19       	sub	r22, r12
			return 0;
	}

	unsigned long start = micros();
  e0:	7d 09       	sbc	r23, r13
  e2:	8e 09       	sbc	r24, r14
  e4:	9f 09       	sbc	r25, r15
  e6:	29 81       	ldd	r18, Y+1	; 0x01
	// wait for the pulse to stop
	while ((*portInputRegister(port) & bit) == stateMask) {
  e8:	3a 81       	ldd	r19, Y+2	; 0x02
  ea:	4b 81       	ldd	r20, Y+3	; 0x03
  ec:	5c 81       	ldd	r21, Y+4	; 0x04
  ee:	26 17       	cp	r18, r22
  f0:	37 07       	cpc	r19, r23
  f2:	48 07       	cpc	r20, r24
  f4:	59 07       	cpc	r21, r25
  f6:	00 f4       	brcc	.+0      	; 0xf8 <pulseInLong+0xa0>
  f8:	60 e0       	ldi	r22, 0x00	; 0
  fa:	70 e0       	ldi	r23, 0x00	; 0
  fc:	cb 01       	movw	r24, r22
  fe:	00 c0       	rjmp	.+0      	; 0x100 <pulseInLong+0xa8>
		if (micros() - startMicros > timeout)
 100:	f4 01       	movw	r30, r8
 102:	05 91       	lpm	r16, Z+
 104:	14 91       	lpm	r17, Z
 106:	f8 01       	movw	r30, r16
 108:	80 81       	ld	r24, Z
 10a:	8a 21       	and	r24, r10
 10c:	29 83       	std	Y+1, r18	; 0x01
 10e:	3a 83       	std	Y+2, r19	; 0x02
 110:	4b 83       	std	Y+3, r20	; 0x03
 112:	5c 83       	std	Y+4, r21	; 0x04
 114:	8b 15       	cp	r24, r11
 116:	01 f0       	breq	.+0      	; 0x118 <pulseInLong+0xc0>
 118:	0e 94 00 00 	call	0	; 0x0 <__tmp_reg__>
 11c:	6c 19       	sub	r22, r12
 11e:	7d 09       	sbc	r23, r13
 120:	8e 09       	sbc	r24, r14
 122:	9f 09       	sbc	r25, r15
 124:	29 81       	ldd	r18, Y+1	; 0x01
 126:	3a 81       	ldd	r19, Y+2	; 0x02
			return 0;
	}
	return micros() - start;
 128:	4b 81       	ldd	r20, Y+3	; 0x03
 12a:	5c 81       	ldd	r21, Y+4	; 0x04
 12c:	26 17       	cp	r18, r22
 12e:	37 07       	cpc	r19, r23
 130:	48 07       	cpc	r20, r24
 132:	59 07       	cpc	r21, r25
}
 134:	00 f4       	brcc	.+0      	; 0x136 <pulseInLong+0xde>
 136:	00 c0       	rjmp	.+0      	; 0x138 <pulseInLong+0xe0>
 138:	0e 94 00 00 	call	0	; 0x0 <__tmp_reg__>
 13c:	2b 01       	movw	r4, r22
 13e:	3c 01       	movw	r6, r24
 140:	f4 01       	movw	r30, r8
 142:	05 91       	lpm	r16, Z+
 144:	14 91       	lpm	r17, Z
 146:	29 81       	ldd	r18, Y+1	; 0x01
 148:	3a 81       	ldd	r19, Y+2	; 0x02
 14a:	4b 81       	ldd	r20, Y+3	; 0x03
 14c:	5c 81       	ldd	r21, Y+4	; 0x04
 14e:	f8 01       	movw	r30, r16
 150:	80 81       	ld	r24, Z
 152:	8a 21       	and	r24, r10
 154:	8b 11       	cpse	r24, r11
 156:	00 c0       	rjmp	.+0      	; 0x158 <pulseInLong+0x100>
 158:	29 83       	std	Y+1, r18	; 0x01
 15a:	3a 83       	std	Y+2, r19	; 0x02
 15c:	4b 83       	std	Y+3, r20	; 0x03
 15e:	5c 83       	std	Y+4, r21	; 0x04
 160:	0e 94 00 00 	call	0	; 0x0 <__tmp_reg__>
 164:	6c 19       	sub	r22, r12
 166:	7d 09       	sbc	r23, r13
 168:	8e 09       	sbc	r24, r14
 16a:	9f 09       	sbc	r25, r15
 16c:	29 81       	ldd	r18, Y+1	; 0x01
 16e:	3a 81       	ldd	r19, Y+2	; 0x02
 170:	4b 81       	ldd	r20, Y+3	; 0x03
 172:	5c 81       	ldd	r21, Y+4	; 0x04
 174:	26 17       	cp	r18, r22
 176:	37 07       	cpc	r19, r23
 178:	48 07       	cpc	r20, r24
 17a:	59 07       	cpc	r21, r25
 17c:	00 f4       	brcc	.+0      	; 0x17e <pulseInLong+0x126>
 17e:	00 c0       	rjmp	.+0      	; 0x180 <pulseInLong+0x128>
 180:	0e 94 00 00 	call	0	; 0x0 <__tmp_reg__>
 184:	64 19       	sub	r22, r4
 186:	75 09       	sbc	r23, r5
 188:	86 09       	sbc	r24, r6
 18a:	97 09       	sbc	r25, r7
 18c:	0f 90       	pop	r0
 18e:	0f 90       	pop	r0
 190:	0f 90       	pop	r0
 192:	0f 90       	pop	r0
 194:	df 91       	pop	r29
 196:	cf 91       	pop	r28
 198:	1f 91       	pop	r17
 19a:	0f 91       	pop	r16
 19c:	ff 90       	pop	r15
 19e:	ef 90       	pop	r14
 1a0:	df 90       	pop	r13
 1a2:	cf 90       	pop	r12
 1a4:	bf 90       	pop	r11
 1a6:	af 90       	pop	r10
 1a8:	9f 90       	pop	r9
 1aa:	8f 90       	pop	r8
 1ac:	7f 90       	pop	r7
 1ae:	6f 90       	pop	r6
 1b0:	5f 90       	pop	r5
 1b2:	4f 90       	pop	r4
 1b4:	08 95       	ret

wiring_shift.o:     file format elf32-avr

Sections:
Idx Name          Size      VMA       LMA       File off  Algn
  0 .text         00000000  00000000  00000000  00000034  2**0
                  CONTENTS, ALLOC, LOAD, READONLY, CODE
  1 .data         00000000  00000000  00000000  00000034  2**0
                  CONTENTS, ALLOC, LOAD, DATA
  2 .bss          00000000  00000000  00000000  00000034  2**0
                  ALLOC
  3 .stab         000007b0  00000000  00000000  00000034  2**2
                  CONTENTS, RELOC, READONLY, DEBUGGING
  4 .stabstr      0000100d  00000000  00000000  000007e4  2**0
                  CONTENTS, READONLY, DEBUGGING
  5 .text.shiftIn 0000006a  00000000  00000000  000017f1  2**0
                  CONTENTS, ALLOC, LOAD, RELOC, READONLY, CODE
  6 .text.shiftOut 0000007e  00000000  00000000  0000185b  2**0
                  CONTENTS, ALLOC, LOAD, RELOC, READONLY, CODE
  7 .comment      00000012  00000000  00000000  000018d9  2**0
                  CONTENTS, READONLY

Disassembly of section .text.shiftIn:

00000000 <shiftIn>:
	}
	return value;
}

void shiftOut(uint8_t dataPin, uint8_t clockPin, uint8_t bitOrder, uint8_t val)
{
   0:	cf 92       	push	r12
   2:	df 92       	push	r13
   4:	ef 92       	push	r14
   6:	ff 92       	push	r15
   8:	0f 93       	push	r16
   a:	1f 93       	push	r17
   c:	cf 93       	push	r28
   e:	df 93       	push	r29
  10:	d8 2e       	mov	r13, r24
  12:	e6 2e       	mov	r14, r22
  14:	c4 2e       	mov	r12, r20
  16:	c7 e0       	ldi	r28, 0x07	; 7
  18:	d0 e0       	ldi	r29, 0x00	; 0
  1a:	f1 2c       	mov	r15, r1
  1c:	07 e0       	ldi	r16, 0x07	; 7
  1e:	10 e0       	ldi	r17, 0x00	; 0
  20:	61 e0       	ldi	r22, 0x01	; 1
  22:	8e 2d       	mov	r24, r14
  24:	0e 94 00 00 	call	0	; 0x0 <shiftIn>
	uint8_t i;

	for (i = 0; i < 8; i++)  {
		if (bitOrder == LSBFIRST)
  28:	8d 2d       	mov	r24, r13
  2a:	c1 10       	cpse	r12, r1
  2c:	00 c0       	rjmp	.+0      	; 0x2e <shiftIn+0x2e>
  2e:	0e 94 00 00 	call	0	; 0x0 <shiftIn>
			digitalWrite(dataPin, !!(val & (1 << i)));
  32:	98 01       	movw	r18, r16
  34:	2c 1b       	sub	r18, r28
  36:	3d 0b       	sbc	r19, r29
  38:	00 c0       	rjmp	.+0      	; 0x3a <shiftIn+0x3a>
  3a:	0e 94 00 00 	call	0	; 0x0 <shiftIn>
		else	
			digitalWrite(dataPin, !!(val & (1 << (7 - i))));
  3e:	2c 2f       	mov	r18, r28
  40:	00 c0       	rjmp	.+0      	; 0x42 <shiftIn+0x42>
  42:	88 0f       	add	r24, r24
  44:	2a 95       	dec	r18
  46:	02 f4       	brpl	.+0      	; 0x48 <shiftIn+0x48>
  48:	f8 2a       	or	r15, r24
  4a:	60 e0       	ldi	r22, 0x00	; 0
  4c:	8e 2d       	mov	r24, r14
  4e:	0e 94 00 00 	call	0	; 0x0 <shiftIn>
  52:	21 97       	sbiw	r28, 0x01	; 1
  54:	00 f4       	brcc	.+0      	; 0x56 <shiftIn+0x56>
			
		digitalWrite(clockPin, HIGH);
  56:	8f 2d       	mov	r24, r15
  58:	df 91       	pop	r29
  5a:	cf 91       	pop	r28
  5c:	1f 91       	pop	r17
		digitalWrite(clockPin, LOW);		
  5e:	0f 91       	pop	r16
  60:	ff 90       	pop	r15
  62:	ef 90       	pop	r14
  64:	df 90       	pop	r13
  66:	cf 90       	pop	r12
  68:	08 95       	ret

Disassembly of section .text.shiftOut:

0000006a <shiftOut>:
	}
}
  6a:	bf 92       	push	r11
  6c:	cf 92       	push	r12
  6e:	df 92       	push	r13
  70:	ef 92       	push	r14
  72:	ff 92       	push	r15
  74:	0f 93       	push	r16
  76:	1f 93       	push	r17
  78:	cf 93       	push	r28
  7a:	df 93       	push	r29
  7c:	c8 2e       	mov	r12, r24
  7e:	d6 2e       	mov	r13, r22
  80:	b4 2e       	mov	r11, r20
  82:	c7 e0       	ldi	r28, 0x07	; 7
  84:	d0 e0       	ldi	r29, 0x00	; 0
  86:	02 2f       	mov	r16, r18
  88:	10 e0       	ldi	r17, 0x00	; 0
  8a:	87 e0       	ldi	r24, 0x07	; 7
  8c:	e8 2e       	mov	r14, r24
  8e:	f1 2c       	mov	r15, r1
  90:	b1 10       	cpse	r11, r1
  92:	00 c0       	rjmp	.+0      	; 0x94 <shiftOut+0x2a>
  94:	f7 01       	movw	r30, r14
  96:	ec 1b       	sub	r30, r28
  98:	fd 0b       	sbc	r31, r29
  9a:	b8 01       	movw	r22, r16
  9c:	00 c0       	rjmp	.+0      	; 0x9e <shiftOut+0x34>
  9e:	75 95       	asr	r23
  a0:	67 95       	ror	r22
  a2:	ea 95       	dec	r30
  a4:	02 f4       	brpl	.+0      	; 0xa6 <shiftOut+0x3c>
  a6:	00 c0       	rjmp	.+0      	; 0xa8 <shiftOut+0x3e>
  a8:	b8 01       	movw	r22, r16
  aa:	0c 2e       	mov	r0, r28
  ac:	00 c0       	rjmp	.+0      	; 0xae <shiftOut+0x44>
  ae:	75 95       	asr	r23
  b0:	67 95       	ror	r22
  b2:	0a 94       	dec	r0
  b4:	02 f4       	brpl	.+0      	; 0xb6 <shiftOut+0x4c>
  b6:	61 70       	andi	r22, 0x01	; 1
  b8:	77 27       	eor	r23, r23
  ba:	8c 2d       	mov	r24, r12
  bc:	0e 94 00 00 	call	0	; 0x0 <__tmp_reg__>
  c0:	61 e0       	ldi	r22, 0x01	; 1
  c2:	8d 2d       	mov	r24, r13
  c4:	0e 94 00 00 	call	0	; 0x0 <__tmp_reg__>
  c8:	60 e0       	ldi	r22, 0x00	; 0
  ca:	8d 2d       	mov	r24, r13
  cc:	0e 94 00 00 	call	0	; 0x0 <__tmp_reg__>
  d0:	21 97       	sbiw	r28, 0x01	; 1
  d2:	00 f4       	brcc	.+0      	; 0xd4 <shiftOut+0x6a>
  d4:	df 91       	pop	r29
  d6:	cf 91       	pop	r28
  d8:	1f 91       	pop	r17
  da:	0f 91       	pop	r16
  dc:	ff 90       	pop	r15
  de:	ef 90       	pop	r14
  e0:	df 90       	pop	r13
  e2:	cf 90       	pop	r12
  e4:	bf 90       	pop	r11
  e6:	08 95       	ret

twi.o:     file format elf32-avr

Sections:
Idx Name          Size      VMA       LMA       File off  Algn
  0 .text         00000000  00000000  00000000  00000034  2**0
                  CONTENTS, ALLOC, LOAD, READONLY, CODE
  1 .data         00000000  00000000  00000000  00000034  2**0
                  CONTENTS, ALLOC, LOAD, DATA
  2 .bss          00000000  00000000  00000000  00000034  2**0
                  ALLOC
  3 .stab         00000dec  00000000  00000000  00000034  2**2
                  CONTENTS, RELOC, READONLY, DEBUGGING
  4 .stabstr      000010bd  00000000  00000000  00000e20  2**0
                  CONTENTS, READONLY, DEBUGGING
  5 .text.twi_init 0000003c  00000000  00000000  00001edd  2**0
                  CONTENTS, ALLOC, LOAD, RELOC, READONLY, CODE
  6 .text.twi_disable 0000001a  00000000  00000000  00001f19  2**0
                  CONTENTS, ALLOC, LOAD, RELOC, READONLY, CODE
  7 .text.twi_setAddress 00000008  00000000  00000000  00001f33  2**0
                  CONTENTS, ALLOC, LOAD, READONLY, CODE
  8 .text.twi_readFrom 00000090  00000000  00000000  00001f3b  2**0
                  CONTENTS, ALLOC, LOAD, RELOC, READONLY, CODE
  9 .text.twi_writeTo 000000ae  00000000  00000000  00001fcb  2**0
                  CONTENTS, ALLOC, LOAD, RELOC, READONLY, CODE
 10 .text.twi_transmit 00000032  00000000  00000000  00002079  2**0
                  CONTENTS, ALLOC, LOAD, RELOC, READONLY, CODE
 11 .text.twi_attachSlaveRxEvent 0000000a  00000000  00000000  000020ab  2**0
                  CONTENTS, ALLOC, LOAD, RELOC, READONLY, CODE
 12 .text.twi_attachSlaveTxEvent 0000000a  00000000  00000000  000020b5  2**0
                  CONTENTS, ALLOC, LOAD, RELOC, READONLY, CODE
 13 .text.twi_reply 00000010  00000000  00000000  000020bf  2**0
                  CONTENTS, ALLOC, LOAD, RELOC, READONLY, CODE
 14 .text.twi_stop 00000014  00000000  00000000  000020cf  2**0
                  CONTENTS, ALLOC, LOAD, RELOC, READONLY, CODE
 15 .text.twi_releaseBus 0000000c  00000000  00000000  000020e3  2**0
                  CONTENTS, ALLOC, LOAD, RELOC, READONLY, CODE
 16 .text.__vector_24 0000025a  00000000  00000000  000020ef  2**0
                  CONTENTS, ALLOC, LOAD, RELOC, READONLY, CODE
 17 .bss.twi_error 00000001  00000000  00000000  00002349  2**0
                  ALLOC
 18 .bss.twi_rxBufferIndex 00000001  00000000  00000000  00002349  2**0
                  ALLOC
 19 .bss.twi_rxBuffer 00000020  00000000  00000000  00002349  2**0
                  ALLOC
 20 .bss.twi_txBufferLength 00000001  00000000  00000000  00002349  2**0
                  ALLOC
 21 .bss.twi_txBufferIndex 00000001  00000000  00000000  00002349  2**0
                  ALLOC
 22 .bss.twi_txBuffer 00000020  00000000  00000000  00002349  2**0
                  ALLOC
 23 .bss.twi_masterBufferLength 00000001  00000000  00000000  00002349  2**0
                  ALLOC
 24 .bss.twi_masterBufferIndex 00000001  00000000  00000000  00002349  2**0
                  ALLOC
 25 .bss.twi_masterBuffer 00000020  00000000  00000000  00002349  2**0
                  ALLOC
 26 .bss.twi_onSlaveReceive 00000002  00000000  00000000  00002349  2**0
                  ALLOC
 27 .bss.twi_onSlaveTransmit 00000002  00000000  00000000  00002349  2**0
                  ALLOC
 28 .bss.twi_inRepStart 00000001  00000000  00000000  00002349  2**0
                  ALLOC
 29 .bss.twi_sendStop 00000001  00000000  00000000  00002349  2**0
                  ALLOC
 30 .bss.twi_slarw 00000001  00000000  00000000  00002349  2**0
                  ALLOC
 31 .bss.twi_state 00000001  00000000  00000000  00002349  2**0
                  ALLOC
 32 .comment      00000012  00000000  00000000  00002349  2**0
                  CONTENTS, READONLY

Disassembly of section .text.twi_init:

00000000 <twi_init>:
  // update twi state
  twi_state = TWI_READY;
}

ISR(TWI_vect)
{
   0:	10 92 00 00 	sts	0x0000, r1
   4:	81 e0       	ldi	r24, 0x01	; 1
   6:	80 93 00 00 	sts	0x0000, r24
   a:	10 92 00 00 	sts	0x0000, r1
   e:	61 e0       	ldi	r22, 0x01	; 1
  10:	82 e1       	ldi	r24, 0x12	; 18
  12:	0e 94 00 00 	call	0	; 0x0 <twi_init>
  16:	61 e0       	ldi	r22, 0x01	; 1
  18:	83 e1       	ldi	r24, 0x13	; 19
  1a:	0e 94 00 00 	call	0	; 0x0 <twi_init>
  1e:	e9 eb       	ldi	r30, 0xB9	; 185
  20:	f0 e0       	ldi	r31, 0x00	; 0
  switch(TW_STATUS){
  22:	80 81       	ld	r24, Z
  24:	8e 7f       	andi	r24, 0xFE	; 254
  26:	80 83       	st	Z, r24
  28:	80 81       	ld	r24, Z
  2a:	8d 7f       	andi	r24, 0xFD	; 253
  2c:	80 83       	st	Z, r24
  2e:	88 e4       	ldi	r24, 0x48	; 72
  30:	80 93 b8 00 	sts	0x00B8, r24
  34:	85 e4       	ldi	r24, 0x45	; 69
  36:	80 93 bc 00 	sts	0x00BC, r24
  3a:	08 95       	ret

Disassembly of section .text.twi_disable:

0000003c <twi_disable>:
  3c:	ec eb       	ldi	r30, 0xBC	; 188
  3e:	f0 e0       	ldi	r31, 0x00	; 0
  40:	80 81       	ld	r24, Z
  42:	8a 7b       	andi	r24, 0xBA	; 186
  44:	80 83       	st	Z, r24
  46:	60 e0       	ldi	r22, 0x00	; 0
  48:	82 e1       	ldi	r24, 0x12	; 18
  4a:	0e 94 00 00 	call	0	; 0x0 <twi_error>
  4e:	60 e0       	ldi	r22, 0x00	; 0
  50:	83 e1       	ldi	r24, 0x13	; 19
  52:	0c 94 00 00 	jmp	0	; 0x0 <twi_error>

Disassembly of section .text.twi_setAddress:

00000092 <twi_setAddress>:
  92:	88 0f       	add	r24, r24
  94:	80 93 ba 00 	sts	0x00BA, r24
  98:	08 95       	ret

Disassembly of section .text.twi_readFrom:

0000012c <twi_readFrom>:
      break;

    // Master Receiver
    case TW_MR_DATA_ACK: // data received, ack sent
      // put byte into buffer
      twi_masterBuffer[twi_masterBufferIndex++] = TWDR;
 12c:	41 32       	cpi	r20, 0x21	; 33
 12e:	00 f0       	brcs	.+0      	; 0x130 <twi_readFrom+0x4>
 130:	00 c0       	rjmp	.+0      	; 0x132 <twi_readFrom+0x6>
 132:	90 91 00 00 	lds	r25, 0x0000
    case TW_MR_SLA_ACK:  // address sent, ack received
      // ack if more bytes are expected, otherwise nack
      if(twi_masterBufferIndex < twi_masterBufferLength){
 136:	91 11       	cpse	r25, r1
 138:	00 c0       	rjmp	.+0      	; 0x13a <twi_readFrom+0xe>
 13a:	91 e0       	ldi	r25, 0x01	; 1
 13c:	90 93 00 00 	sts	0x0000, r25
        twi_reply(0);
      }
      break;
    case TW_MR_DATA_NACK: // data received, nack sent
      // put final byte into buffer
      twi_masterBuffer[twi_masterBufferIndex++] = TWDR;
 140:	20 93 00 00 	sts	0x0000, r18
 144:	2f ef       	ldi	r18, 0xFF	; 255
 146:	20 93 00 00 	sts	0x0000, r18
 14a:	10 92 00 00 	sts	0x0000, r1
 14e:	24 0f       	add	r18, r20
 150:	20 93 00 00 	sts	0x0000, r18
 154:	90 93 00 00 	sts	0x0000, r25
	if (twi_sendStop)
 158:	90 91 00 00 	lds	r25, 0x0000
 15c:	88 0f       	add	r24, r24
 15e:	89 2b       	or	r24, r25
          twi_stop();
	else {
	  twi_inRepStart = true;	// we're gonna send the START
 160:	80 93 00 00 	sts	0x0000, r24
 164:	80 91 00 00 	lds	r24, 0x0000
	  // don't enable the interrupt. We'll generate the start, but we 
	  // avoid handling the interrupt until we're in the next transaction,
	  // at the point where we would normally issue the start.
	  TWCR = _BV(TWINT) | _BV(TWSTA)| _BV(TWEN) ;
 168:	81 30       	cpi	r24, 0x01	; 1
    case TW_SR_SLA_ACK:   // addressed, returned ack
    case TW_SR_GCALL_ACK: // addressed generally, returned ack
    case TW_SR_ARB_LOST_SLA_ACK:   // lost arbitration, returned ack
    case TW_SR_ARB_LOST_GCALL_ACK: // lost arbitration, returned ack
      // enter slave receiver mode
      twi_state = TWI_SRX;
 16a:	01 f4       	brne	.+0      	; 0x16c <twi_readFrom+0x40>
 16c:	10 92 00 00 	sts	0x0000, r1
      // indicate that rx buffer can be overwritten and ack
      twi_rxBufferIndex = 0;
 170:	80 91 00 00 	lds	r24, 0x0000
 174:	80 93 bb 00 	sts	0x00BB, r24
      twi_reply(1);
      break;
    case TW_SR_DATA_ACK:       // data received, returned ack
    case TW_SR_GCALL_DATA_ACK: // data received generally, returned ack
      // if there is still room in the rx buffer
      if(twi_rxBufferIndex < TWI_BUFFER_LENGTH){
 178:	80 91 bc 00 	lds	r24, 0x00BC
 17c:	83 fd       	sbrc	r24, 3
 17e:	00 c0       	rjmp	.+0      	; 0x180 <twi_readFrom+0x54>
        // put byte in buffer and ack
        twi_rxBuffer[twi_rxBufferIndex++] = TWDR;
 180:	85 ec       	ldi	r24, 0xC5	; 197
 182:	00 c0       	rjmp	.+0      	; 0x184 <twi_readFrom+0x58>
 184:	85 ee       	ldi	r24, 0xE5	; 229
 186:	80 93 bc 00 	sts	0x00BC, r24
 18a:	80 91 00 00 	lds	r24, 0x0000
 18e:	81 30       	cpi	r24, 0x01	; 1
 190:	01 f0       	breq	.+0      	; 0x192 <twi_readFrom+0x66>
 192:	80 91 00 00 	lds	r24, 0x0000
 196:	84 17       	cp	r24, r20
 198:	00 f4       	brcc	.+0      	; 0x19a <twi_readFrom+0x6e>
        twi_reply(0);
      }
      break;
    case TW_SR_STOP: // stop or repeated start condition received
      // ack future responses and leave slave receiver state
      twi_releaseBus();
 19a:	40 91 00 00 	lds	r20, 0x0000
      // put a null char after data if there's room
      if(twi_rxBufferIndex < TWI_BUFFER_LENGTH){
 19e:	20 e0       	ldi	r18, 0x00	; 0
 1a0:	30 e0       	ldi	r19, 0x00	; 0
 1a2:	fb 01       	movw	r30, r22
 1a4:	d9 01       	movw	r26, r18
        twi_rxBuffer[twi_rxBufferIndex] = '\0';
 1a6:	8a 2f       	mov	r24, r26
 1a8:	82 1b       	sub	r24, r18
 1aa:	84 17       	cp	r24, r20
 1ac:	00 f4       	brcc	.+0      	; 0x1ae <twi_readFrom+0x82>
 1ae:	8d 91       	ld	r24, X+
 1b0:	81 93       	st	Z+, r24
      }
      // callback to user defined callback
      twi_onSlaveReceive(twi_rxBuffer, twi_rxBufferIndex);
 1b2:	00 c0       	rjmp	.+0      	; 0x1b4 <twi_readFrom+0x88>
 1b4:	84 2f       	mov	r24, r20
 1b6:	08 95       	ret
 1b8:	80 e0       	ldi	r24, 0x00	; 0
 1ba:	08 95       	ret

Disassembly of section .text.twi_writeTo:

000002e8 <twi_writeTo>:
    case TW_BUS_ERROR: // bus error, illegal stop/start
      twi_error = TW_BUS_ERROR;
      twi_stop();
      break;
  }
}
 2e8:	0f 93       	push	r16
 2ea:	41 32       	cpi	r20, 0x21	; 33
 2ec:	00 f0       	brcs	.+0      	; 0x2ee <twi_writeTo+0x6>
 2ee:	00 c0       	rjmp	.+0      	; 0x2f0 <twi_writeTo+0x8>
 2f0:	90 91 00 00 	lds	r25, 0x0000
 2f4:	91 11       	cpse	r25, r1
 2f6:	00 c0       	rjmp	.+0      	; 0x2f8 <twi_writeTo+0x10>
 2f8:	92 e0       	ldi	r25, 0x02	; 2
 2fa:	90 93 00 00 	sts	0x0000, r25
 2fe:	00 93 00 00 	sts	0x0000, r16
 302:	9f ef       	ldi	r25, 0xFF	; 255
 304:	90 93 00 00 	sts	0x0000, r25
 308:	10 92 00 00 	sts	0x0000, r1
 30c:	40 93 00 00 	sts	0x0000, r20
 310:	fb 01       	movw	r30, r22
 312:	60 e0       	ldi	r22, 0x00	; 0
 314:	70 e0       	ldi	r23, 0x00	; 0
 316:	db 01       	movw	r26, r22
 318:	9a 2f       	mov	r25, r26
 31a:	96 1b       	sub	r25, r22
 31c:	94 17       	cp	r25, r20
 31e:	00 f4       	brcc	.+0      	; 0x320 <twi_writeTo+0x38>
 320:	91 91       	ld	r25, Z+
 322:	9d 93       	st	X+, r25
 324:	00 c0       	rjmp	.+0      	; 0x326 <twi_writeTo+0x3e>
 326:	10 92 00 00 	sts	0x0000, r1
 32a:	90 91 00 00 	lds	r25, 0x0000
 32e:	88 0f       	add	r24, r24
 330:	89 2b       	or	r24, r25
 332:	80 93 00 00 	sts	0x0000, r24
 336:	80 91 00 00 	lds	r24, 0x0000
 33a:	81 30       	cpi	r24, 0x01	; 1
 33c:	01 f4       	brne	.+0      	; 0x33e <twi_writeTo+0x56>
 33e:	10 92 00 00 	sts	0x0000, r1
 342:	80 91 00 00 	lds	r24, 0x0000
 346:	80 93 bb 00 	sts	0x00BB, r24
 34a:	80 91 bc 00 	lds	r24, 0x00BC
 34e:	83 fd       	sbrc	r24, 3
 350:	00 c0       	rjmp	.+0      	; 0x352 <twi_writeTo+0x6a>
 352:	85 ec       	ldi	r24, 0xC5	; 197
 354:	00 c0       	rjmp	.+0      	; 0x356 <twi_writeTo+0x6e>
 356:	85 ee       	ldi	r24, 0xE5	; 229
 358:	80 93 bc 00 	sts	0x00BC, r24
 35c:	22 23       	and	r18, r18
 35e:	01 f0       	breq	.+0      	; 0x360 <twi_writeTo+0x78>
 360:	80 91 00 00 	lds	r24, 0x0000
 364:	82 30       	cpi	r24, 0x02	; 2
 366:	01 f0       	breq	.+0      	; 0x368 <twi_writeTo+0x80>
 368:	80 91 00 00 	lds	r24, 0x0000
 36c:	8f 3f       	cpi	r24, 0xFF	; 255
 36e:	01 f0       	breq	.+0      	; 0x370 <twi_writeTo+0x88>
 370:	80 91 00 00 	lds	r24, 0x0000
 374:	80 32       	cpi	r24, 0x20	; 32
 376:	01 f0       	breq	.+0      	; 0x378 <twi_writeTo+0x90>
 378:	80 91 00 00 	lds	r24, 0x0000
 37c:	80 33       	cpi	r24, 0x30	; 48
 37e:	01 f4       	brne	.+0      	; 0x380 <twi_writeTo+0x98>
 380:	83 e0       	ldi	r24, 0x03	; 3
 382:	00 c0       	rjmp	.+0      	; 0x384 <twi_writeTo+0x9c>
 384:	81 e0       	ldi	r24, 0x01	; 1
 386:	00 c0       	rjmp	.+0      	; 0x388 <twi_writeTo+0xa0>
 388:	80 e0       	ldi	r24, 0x00	; 0
 38a:	00 c0       	rjmp	.+0      	; 0x38c <twi_writeTo+0xa4>
 38c:	82 e0       	ldi	r24, 0x02	; 2
 38e:	00 c0       	rjmp	.+0      	; 0x390 <twi_writeTo+0xa8>
 390:	84 e0       	ldi	r24, 0x04	; 4
 392:	0f 91       	pop	r16
 394:	08 95       	ret

Disassembly of section .text.twi_transmit:

0000067e <twi_transmit>:
 67e:	61 32       	cpi	r22, 0x21	; 33
 680:	00 f4       	brcc	.+0      	; 0x682 <twi_transmit+0x4>
 682:	20 91 00 00 	lds	r18, 0x0000
 686:	24 30       	cpi	r18, 0x04	; 4
 688:	01 f4       	brne	.+0      	; 0x68a <twi_transmit+0xc>
 68a:	60 93 00 00 	sts	0x0000, r22
 68e:	fc 01       	movw	r30, r24
 690:	80 e0       	ldi	r24, 0x00	; 0
 692:	90 e0       	ldi	r25, 0x00	; 0
 694:	dc 01       	movw	r26, r24
 696:	2a 2f       	mov	r18, r26
 698:	28 1b       	sub	r18, r24
 69a:	26 17       	cp	r18, r22
 69c:	00 f4       	brcc	.+0      	; 0x69e <twi_transmit+0x20>
 69e:	21 91       	ld	r18, Z+
 6a0:	2d 93       	st	X+, r18
 6a2:	00 c0       	rjmp	.+0      	; 0x6a4 <twi_transmit+0x26>
 6a4:	80 e0       	ldi	r24, 0x00	; 0
 6a6:	08 95       	ret
 6a8:	81 e0       	ldi	r24, 0x01	; 1
 6aa:	08 95       	ret
 6ac:	82 e0       	ldi	r24, 0x02	; 2
 6ae:	08 95       	ret

Disassembly of section .text.twi_attachSlaveRxEvent:

00000d2e <twi_attachSlaveRxEvent>:
 d2e:	90 93 00 00 	sts	0x0000, r25
 d32:	80 93 00 00 	sts	0x0000, r24
 d36:	08 95       	ret

Disassembly of section .text.twi_attachSlaveTxEvent:

00001a66 <twi_attachSlaveTxEvent>:
    1a66:	90 93 00 00 	sts	0x0000, r25
    1a6a:	80 93 00 00 	sts	0x0000, r24
    1a6e:	08 95       	ret

Disassembly of section .text.twi_reply:

000034d6 <twi_reply>:
    34d6:	88 23       	and	r24, r24
    34d8:	01 f0       	breq	.+0      	; 0x34da <twi_reply+0x4>
    34da:	85 ec       	ldi	r24, 0xC5	; 197
    34dc:	00 c0       	rjmp	.+0      	; 0x34de <twi_reply+0x8>
    34de:	85 e8       	ldi	r24, 0x85	; 133
    34e0:	80 93 bc 00 	sts	0x00BC, r24
    34e4:	08 95       	ret

Disassembly of section .text.twi_stop:

000069bc <twi_stop>:
    69bc:	85 ed       	ldi	r24, 0xD5	; 213
    69be:	80 93 bc 00 	sts	0x00BC, r24
    69c2:	80 91 bc 00 	lds	r24, 0x00BC
    69c6:	84 fd       	sbrc	r24, 4
    69c8:	00 c0       	rjmp	.+0      	; 0x69ca <twi_stop+0xe>
    69ca:	10 92 00 00 	sts	0x0000, r1
    69ce:	08 95       	ret

Disassembly of section .text.twi_releaseBus:

0000d38c <twi_releaseBus>:
    d38c:	85 ec       	ldi	r24, 0xC5	; 197
    d38e:	80 93 bc 00 	sts	0x00BC, r24
    d392:	10 92 00 00 	sts	0x0000, r1
    d396:	08 95       	ret

Disassembly of section .text.__vector_24:

0001a724 <__vector_24>:
   1a724:	1f 92       	push	r1
   1a726:	0f 92       	push	r0
   1a728:	0f b6       	in	r0, 0x3f	; 63
   1a72a:	0f 92       	push	r0
   1a72c:	11 24       	eor	r1, r1
   1a72e:	2f 93       	push	r18
   1a730:	3f 93       	push	r19
   1a732:	4f 93       	push	r20
   1a734:	5f 93       	push	r21
   1a736:	6f 93       	push	r22
   1a738:	7f 93       	push	r23
   1a73a:	8f 93       	push	r24
   1a73c:	9f 93       	push	r25
   1a73e:	af 93       	push	r26
   1a740:	bf 93       	push	r27
   1a742:	ef 93       	push	r30
   1a744:	ff 93       	push	r31
   1a746:	80 91 b9 00 	lds	r24, 0x00B9
   1a74a:	88 7f       	andi	r24, 0xF8	; 248
   1a74c:	80 36       	cpi	r24, 0x60	; 96
   1a74e:	01 f4       	brne	.+0      	; 0x1a750 <__vector_24+0x2c>
   1a750:	00 c0       	rjmp	.+0      	; 0x1a752 <__vector_24+0x2e>
   1a752:	00 f4       	brcc	.+0      	; 0x1a754 <__vector_24+0x30>
   1a754:	88 32       	cpi	r24, 0x28	; 40
   1a756:	01 f4       	brne	.+0      	; 0x1a758 <__vector_24+0x34>
   1a758:	00 c0       	rjmp	.+0      	; 0x1a75a <__vector_24+0x36>
   1a75a:	00 f4       	brcc	.+0      	; 0x1a75c <__vector_24+0x38>
   1a75c:	80 31       	cpi	r24, 0x10	; 16
   1a75e:	01 f4       	brne	.+0      	; 0x1a760 <__vector_24+0x3c>
   1a760:	00 c0       	rjmp	.+0      	; 0x1a762 <__vector_24+0x3e>
   1a762:	00 f4       	brcc	.+0      	; 0x1a764 <__vector_24+0x40>
   1a764:	88 23       	and	r24, r24
   1a766:	01 f4       	brne	.+0      	; 0x1a768 <__vector_24+0x44>
   1a768:	00 c0       	rjmp	.+0      	; 0x1a76a <__vector_24+0x46>
   1a76a:	88 30       	cpi	r24, 0x08	; 8
   1a76c:	01 f4       	brne	.+0      	; 0x1a76e <__vector_24+0x4a>
   1a76e:	00 c0       	rjmp	.+0      	; 0x1a770 <__vector_24+0x4c>
   1a770:	00 c0       	rjmp	.+0      	; 0x1a772 <__vector_24+0x4e>
   1a772:	88 31       	cpi	r24, 0x18	; 24
   1a774:	01 f4       	brne	.+0      	; 0x1a776 <__vector_24+0x52>
   1a776:	00 c0       	rjmp	.+0      	; 0x1a778 <__vector_24+0x54>
   1a778:	80 32       	cpi	r24, 0x20	; 32
   1a77a:	01 f4       	brne	.+0      	; 0x1a77c <__vector_24+0x58>
   1a77c:	00 c0       	rjmp	.+0      	; 0x1a77e <__vector_24+0x5a>
   1a77e:	00 c0       	rjmp	.+0      	; 0x1a780 <__vector_24+0x5c>
   1a780:	80 34       	cpi	r24, 0x40	; 64
   1a782:	01 f4       	brne	.+0      	; 0x1a784 <__vector_24+0x60>
   1a784:	00 c0       	rjmp	.+0      	; 0x1a786 <__vector_24+0x62>
   1a786:	00 f4       	brcc	.+0      	; 0x1a788 <__vector_24+0x64>
   1a788:	80 33       	cpi	r24, 0x30	; 48
   1a78a:	01 f4       	brne	.+0      	; 0x1a78c <__vector_24+0x68>
   1a78c:	00 c0       	rjmp	.+0      	; 0x1a78e <__vector_24+0x6a>
   1a78e:	88 33       	cpi	r24, 0x38	; 56
   1a790:	01 f0       	breq	.+0      	; 0x1a792 <__vector_24+0x6e>
   1a792:	00 c0       	rjmp	.+0      	; 0x1a794 <__vector_24+0x70>
   1a794:	80 93 00 00 	sts	0x0000, r24
   1a798:	0e 94 00 00 	call	0	; 0x0 <twi_error>
   1a79c:	00 c0       	rjmp	.+0      	; 0x1a79e <__vector_24+0x7a>
   1a79e:	80 35       	cpi	r24, 0x50	; 80
   1a7a0:	01 f4       	brne	.+0      	; 0x1a7a2 <__vector_24+0x7e>
   1a7a2:	00 c0       	rjmp	.+0      	; 0x1a7a4 <__vector_24+0x80>
   1a7a4:	88 35       	cpi	r24, 0x58	; 88
   1a7a6:	01 f4       	brne	.+0      	; 0x1a7a8 <__vector_24+0x84>
   1a7a8:	00 c0       	rjmp	.+0      	; 0x1a7aa <__vector_24+0x86>
   1a7aa:	88 34       	cpi	r24, 0x48	; 72
   1a7ac:	01 f0       	breq	.+0      	; 0x1a7ae <__vector_24+0x8a>
   1a7ae:	00 c0       	rjmp	.+0      	; 0x1a7b0 <__vector_24+0x8c>
   1a7b0:	00 c0       	rjmp	.+0      	; 0x1a7b2 <__vector_24+0x8e>
   1a7b2:	88 39       	cpi	r24, 0x98	; 152
   1a7b4:	01 f4       	brne	.+0      	; 0x1a7b6 <__vector_24+0x92>
   1a7b6:	00 c0       	rjmp	.+0      	; 0x1a7b8 <__vector_24+0x94>
   1a7b8:	00 f4       	brcc	.+0      	; 0x1a7ba <__vector_24+0x96>
   1a7ba:	88 37       	cpi	r24, 0x78	; 120
   1a7bc:	01 f4       	brne	.+0      	; 0x1a7be <__vector_24+0x9a>
   1a7be:	00 c0       	rjmp	.+0      	; 0x1a7c0 <__vector_24+0x9c>
   1a7c0:	00 f4       	brcc	.+0      	; 0x1a7c2 <__vector_24+0x9e>
   1a7c2:	88 36       	cpi	r24, 0x68	; 104
   1a7c4:	01 f4       	brne	.+0      	; 0x1a7c6 <__vector_24+0xa2>
   1a7c6:	00 c0       	rjmp	.+0      	; 0x1a7c8 <__vector_24+0xa4>
   1a7c8:	80 37       	cpi	r24, 0x70	; 112
   1a7ca:	01 f4       	brne	.+0      	; 0x1a7cc <__vector_24+0xa8>
   1a7cc:	00 c0       	rjmp	.+0      	; 0x1a7ce <__vector_24+0xaa>
   1a7ce:	00 c0       	rjmp	.+0      	; 0x1a7d0 <__vector_24+0xac>
   1a7d0:	88 38       	cpi	r24, 0x88	; 136
   1a7d2:	01 f4       	brne	.+0      	; 0x1a7d4 <__vector_24+0xb0>
   1a7d4:	00 c0       	rjmp	.+0      	; 0x1a7d6 <__vector_24+0xb2>
   1a7d6:	80 39       	cpi	r24, 0x90	; 144
   1a7d8:	01 f4       	brne	.+0      	; 0x1a7da <__vector_24+0xb6>
   1a7da:	00 c0       	rjmp	.+0      	; 0x1a7dc <__vector_24+0xb8>
   1a7dc:	80 38       	cpi	r24, 0x80	; 128
   1a7de:	01 f0       	breq	.+0      	; 0x1a7e0 <__vector_24+0xbc>
   1a7e0:	00 c0       	rjmp	.+0      	; 0x1a7e2 <__vector_24+0xbe>
   1a7e2:	00 c0       	rjmp	.+0      	; 0x1a7e4 <__vector_24+0xc0>
   1a7e4:	80 3b       	cpi	r24, 0xB0	; 176
   1a7e6:	01 f4       	brne	.+0      	; 0x1a7e8 <__vector_24+0xc4>
   1a7e8:	00 c0       	rjmp	.+0      	; 0x1a7ea <__vector_24+0xc6>
   1a7ea:	00 f4       	brcc	.+0      	; 0x1a7ec <__vector_24+0xc8>
   1a7ec:	80 3a       	cpi	r24, 0xA0	; 160
   1a7ee:	01 f4       	brne	.+0      	; 0x1a7f0 <__vector_24+0xcc>
   1a7f0:	00 c0       	rjmp	.+0      	; 0x1a7f2 <__vector_24+0xce>
   1a7f2:	88 3a       	cpi	r24, 0xA8	; 168
   1a7f4:	01 f4       	brne	.+0      	; 0x1a7f6 <__vector_24+0xd2>
   1a7f6:	00 c0       	rjmp	.+0      	; 0x1a7f8 <__vector_24+0xd4>
   1a7f8:	00 c0       	rjmp	.+0      	; 0x1a7fa <__vector_24+0xd6>
   1a7fa:	80 3c       	cpi	r24, 0xC0	; 192
   1a7fc:	01 f4       	brne	.+0      	; 0x1a7fe <__vector_24+0xda>
   1a7fe:	00 c0       	rjmp	.+0      	; 0x1a800 <__vector_24+0xdc>
   1a800:	88 3c       	cpi	r24, 0xC8	; 200
   1a802:	01 f4       	brne	.+0      	; 0x1a804 <__vector_24+0xe0>
   1a804:	00 c0       	rjmp	.+0      	; 0x1a806 <__vector_24+0xe2>
   1a806:	88 3b       	cpi	r24, 0xB8	; 184
   1a808:	01 f4       	brne	.+0      	; 0x1a80a <__vector_24+0xe6>
   1a80a:	00 c0       	rjmp	.+0      	; 0x1a80c <__vector_24+0xe8>
   1a80c:	00 c0       	rjmp	.+0      	; 0x1a80e <__vector_24+0xea>
   1a80e:	80 91 00 00 	lds	r24, 0x0000
   1a812:	00 c0       	rjmp	.+0      	; 0x1a814 <__vector_24+0xf0>
   1a814:	90 91 00 00 	lds	r25, 0x0000
   1a818:	80 91 00 00 	lds	r24, 0x0000
   1a81c:	98 17       	cp	r25, r24
   1a81e:	00 f4       	brcc	.+0      	; 0x1a820 <__vector_24+0xfc>
   1a820:	e0 91 00 00 	lds	r30, 0x0000
   1a824:	81 e0       	ldi	r24, 0x01	; 1
   1a826:	8e 0f       	add	r24, r30
   1a828:	80 93 00 00 	sts	0x0000, r24
   1a82c:	f0 e0       	ldi	r31, 0x00	; 0
   1a82e:	e0 50       	subi	r30, 0x00	; 0
   1a830:	f0 40       	sbci	r31, 0x00	; 0
   1a832:	80 81       	ld	r24, Z
   1a834:	80 93 bb 00 	sts	0x00BB, r24
   1a838:	85 ec       	ldi	r24, 0xC5	; 197
   1a83a:	00 c0       	rjmp	.+0      	; 0x1a83c <__vector_24+0x118>
   1a83c:	80 93 00 00 	sts	0x0000, r24
   1a840:	00 c0       	rjmp	.+0      	; 0x1a842 <__vector_24+0x11e>
   1a842:	e0 91 00 00 	lds	r30, 0x0000
   1a846:	81 e0       	ldi	r24, 0x01	; 1
   1a848:	8e 0f       	add	r24, r30
   1a84a:	80 93 00 00 	sts	0x0000, r24
   1a84e:	80 91 bb 00 	lds	r24, 0x00BB
   1a852:	f0 e0       	ldi	r31, 0x00	; 0
   1a854:	e0 50       	subi	r30, 0x00	; 0
   1a856:	f0 40       	sbci	r31, 0x00	; 0
   1a858:	80 83       	st	Z, r24
   1a85a:	90 91 00 00 	lds	r25, 0x0000
   1a85e:	80 91 00 00 	lds	r24, 0x0000
   1a862:	00 c0       	rjmp	.+0      	; 0x1a864 <__vector_24+0x140>
   1a864:	e0 91 00 00 	lds	r30, 0x0000
   1a868:	81 e0       	ldi	r24, 0x01	; 1
   1a86a:	8e 0f       	add	r24, r30
   1a86c:	80 93 00 00 	sts	0x0000, r24
   1a870:	80 91 bb 00 	lds	r24, 0x00BB
   1a874:	f0 e0       	ldi	r31, 0x00	; 0
   1a876:	e0 50       	subi	r30, 0x00	; 0
   1a878:	f0 40       	sbci	r31, 0x00	; 0
   1a87a:	80 83       	st	Z, r24
   1a87c:	80 91 00 00 	lds	r24, 0x0000
   1a880:	81 11       	cpse	r24, r1
   1a882:	00 c0       	rjmp	.+0      	; 0x1a884 <__vector_24+0x160>
   1a884:	81 e0       	ldi	r24, 0x01	; 1
   1a886:	80 93 00 00 	sts	0x0000, r24
   1a88a:	84 ea       	ldi	r24, 0xA4	; 164
   1a88c:	00 c0       	rjmp	.+0      	; 0x1a88e <__vector_24+0x16a>
   1a88e:	83 e0       	ldi	r24, 0x03	; 3
   1a890:	80 93 00 00 	sts	0x0000, r24
   1a894:	10 92 00 00 	sts	0x0000, r1
   1a898:	00 c0       	rjmp	.+0      	; 0x1a89a <__vector_24+0x176>
   1a89a:	80 91 00 00 	lds	r24, 0x0000
   1a89e:	80 32       	cpi	r24, 0x20	; 32
   1a8a0:	00 f0       	brcs	.+0      	; 0x1a8a2 <__vector_24+0x17e>
   1a8a2:	00 c0       	rjmp	.+0      	; 0x1a8a4 <__vector_24+0x180>
   1a8a4:	e0 91 00 00 	lds	r30, 0x0000
   1a8a8:	81 e0       	ldi	r24, 0x01	; 1
   1a8aa:	8e 0f       	add	r24, r30
   1a8ac:	80 93 00 00 	sts	0x0000, r24
   1a8b0:	80 91 bb 00 	lds	r24, 0x00BB
   1a8b4:	f0 e0       	ldi	r31, 0x00	; 0
   1a8b6:	e0 50       	subi	r30, 0x00	; 0
   1a8b8:	f0 40       	sbci	r31, 0x00	; 0
   1a8ba:	80 83       	st	Z, r24
   1a8bc:	00 c0       	rjmp	.+0      	; 0x1a8be <__vector_24+0x19a>
   1a8be:	0e 94 00 00 	call	0	; 0x0 <twi_error>
   1a8c2:	80 91 00 00 	lds	r24, 0x0000
   1a8c6:	80 32       	cpi	r24, 0x20	; 32
   1a8c8:	00 f4       	brcc	.+0      	; 0x1a8ca <__vector_24+0x1a6>
   1a8ca:	e0 91 00 00 	lds	r30, 0x0000
   1a8ce:	f0 e0       	ldi	r31, 0x00	; 0
   1a8d0:	e0 50       	subi	r30, 0x00	; 0
   1a8d2:	f0 40       	sbci	r31, 0x00	; 0
   1a8d4:	10 82       	st	Z, r1
   1a8d6:	60 91 00 00 	lds	r22, 0x0000
   1a8da:	70 e0       	ldi	r23, 0x00	; 0
   1a8dc:	e0 91 00 00 	lds	r30, 0x0000
   1a8e0:	f0 91 00 00 	lds	r31, 0x0000
   1a8e4:	80 e0       	ldi	r24, 0x00	; 0
   1a8e6:	90 e0       	ldi	r25, 0x00	; 0
   1a8e8:	09 95       	icall
   1a8ea:	10 92 00 00 	sts	0x0000, r1
   1a8ee:	00 c0       	rjmp	.+0      	; 0x1a8f0 <__vector_24+0x1cc>
   1a8f0:	84 e0       	ldi	r24, 0x04	; 4
   1a8f2:	80 93 00 00 	sts	0x0000, r24
   1a8f6:	10 92 00 00 	sts	0x0000, r1
   1a8fa:	10 92 00 00 	sts	0x0000, r1
   1a8fe:	e0 91 00 00 	lds	r30, 0x0000
   1a902:	f0 91 00 00 	lds	r31, 0x0000
   1a906:	09 95       	icall
   1a908:	80 91 00 00 	lds	r24, 0x0000
   1a90c:	81 11       	cpse	r24, r1
   1a90e:	00 c0       	rjmp	.+0      	; 0x1a910 <__vector_24+0x1ec>
   1a910:	81 e0       	ldi	r24, 0x01	; 1
   1a912:	80 93 00 00 	sts	0x0000, r24
   1a916:	10 92 00 00 	sts	0x0000, r1
   1a91a:	e0 91 00 00 	lds	r30, 0x0000
   1a91e:	81 e0       	ldi	r24, 0x01	; 1
   1a920:	8e 0f       	add	r24, r30
   1a922:	80 93 00 00 	sts	0x0000, r24
   1a926:	f0 e0       	ldi	r31, 0x00	; 0
   1a928:	e0 50       	subi	r30, 0x00	; 0
   1a92a:	f0 40       	sbci	r31, 0x00	; 0
   1a92c:	80 81       	ld	r24, Z
   1a92e:	80 93 bb 00 	sts	0x00BB, r24
   1a932:	90 91 00 00 	lds	r25, 0x0000
   1a936:	80 91 00 00 	lds	r24, 0x0000
   1a93a:	98 17       	cp	r25, r24
   1a93c:	00 f4       	brcc	.+0      	; 0x1a93e <__vector_24+0x21a>
   1a93e:	00 c0       	rjmp	.+0      	; 0x1a940 <__vector_24+0x21c>
   1a940:	85 e8       	ldi	r24, 0x85	; 133
   1a942:	80 93 bc 00 	sts	0x00BC, r24
   1a946:	00 c0       	rjmp	.+0      	; 0x1a948 <__vector_24+0x224>
   1a948:	85 ec       	ldi	r24, 0xC5	; 197
   1a94a:	80 93 bc 00 	sts	0x00BC, r24
   1a94e:	10 92 00 00 	sts	0x0000, r1
   1a952:	00 c0       	rjmp	.+0      	; 0x1a954 <__vector_24+0x230>
   1a954:	10 92 00 00 	sts	0x0000, r1
   1a958:	0e 94 00 00 	call	0	; 0x0 <twi_error>
   1a95c:	ff 91       	pop	r31
   1a95e:	ef 91       	pop	r30
   1a960:	bf 91       	pop	r27
   1a962:	af 91       	pop	r26
   1a964:	9f 91       	pop	r25
   1a966:	8f 91       	pop	r24
   1a968:	7f 91       	pop	r23
   1a96a:	6f 91       	pop	r22
   1a96c:	5f 91       	pop	r21
   1a96e:	4f 91       	pop	r20
   1a970:	3f 91       	pop	r19
   1a972:	2f 91       	pop	r18
   1a974:	0f 90       	pop	r0
   1a976:	0f be       	out	0x3f, r0	; 63
   1a978:	0f 90       	pop	r0
   1a97a:	1f 90       	pop	r1
   1a97c:	18 95       	reti

Wire.o:     file format elf32-avr

Sections:
Idx Name          Size      VMA       LMA       File off  Algn
  0 .group        00000008  00000000  00000000  00000034  2**2
                  CONTENTS, READONLY, EXCLUDE, GROUP, LINK_ONCE_DISCARD
  1 .group        00000008  00000000  00000000  0000003c  2**2
                  CONTENTS, READONLY, EXCLUDE, GROUP, LINK_ONCE_DISCARD
  2 .text         00000000  00000000  00000000  00000044  2**0
                  CONTENTS, ALLOC, LOAD, READONLY, CODE
  3 .data         00000068  00000000  00000000  00000044  2**0
                  CONTENTS, ALLOC, LOAD, DATA
  4 .bss          00000000  00000000  00000000  000000ac  2**0
                  ALLOC
  5 .stab         00000f48  00000000  00000000  000000ac  2**2
                  CONTENTS, RELOC, READONLY, DEBUGGING
  6 .stabstr      00001abb  00000000  00000000  00000ff4  2**0
                  CONTENTS, READONLY, DEBUGGING
  7 .text._ZN7TwoWire9availableEv 00000010  00000000  00000000  00002aaf  2**0
                  CONTENTS, ALLOC, LOAD, RELOC, READONLY, CODE
  8 .text._ZN7TwoWire4readEv 00000026  00000000  00000000  00002abf  2**0
                  CONTENTS, ALLOC, LOAD, RELOC, READONLY, CODE
  9 .text._ZN7TwoWire4peekEv 0000001e  00000000  00000000  00002ae5  2**0
                  CONTENTS, ALLOC, LOAD, RELOC, READONLY, CODE
 10 .text._ZN7TwoWire5flushEv 00000002  00000000  00000000  00002b03  2**0
                  CONTENTS, ALLOC, LOAD, READONLY, CODE
 11 .text._ZN7TwoWire16onReceiveServiceEPhi 00000046  00000000  00000000  00002b05  2**0
                  CONTENTS, ALLOC, LOAD, RELOC, READONLY, CODE
 12 .text._ZN7TwoWire16onRequestServiceEv 00000018  00000000  00000000  00002b4b  2**0
                  CONTENTS, ALLOC, LOAD, RELOC, READONLY, CODE
 13 .text._ZN7TwoWire5writeEPKhj 0000005a  00000000  00000000  00002b63  2**0
                  CONTENTS, ALLOC, LOAD, RELOC, READONLY, CODE
 14 .text._ZN7TwoWire5writeEh 0000005e  00000000  00000000  00002bbd  2**0
                  CONTENTS, ALLOC, LOAD, RELOC, READONLY, CODE
 15 .text._ZN7TwoWireC2Ev 00000020  00000000  00000000  00002c1b  2**0
                  CONTENTS, ALLOC, LOAD, RELOC, READONLY, CODE
 16 .text._ZN7TwoWire5beginEv 00000014  00000000  00000000  00002c3b  2**0
                  CONTENTS, ALLOC, LOAD, RELOC, READONLY, CODE
 17 .text._ZN7TwoWire5beginEh 00000026  00000000  00000000  00002c4f  2**0
                  CONTENTS, ALLOC, LOAD, RELOC, READONLY, CODE
 18 .text._ZN7TwoWire5beginEi 00000004  00000000  00000000  00002c75  2**0
                  CONTENTS, ALLOC, LOAD, RELOC, READONLY, CODE
 19 .text._ZN7TwoWire3endEv 00000004  00000000  00000000  00002c79  2**0
                  CONTENTS, ALLOC, LOAD, RELOC, READONLY, CODE
 20 .text._ZN7TwoWire8setClockEm 00000026  00000000  00000000  00002c7d  2**0
                  CONTENTS, ALLOC, LOAD, RELOC, READONLY, CODE
 21 .text._ZN7TwoWire17beginTransmissionEh 00000014  00000000  00000000  00002ca3  2**0
                  CONTENTS, ALLOC, LOAD, RELOC, READONLY, CODE
 22 .text._ZN7TwoWire17beginTransmissionEi 00000004  00000000  00000000  00002cb7  2**0
                  CONTENTS, ALLOC, LOAD, RELOC, READONLY, CODE
 23 .text._ZN7TwoWire15endTransmissionEh 00000026  00000000  00000000  00002cbb  2**0
                  CONTENTS, ALLOC, LOAD, RELOC, READONLY, CODE
 24 .text._ZN7TwoWire11requestFromEhhmhh 000000a2  00000000  00000000  00002ce1  2**0
                  CONTENTS, ALLOC, LOAD, RELOC, READONLY, CODE
 25 .text._ZN7TwoWire11requestFromEhhh 00000020  00000000  00000000  00002d83  2**0
                  CONTENTS, ALLOC, LOAD, RELOC, READONLY, CODE
 26 .text._ZN7TwoWire11requestFromEhh 00000006  00000000  00000000  00002da3  2**0
                  CONTENTS, ALLOC, LOAD, RELOC, READONLY, CODE
 27 .text._ZN7TwoWire11requestFromEii 00000006  00000000  00000000  00002da9  2**0
                  CONTENTS, ALLOC, LOAD, RELOC, READONLY, CODE
 28 .text._ZN7TwoWire11requestFromEiii 00000004  00000000  00000000  00002daf  2**0
                  CONTENTS, ALLOC, LOAD, RELOC, READONLY, CODE
 29 .text._ZN7TwoWire15endTransmissionEv 00000006  00000000  00000000  00002db3  2**0
                  CONTENTS, ALLOC, LOAD, RELOC, READONLY, CODE
 30 .text._ZN7TwoWire9onReceiveEPFviE 0000000a  00000000  00000000  00002db9  2**0
                  CONTENTS, ALLOC, LOAD, RELOC, READONLY, CODE
 31 .text._ZN7TwoWire9onRequestEPFvvE 0000000a  00000000  00000000  00002dc3  2**0
                  CONTENTS, ALLOC, LOAD, RELOC, READONLY, CODE
 32 .text.startup._GLOBAL__sub_I__ZN7TwoWire8rxBufferE 00000008  00000000  00000000  00002dcd  2**0
                  CONTENTS, ALLOC, LOAD, RELOC, READONLY, CODE
 33 .ctors        00000002  00000000  00000000  00002dd6  2**1
                  CONTENTS, ALLOC, LOAD, RELOC, READONLY, DATA
 34 .rodata._ZTV6Stream 00000010  00000000  00000000  00002dd8  2**0
                  CONTENTS, ALLOC, LOAD, RELOC, READONLY, DATA
 35 .rodata._ZTV7TwoWire 00000010  00000000  00000000  00002de8  2**0
                  CONTENTS, ALLOC, LOAD, RELOC, READONLY, DATA
 36 .bss.Wire     0000000c  00000000  00000000  00002df8  2**0
                  ALLOC
 37 .bss._ZN7TwoWire14user_onReceiveE 00000002  00000000  00000000  00002df8  2**0
                  ALLOC
 38 .bss._ZN7TwoWire14user_onRequestE 00000002  00000000  00000000  00002df8  2**0
                  ALLOC
 39 .bss._ZN7TwoWire12transmittingE 00000001  00000000  00000000  00002df8  2**0
                  ALLOC
 40 .bss._ZN7TwoWire14txBufferLengthE 00000001  00000000  00000000  00002df8  2**0
                  ALLOC
 41 .bss._ZN7TwoWire13txBufferIndexE 00000001  00000000  00000000  00002df8  2**0
                  ALLOC
 42 .bss._ZN7TwoWire8txBufferE 00000020  00000000  00000000  00002df8  2**0
                  ALLOC
 43 .bss._ZN7TwoWire9txAddressE 00000001  00000000  00000000  00002df8  2**0
                  ALLOC
 44 .bss._ZN7TwoWire14rxBufferLengthE 00000001  00000000  00000000  00002df8  2**0
                  ALLOC
 45 .bss._ZN7TwoWire13rxBufferIndexE 00000001  00000000  00000000  00002df8  2**0
                  ALLOC
 46 .bss._ZN7TwoWire8rxBufferE 00000020  00000000  00000000  00002df8  2**0
                  ALLOC
 47 .comment      00000012  00000000  00000000  00002df8  2**0
                  CONTENTS, READONLY

Disassembly of section .text._ZN7TwoWire9availableEv:

00000000 <_ZN7TwoWire9availableEv>:
  user_onRequest = function;
}

// Preinstantiate Objects //////////////////////////////////////////////////////

TwoWire Wire = TwoWire();
   0:	80 91 00 00 	lds	r24, 0x0000
  6c:	90 e0       	Address 0x000000000000006c is out of bounds.
.word	0xffff	; ????
  6e:	20 91       	Address 0x000000000000006e is out of bounds.
.word	0xffff	; ????
  70:	00 00       	Address 0x0000000000000070 is out of bounds.
.word	0xffff	; ????
  72:	82 1b       	Address 0x0000000000000072 is out of bounds.
.word	0xffff	; ????
  74:	91 09       	Address 0x0000000000000074 is out of bounds.
.word	0xffff	; ????
  76:	08 95       	Address 0x0000000000000076 is out of bounds.
.word	0xffff	; ????

Disassembly of section .text._ZN7TwoWire4readEv:

000000e0 <_ZN7TwoWire4readEv>:
  e0:	20 91 00 00 	lds	r18, 0x0000
  e4:	80 91 00 00 	lds	r24, 0x0000
  e8:	28 17       	cp	r18, r24
  ea:	00 f4       	brcc	.+0      	; 0xec <_ZN7TwoWire4readEv+0xc>
  ec:	e2 2f       	mov	r30, r18
  ee:	f0 e0       	ldi	r31, 0x00	; 0
  f0:	e0 50       	subi	r30, 0x00	; 0
  f2:	f0 40       	sbci	r31, 0x00	; 0
  f4:	80 81       	ld	r24, Z
  f6:	90 e0       	ldi	r25, 0x00	; 0
  f8:	2f 5f       	subi	r18, 0xFF	; 255
  fa:	20 93 00 00 	sts	0x0000, r18
  fe:	08 95       	ret
 100:	8f ef       	ldi	r24, 0xFF	; 255
 102:	9f ef       	ldi	r25, 0xFF	; 255
 104:	08 95       	ret

Disassembly of section .text._ZN7TwoWire4peekEv:

000001e6 <_ZN7TwoWire4peekEv>:
 1e6:	e0 91 00 00 	lds	r30, 0x0000
 1ea:	80 91 00 00 	lds	r24, 0x0000
 1ee:	e8 17       	cp	r30, r24
 1f0:	00 f4       	brcc	.+0      	; 0x1f2 <_ZN7TwoWire4peekEv+0xc>
 1f2:	f0 e0       	ldi	r31, 0x00	; 0
 1f4:	e0 50       	subi	r30, 0x00	; 0
 1f6:	f0 40       	sbci	r31, 0x00	; 0
 1f8:	80 81       	ld	r24, Z
 1fa:	90 e0       	ldi	r25, 0x00	; 0
 1fc:	08 95       	ret
 1fe:	8f ef       	ldi	r24, 0xFF	; 255
 200:	9f ef       	ldi	r25, 0xFF	; 255
 202:	08 95       	ret

Disassembly of section .text._ZN7TwoWire5flushEv:

000003ea <_ZN7TwoWire5flushEv>:
 3ea:	08 95       	ret

Disassembly of section .text._ZN7TwoWire16onReceiveServiceEPhi:

000007d6 <_ZN7TwoWire16onReceiveServiceEPhi>:
 7d6:	e0 91 00 00 	lds	r30, 0x0000
 7da:	f0 91 00 00 	lds	r31, 0x0000
 7de:	30 97       	sbiw	r30, 0x00	; 0
 7e0:	01 f0       	breq	.+0      	; 0x7e2 <_ZN7TwoWire16onReceiveServiceEPhi+0xc>
 7e2:	30 91 00 00 	lds	r19, 0x0000
 7e6:	20 91 00 00 	lds	r18, 0x0000
 7ea:	32 17       	cp	r19, r18
 7ec:	00 f0       	brcs	.+0      	; 0x7ee <_ZN7TwoWire16onReceiveServiceEPhi+0x18>
 7ee:	40 e0       	ldi	r20, 0x00	; 0
 7f0:	24 2f       	mov	r18, r20
 7f2:	30 e0       	ldi	r19, 0x00	; 0
 7f4:	26 17       	cp	r18, r22
 7f6:	37 07       	cpc	r19, r23
 7f8:	04 f4       	brge	.+0      	; 0x7fa <_ZN7TwoWire16onReceiveServiceEPhi+0x24>
 7fa:	dc 01       	movw	r26, r24
 7fc:	a2 0f       	add	r26, r18
 7fe:	b3 1f       	adc	r27, r19
 800:	5c 91       	ld	r21, X
 802:	d9 01       	movw	r26, r18
 804:	a0 50       	subi	r26, 0x00	; 0
 806:	b0 40       	sbci	r27, 0x00	; 0
 808:	5c 93       	st	X, r21
 80a:	4f 5f       	subi	r20, 0xFF	; 255
 80c:	00 c0       	rjmp	.+0      	; 0x80e <_ZN7TwoWire16onReceiveServiceEPhi+0x38>
 80e:	10 92 00 00 	sts	0x0000, r1
 812:	60 93 00 00 	sts	0x0000, r22
 816:	cb 01       	movw	r24, r22
 818:	09 94       	ijmp
 81a:	08 95       	ret

Disassembly of section .text._ZN7TwoWire16onRequestServiceEv:

00000ff2 <_ZN7TwoWire16onRequestServiceEv>:
     ff2:	e0 91 00 00 	lds	r30, 0x0000
     ff6:	f0 91 00 00 	lds	r31, 0x0000
     ffa:	30 97       	sbiw	r30, 0x00	; 0
     ffc:	01 f0       	breq	.+0      	; 0xffe <_ZN7TwoWire16onRequestServiceEv+0xc>
     ffe:	10 92 00 00 	sts	0x0000, r1
    1002:	10 92 00 00 	sts	0x0000, r1
    1006:	09 94       	ijmp
    1008:	08 95       	ret

Disassembly of section .text._ZN7TwoWire5writeEPKhj:

00001ffc <_ZN7TwoWire5writeEPKhj>:
    1ffc:	cf 92       	push	r12
    1ffe:	df 92       	push	r13
    2000:	ef 92       	push	r14
    2002:	ff 92       	push	r15
    2004:	0f 93       	push	r16
    2006:	1f 93       	push	r17
    2008:	cf 93       	push	r28
    200a:	df 93       	push	r29
    200c:	7c 01       	movw	r14, r24
    200e:	cb 01       	movw	r24, r22
    2010:	8a 01       	movw	r16, r20
    2012:	20 91 00 00 	lds	r18, 0x0000
    2016:	22 23       	and	r18, r18
    2018:	01 f0       	breq	.+0      	; 0x201a <_ZN7TwoWire5writeEPKhj+0x1e>
    201a:	eb 01       	movw	r28, r22
    201c:	6b 01       	movw	r12, r22
    201e:	c4 0e       	add	r12, r20
    2020:	d5 1e       	adc	r13, r21
    2022:	cc 15       	cp	r28, r12
    2024:	dd 05       	cpc	r29, r13
    2026:	01 f0       	breq	.+0      	; 0x2028 <_ZN7TwoWire5writeEPKhj+0x2c>
    2028:	69 91       	ld	r22, Y+
    202a:	d7 01       	movw	r26, r14
    202c:	ed 91       	ld	r30, X+
    202e:	fc 91       	ld	r31, X
    2030:	01 90       	ld	r0, Z+
    2032:	f0 81       	ld	r31, Z
    2034:	e0 2d       	mov	r30, r0
    2036:	c7 01       	movw	r24, r14
    2038:	09 95       	icall
    203a:	00 c0       	rjmp	.+0      	; 0x203c <_ZN7TwoWire5writeEPKhj+0x40>
    203c:	64 2f       	mov	r22, r20
    203e:	0e 94 00 00 	call	0	; 0x0 <__tmp_reg__>
    2042:	c8 01       	movw	r24, r16
    2044:	df 91       	pop	r29
    2046:	cf 91       	pop	r28
    2048:	1f 91       	pop	r17
    204a:	0f 91       	pop	r16
    204c:	ff 90       	pop	r15
    204e:	ef 90       	pop	r14
    2050:	df 90       	pop	r13
    2052:	cf 90       	pop	r12
    2054:	08 95       	ret

Disassembly of section .text._ZN7TwoWire5writeEh:

00004052 <_ZN7TwoWire5writeEh>:
    4052:	cf 93       	push	r28
    4054:	df 93       	push	r29
    4056:	1f 92       	push	r1
    4058:	cd b7       	in	r28, 0x3d	; 61
    405a:	de b7       	in	r29, 0x3e	; 62
    405c:	69 83       	std	Y+1, r22	; 0x01
    405e:	20 91 00 00 	lds	r18, 0x0000
    4062:	22 23       	and	r18, r18
    4064:	01 f0       	breq	.+0      	; 0x4066 <_ZN7TwoWire5writeEh+0x14>
    4066:	20 91 00 00 	lds	r18, 0x0000
    406a:	20 32       	cpi	r18, 0x20	; 32
    406c:	00 f0       	brcs	.+0      	; 0x406e <_ZN7TwoWire5writeEh+0x1c>
    406e:	21 e0       	ldi	r18, 0x01	; 1
    4070:	30 e0       	ldi	r19, 0x00	; 0
    4072:	fc 01       	movw	r30, r24
    4074:	33 83       	std	Z+3, r19	; 0x03
    4076:	22 83       	std	Z+2, r18	; 0x02
    4078:	80 e0       	ldi	r24, 0x00	; 0
    407a:	90 e0       	ldi	r25, 0x00	; 0
    407c:	00 c0       	rjmp	.+0      	; 0x407e <_ZN7TwoWire5writeEh+0x2c>
    407e:	80 91 00 00 	lds	r24, 0x0000
    4082:	e8 2f       	mov	r30, r24
    4084:	f0 e0       	ldi	r31, 0x00	; 0
    4086:	e0 50       	subi	r30, 0x00	; 0
    4088:	f0 40       	sbci	r31, 0x00	; 0
    408a:	99 81       	ldd	r25, Y+1	; 0x01
    408c:	90 83       	st	Z, r25
    408e:	8f 5f       	subi	r24, 0xFF	; 255
    4090:	80 93 00 00 	sts	0x0000, r24
    4094:	80 93 00 00 	sts	0x0000, r24
    4098:	00 c0       	rjmp	.+0      	; 0x409a <_ZN7TwoWire5writeEh+0x48>
    409a:	61 e0       	ldi	r22, 0x01	; 1
    409c:	ce 01       	movw	r24, r28
    409e:	01 96       	adiw	r24, 0x01	; 1
    40a0:	0e 94 00 00 	call	0	; 0x0 <__tmp_reg__>
    40a4:	81 e0       	ldi	r24, 0x01	; 1
    40a6:	90 e0       	ldi	r25, 0x00	; 0
    40a8:	0f 90       	pop	r0
    40aa:	df 91       	pop	r29
    40ac:	cf 91       	pop	r28
    40ae:	08 95       	ret

Disassembly of section .text._ZN7TwoWireC2Ev:

00008102 <_ZN7TwoWireC1Ev>:
    8102:	fc 01       	movw	r30, r24
    8104:	13 82       	std	Z+3, r1	; 0x03
    8106:	12 82       	std	Z+2, r1	; 0x02
    8108:	48 ee       	ldi	r20, 0xE8	; 232
    810a:	53 e0       	ldi	r21, 0x03	; 3
    810c:	60 e0       	ldi	r22, 0x00	; 0
    810e:	70 e0       	ldi	r23, 0x00	; 0
    8110:	44 83       	std	Z+4, r20	; 0x04
    8112:	55 83       	std	Z+5, r21	; 0x05
    8114:	66 83       	std	Z+6, r22	; 0x06
    8116:	77 83       	std	Z+7, r23	; 0x07
    8118:	80 e0       	ldi	r24, 0x00	; 0
    811a:	90 e0       	ldi	r25, 0x00	; 0
    811c:	91 83       	std	Z+1, r25	; 0x01
    811e:	80 83       	st	Z, r24
    8120:	08 95       	ret

Disassembly of section .text._ZN7TwoWire5beginEv:

00010224 <_ZN7TwoWire5beginEv>:
   10224:	10 92 00 00 	sts	0x0000, r1
   10228:	10 92 00 00 	sts	0x0000, r1
   1022c:	10 92 00 00 	sts	0x0000, r1
   10230:	10 92 00 00 	sts	0x0000, r1
   10234:	0c 94 00 00 	jmp	0	; 0x0 <__tmp_reg__>

Disassembly of section .text._ZN7TwoWire5beginEh:

0002045c <_ZN7TwoWire5beginEh>:
   2045c:	cf 93       	push	r28
   2045e:	df 93       	push	r29
   20460:	ec 01       	movw	r28, r24
   20462:	86 2f       	mov	r24, r22
   20464:	0e 94 00 00 	call	0	; 0x0 <__tmp_reg__>
   20468:	80 e0       	ldi	r24, 0x00	; 0
   2046a:	90 e0       	ldi	r25, 0x00	; 0
   2046c:	0e 94 00 00 	call	0	; 0x0 <__tmp_reg__>
   20470:	80 e0       	ldi	r24, 0x00	; 0
   20472:	90 e0       	ldi	r25, 0x00	; 0
   20474:	0e 94 00 00 	call	0	; 0x0 <__tmp_reg__>
   20478:	ce 01       	movw	r24, r28
   2047a:	df 91       	pop	r29
   2047c:	cf 91       	pop	r28
   2047e:	0c 94 00 00 	jmp	0	; 0x0 <__tmp_reg__>

Disassembly of section .text._ZN7TwoWire5beginEi:

000408de <_ZN7TwoWire5beginEi>:
   408de:	0c 94 00 00 	jmp	0	; 0x0 <__tmp_reg__>

Disassembly of section .text._ZN7TwoWire3endEv:

000811c0 <_ZN7TwoWire3endEv>:
   811c0:	0c 94 00 00 	jmp	0	; 0x0 <__tmp_reg__>

Disassembly of section .text._ZN7TwoWire8setClockEm:

00102384 <_ZN7TwoWire8setClockEm>:
  102384:	9a 01       	movw	r18, r20
  102386:	ab 01       	movw	r20, r22
  102388:	60 e0       	ldi	r22, 0x00	; 0
  10238a:	74 e2       	ldi	r23, 0x24	; 36
  10238c:	84 ef       	ldi	r24, 0xF4	; 244
  10238e:	90 e0       	ldi	r25, 0x00	; 0
  102390:	0e 94 00 00 	call	0	; 0x0 <__tmp_reg__>
  102394:	20 51       	subi	r18, 0x10	; 16
  102396:	31 09       	sbc	r19, r1
  102398:	41 09       	sbc	r20, r1
  10239a:	51 09       	sbc	r21, r1
  10239c:	56 95       	lsr	r21
  10239e:	47 95       	ror	r20
  1023a0:	37 95       	ror	r19
  1023a2:	27 95       	ror	r18
  1023a4:	20 93 b8 00 	sts	0x00B8, r18
  1023a8:	08 95       	ret

Disassembly of section .text._ZN7TwoWire17beginTransmissionEh:

0020472e <_ZN7TwoWire17beginTransmissionEh>:
  20472e:	81 e0       	ldi	r24, 0x01	; 1
  204730:	80 93 00 00 	sts	0x0000, r24
  204734:	60 93 00 00 	sts	0x0000, r22
  204738:	10 92 00 00 	sts	0x0000, r1
  20473c:	10 92 00 00 	sts	0x0000, r1
  204740:	08 95       	ret

Disassembly of section .text._ZN7TwoWire17beginTransmissionEi:

00408e70 <_ZN7TwoWire17beginTransmissionEi>:
  408e70:	0c 94 00 00 	jmp	0	; 0x0 <__tmp_reg__>

Disassembly of section .text._ZN7TwoWire15endTransmissionEh:

00811ce4 <_ZN7TwoWire15endTransmissionEh>:
  811ce4:	0f 93       	push	r16
  811ce6:	06 2f       	mov	r16, r22
  811ce8:	21 e0       	ldi	r18, 0x01	; 1
  811cea:	40 91 00 00 	lds	r20, 0x0000
  811cee:	60 e0       	ldi	r22, 0x00	; 0
  811cf0:	70 e0       	ldi	r23, 0x00	; 0
  811cf2:	80 91 00 00 	lds	r24, 0x0000
  811cf6:	0e 94 00 00 	call	0	; 0x0 <__tmp_reg__>
  811cfa:	10 92 00 00 	sts	0x0000, r1
  811cfe:	10 92 00 00 	sts	0x0000, r1
  811d02:	10 92 00 00 	sts	0x0000, r1
  811d06:	0f 91       	pop	r16
  811d08:	08 95       	ret

Disassembly of section .text._ZN7TwoWire11requestFromEhhmhh:

010239ee <_ZN7TwoWire11requestFromEhhmhh>:
 10239ee:	8f 92       	push	r8
 10239f0:	9f 92       	push	r9
 10239f2:	af 92       	push	r10
 10239f4:	bf 92       	push	r11
 10239f6:	cf 92       	push	r12
 10239f8:	df 92       	push	r13
 10239fa:	ef 92       	push	r14
 10239fc:	ff 92       	push	r15
 10239fe:	0f 93       	push	r16
 1023a00:	1f 93       	push	r17
 1023a02:	cf 93       	push	r28
 1023a04:	df 93       	push	r29
 1023a06:	ec 01       	movw	r28, r24
 1023a08:	f6 2e       	mov	r15, r22
 1023a0a:	d4 2e       	mov	r13, r20
 1023a0c:	48 01       	movw	r8, r16
 1023a0e:	59 01       	movw	r10, r18
 1023a10:	ee 20       	and	r14, r14
 1023a12:	01 f0       	breq	.+0      	; 0x1023a14 <_ZN7TwoWire11requestFromEhhmhh+0x26>
 1023a14:	0e 94 00 00 	call	0	; 0x0 <__tmp_reg__>
 1023a18:	1e 2d       	mov	r17, r14
 1023a1a:	14 30       	cpi	r17, 0x04	; 4
 1023a1c:	00 f0       	brcs	.+0      	; 0x1023a1e <_ZN7TwoWire11requestFromEhhmhh+0x30>
 1023a1e:	13 e0       	ldi	r17, 0x03	; 3
 1023a20:	11 50       	subi	r17, 0x01	; 1
 1023a22:	00 f0       	brcs	.+0      	; 0x1023a24 <_ZN7TwoWire11requestFromEhhmhh+0x36>
 1023a24:	e8 81       	ld	r30, Y
 1023a26:	f9 81       	ldd	r31, Y+1	; 0x01
 1023a28:	28 e0       	ldi	r18, 0x08	; 8
 1023a2a:	12 9f       	mul	r17, r18
 1023a2c:	b0 01       	movw	r22, r0
 1023a2e:	11 24       	eor	r1, r1
 1023a30:	a5 01       	movw	r20, r10
 1023a32:	94 01       	movw	r18, r8
 1023a34:	00 c0       	rjmp	.+0      	; 0x1023a36 <_ZN7TwoWire11requestFromEhhmhh+0x48>
 1023a36:	56 95       	lsr	r21
 1023a38:	47 95       	ror	r20
 1023a3a:	37 95       	ror	r19
 1023a3c:	27 95       	ror	r18
 1023a3e:	6a 95       	dec	r22
 1023a40:	02 f4       	brpl	.+0      	; 0x1023a42 <_ZN7TwoWire11requestFromEhhmhh+0x54>
 1023a42:	ca 01       	movw	r24, r20
 1023a44:	b9 01       	movw	r22, r18
 1023a46:	01 90       	ld	r0, Z+
 1023a48:	f0 81       	ld	r31, Z
 1023a4a:	e0 2d       	mov	r30, r0
 1023a4c:	ce 01       	movw	r24, r28
 1023a4e:	09 95       	icall
 1023a50:	00 c0       	rjmp	.+0      	; 0x1023a52 <_ZN7TwoWire11requestFromEhhmhh+0x64>
 1023a52:	60 e0       	ldi	r22, 0x00	; 0
 1023a54:	ce 01       	movw	r24, r28
 1023a56:	0e 94 00 00 	call	0	; 0x0 <__tmp_reg__>
 1023a5a:	4d 2d       	mov	r20, r13
 1023a5c:	41 32       	cpi	r20, 0x21	; 33
 1023a5e:	00 f0       	brcs	.+0      	; 0x1023a60 <_ZN7TwoWire11requestFromEhhmhh+0x72>
 1023a60:	40 e2       	ldi	r20, 0x20	; 32
 1023a62:	2c 2d       	mov	r18, r12
 1023a64:	60 e0       	ldi	r22, 0x00	; 0
 1023a66:	70 e0       	ldi	r23, 0x00	; 0
 1023a68:	8f 2d       	mov	r24, r15
 1023a6a:	0e 94 00 00 	call	0	; 0x0 <__tmp_reg__>
 1023a6e:	10 92 00 00 	sts	0x0000, r1
 1023a72:	80 93 00 00 	sts	0x0000, r24
 1023a76:	df 91       	pop	r29
 1023a78:	cf 91       	pop	r28
 1023a7a:	1f 91       	pop	r17
 1023a7c:	0f 91       	pop	r16
 1023a7e:	ff 90       	pop	r15
 1023a80:	ef 90       	pop	r14
 1023a82:	df 90       	pop	r13
 1023a84:	cf 90       	pop	r12
 1023a86:	bf 90       	pop	r11
 1023a88:	af 90       	pop	r10
 1023a8a:	9f 90       	pop	r9
 1023a8c:	8f 90       	pop	r8
 1023a8e:	08 95       	ret

Disassembly of section .text._ZN7TwoWire11requestFromEhhh:

0204747e <_ZN7TwoWire11requestFromEhhh>:
 204747e:	cf 92       	push	r12
 2047480:	ef 92       	push	r14
 2047482:	0f 93       	push	r16
 2047484:	1f 93       	push	r17
 2047486:	c2 2e       	mov	r12, r18
 2047488:	e1 2c       	mov	r14, r1
 204748a:	00 e0       	ldi	r16, 0x00	; 0
 204748c:	10 e0       	ldi	r17, 0x00	; 0
 204748e:	98 01       	movw	r18, r16
 2047490:	0e 94 00 00 	call	0	; 0x0 <__tmp_reg__>
 2047494:	1f 91       	pop	r17
 2047496:	0f 91       	pop	r16
 2047498:	ef 90       	pop	r14
 204749a:	cf 90       	pop	r12
 204749c:	08 95       	ret

Disassembly of section .text._ZN7TwoWire11requestFromEhh:

0408e91c <_ZN7TwoWire11requestFromEhh>:
 408e91c:	21 e0       	ldi	r18, 0x01	; 1
 408e91e:	0c 94 00 00 	jmp	0	; 0x0 <__tmp_reg__>

Disassembly of section .text._ZN7TwoWire11requestFromEii:

0811d23e <_ZN7TwoWire11requestFromEii>:
 811d23e:	21 e0       	ldi	r18, 0x01	; 1
 811d240:	0c 94 00 00 	jmp	0	; 0x0 <__tmp_reg__>

Disassembly of section .text._ZN7TwoWire11requestFromEiii:

1023a482 <_ZN7TwoWire11requestFromEiii>:
1023a482:	0c 94 00 00 	jmp	0	; 0x0 <__tmp_reg__>

Disassembly of section .text._ZN7TwoWire15endTransmissionEv:

20474908 <_ZN7TwoWire15endTransmissionEv>:
20474908:	61 e0       	ldi	r22, 0x01	; 1
2047490a:	0c 94 00 00 	jmp	0	; 0x0 <__tmp_reg__>

Disassembly of section .text._ZN7TwoWire9onReceiveEPFviE:

408e9216 <_ZN7TwoWire9onReceiveEPFviE>:
408e9216:	70 93 00 00 	sts	0x0000, r23
408e921a:	60 93 00 00 	sts	0x0000, r22
408e921e:	08 95       	ret

Disassembly of section .text._ZN7TwoWire9onRequestEPFvvE:

811d2436 <_ZN7TwoWire9onRequestEPFvvE>:
811d2436:	70 93 00 00 	sts	0x0000, r23
811d243a:	60 93 00 00 	sts	0x0000, r22
811d243e:	08 95       	ret

Disassembly of section .text.startup._GLOBAL__sub_I__ZN7TwoWire8rxBufferE:

023a4876 <_GLOBAL__sub_I__ZN7TwoWire8rxBufferE>:
 23a4876:	80 e0       	ldi	r24, 0x00	; 0
 23a4878:	90 e0       	ldi	r25, 0x00	; 0
 23a487a:	0c 94 00 00 	jmp	0	; 0x0 <__tmp_reg__>

server_drv.o:     file format elf32-avr

Sections:
Idx Name          Size      VMA       LMA       File off  Algn
  0 .text         00000000  00000000  00000000  00000034  2**0
                  CONTENTS, ALLOC, LOAD, READONLY, CODE
  1 .data         00000030  00000000  00000000  00000034  2**0
                  CONTENTS, ALLOC, LOAD, DATA
  2 .bss          00000000  00000000  00000000  00000064  2**0
                  ALLOC
  3 .stab         00001470  00000000  00000000  00000064  2**2
                  CONTENTS, RELOC, READONLY, DEBUGGING
  4 .stabstr      00002064  00000000  00000000  000014d4  2**0
                  CONTENTS, READONLY, DEBUGGING
  5 .text._ZN9ServerDrv11startServerEjhh 0000008a  00000000  00000000  00003538  2**0
                  CONTENTS, ALLOC, LOAD, RELOC, READONLY, CODE
  6 .text._ZN9ServerDrv11startClientEmjhh 000000ae  00000000  00000000  000035c2  2**0
                  CONTENTS, ALLOC, LOAD, RELOC, READONLY, CODE
  7 .text._ZN9ServerDrv10stopClientEh 00000068  00000000  00000000  00003670  2**0
                  CONTENTS, ALLOC, LOAD, RELOC, READONLY, CODE
  8 .text._ZN9ServerDrv14getServerStateEh 0000006a  00000000  00000000  000036d8  2**0
                  CONTENTS, ALLOC, LOAD, RELOC, READONLY, CODE
  9 .text._ZN9ServerDrv14getClientStateEh 0000006a  00000000  00000000  00003742  2**0
                  CONTENTS, ALLOC, LOAD, RELOC, READONLY, CODE
 10 .text._ZN9ServerDrv9availDataEh 00000070  00000000  00000000  000037ac  2**0
                  CONTENTS, ALLOC, LOAD, RELOC, READONLY, CODE
 11 .text._ZN9ServerDrv7getDataEhPhh 00000092  00000000  00000000  0000381c  2**0
                  CONTENTS, ALLOC, LOAD, RELOC, READONLY, CODE
 12 .text._ZN9ServerDrv10getDataBufEhPhPj 00000078  00000000  00000000  000038ae  2**0
                  CONTENTS, ALLOC, LOAD, RELOC, READONLY, CODE
 13 .text._ZN9ServerDrv13insertDataBufEhPKhj 00000096  00000000  00000000  00003926  2**0
                  CONTENTS, ALLOC, LOAD, RELOC, READONLY, CODE
 14 .text._ZN9ServerDrv11sendUdpDataEh 00000076  00000000  00000000  000039bc  2**0
                  CONTENTS, ALLOC, LOAD, RELOC, READONLY, CODE
 15 .text._ZN9ServerDrv8sendDataEhPKhj 00000096  00000000  00000000  00003a32  2**0
                  CONTENTS, ALLOC, LOAD, RELOC, READONLY, CODE
 16 .text._ZN9ServerDrv13checkDataSentEh 000000b0  00000000  00000000  00003ac8  2**0
                  CONTENTS, ALLOC, LOAD, RELOC, READONLY, CODE
 17 .bss.serverDrv 00000001  00000000  00000000  00003b78  2**0
                  ALLOC
 18 .bss._ZL11initialized 00000001  00000000  00000000  00003b78  2**0
                  ALLOC
 19 .comment      00000012  00000000  00000000  00003b78  2**0
                  CONTENTS, READONLY

Disassembly of section .text._ZN9ServerDrv11startServerEjhh:

00000000 <_ZN9ServerDrv11startServerEjhh>:
    return false;
}


uint8_t ServerDrv::checkDataSent(uint8_t sock)
{
   0:	0f 93       	push	r16
    uint16_t timeout = 0;
	uint8_t _data = 0;
	uint8_t _dataLen = 0;

	do {
		WAIT_FOR_SLAVE_SELECT();
  32:	1f 93       	ldi	r24, 0x28	; 40
  34:	cf 93 df 93 	call	0	; 0x0 <__tmp_reg__>
		// Send Command
		SpiDrv::sendCmd(DATA_SENT_TCP_CMD, PARAM_NUMS_1);
  38:	00 d0       	ldi	r22, 0x00	; 0
  3a:	00 d0       	movw	r24, r16
  3c:	cd b7 de b7 	call	0	; 0x0 <__tmp_reg__>
		SpiDrv::sendParam(&sock, sizeof(sock), LAST_PARAM);
  40:	8c 01       	ldi	r20, 0x00	; 0
  42:	6b 83       	ldi	r22, 0x01	; 1
  44:	4c 83       	movw	r24, r28
  46:	80 91       	adiw	r24, 0x03	; 3
  48:	00 00 81 11 	call	0	; 0x0 <__tmp_reg__>

		//Wait the reply elaboration
		SpiDrv::waitForSlaveReady();
  4c:	00 c0       	ldi	r20, 0x01	; 1
  4e:	0e 94       	ldi	r22, 0x01	; 1

		// Wait for reply
		if (!SpiDrv::waitResponseCmd(DATA_SENT_TCP_CMD, PARAM_NUMS_1, &_data, &_dataLen))
  50:	00 00       	movw	r24, r28
  52:	81 e0       	adiw	r24, 0x04	; 4
  54:	80 93 00 00 	call	0	; 0x0 <__tmp_reg__>
  58:	0e 94 00 00 	call	0	; 0x0 <__tmp_reg__>
  5c:	0e 94       	std	Y+2, r1	; 0x02
  5e:	00 00       	std	Y+1, r1	; 0x01
  60:	63 e0       	movw	r18, r28
  62:	88 e2       	subi	r18, 0xFF	; 255
		{
			WARN("error waitResponse isDataSent");
		}
		SpiDrv::spiSlaveDeselect();
  64:	0e 94       	sbci	r19, 0xFF	; 255
  66:	00 00       	movw	r20, r28

		if (_data) timeout = 0;
  68:	60 e0       	subi	r20, 0xFE	; 254
  6a:	c8 01       	sbci	r21, 0xFF	; 255
  6c:	0e 94       	ldi	r22, 0x01	; 1
		else{
			++timeout;
  6e:	00 00       	ldi	r24, 0x28	; 40
  70:	40 e0 61 e0 	call	0	; 0x0 <__tmp_reg__>
			delay(100);
  74:	ce 01 03 96 	call	0	; 0x0 <__tmp_reg__>
  78:	0e 94       	pop	r0
  7a:	00 00       	pop	r0
  7c:	41 e0       	pop	r0
  7e:	61 e0       	pop	r0
		{
			WARN("error waitResponse isDataSent");
		}
		SpiDrv::spiSlaveDeselect();

		if (_data) timeout = 0;
  80:	ce 01       	pop	r29
  82:	04 96       	pop	r28
	const uint16_t TIMEOUT_DATA_SENT = 25;
    uint16_t timeout = 0;
	uint8_t _data = 0;
	uint8_t _dataLen = 0;

	do {
  84:	0e 94       	pop	r17
  86:	00 00       	pop	r16
  88:	0e 94       	ret
			++timeout;
			delay(100);
		}

	}while((_data==0)&&(timeout<TIMEOUT_DATA_SENT));
    return (timeout==TIMEOUT_DATA_SENT)?0:1;
  8a:	00 00       	Address 0x000000000000008a is out of bounds.
.word	0xffff	; ????
  8c:	1a 82       	Address 0x000000000000008c is out of bounds.
.word	0xffff	; ????
  8e:	19 82       	Address 0x000000000000008e is out of bounds.
.word	0xffff	; ????
  90:	9e 01       	Address 0x0000000000000090 is out of bounds.
.word	0xffff	; ????
  92:	2f 5f       	Address 0x0000000000000092 is out of bounds.
.word	0xffff	; ????
  94:	3f 4f       	Address 0x0000000000000094 is out of bounds.
.word	0xffff	; ????
		else{
			++timeout;
			delay(100);
		}

	}while((_data==0)&&(timeout<TIMEOUT_DATA_SENT));
  96:	ae 01       	Address 0x0000000000000096 is out of bounds.
.word	0xffff	; ????
  98:	4e 5f       	Address 0x0000000000000098 is out of bounds.
.word	0xffff	; ????
  9a:	5f 4f       	Address 0x000000000000009a is out of bounds.
.word	0xffff	; ????
  9c:	61 e0       	Address 0x000000000000009c is out of bounds.
.word	0xffff	; ????
    return (timeout==TIMEOUT_DATA_SENT)?0:1;
}
  9e:	88 e2       	Address 0x000000000000009e is out of bounds.
.word	0xffff	; ????
  a0:	0e 94       	Address 0x00000000000000a0 is out of bounds.
.word	0xffff	; ????
  a2:	00 00       	Address 0x00000000000000a2 is out of bounds.
.word	0xffff	; ????
  a4:	0e 94       	Address 0x00000000000000a4 is out of bounds.
.word	0xffff	; ????
  a6:	00 00       	Address 0x00000000000000a6 is out of bounds.
.word	0xffff	; ????
  a8:	0f 90       	Address 0x00000000000000a8 is out of bounds.
.word	0xffff	; ????
  aa:	0f 90       	Address 0x00000000000000aa is out of bounds.
.word	0xffff	; ????
  ac:	0f 90       	Address 0x00000000000000ac is out of bounds.
.word	0xffff	; ????
  ae:	0f 90       	Address 0x00000000000000ae is out of bounds.
.word	0xffff	; ????
  b0:	df 91       	Address 0x00000000000000b0 is out of bounds.
.word	0xffff	; ????
  b2:	cf 91       	Address 0x00000000000000b2 is out of bounds.
.word	0xffff	; ????
  b4:	1f 91       	Address 0x00000000000000b4 is out of bounds.
.word	0xffff	; ????
  b6:	0f 91       	Address 0x00000000000000b6 is out of bounds.
.word	0xffff	; ????
  b8:	08 95       	Address 0x00000000000000b8 is out of bounds.
.word	0xffff	; ????

Disassembly of section .text._ZN9ServerDrv11startClientEmjhh:

000000ea <_ZN9ServerDrv11startClientEmjhh>:
  ea:	ef 92       	push	r14
  ec:	ff 92       	push	r15
  ee:	0f 93       	push	r16
  f0:	cf 93       	push	r28
  f2:	df 93       	push	r29
  f4:	cd b7       	in	r28, 0x3d	; 61
  f6:	de b7       	in	r29, 0x3e	; 62
  f8:	28 97       	sbiw	r28, 0x08	; 8
  fa:	0f b6       	in	r0, 0x3f	; 63
  fc:	f8 94       	cli
  fe:	de bf       	out	0x3e, r29	; 62
 100:	0f be       	out	0x3f, r0	; 63
 102:	cd bf       	out	0x3d, r28	; 61
 104:	6b 83       	std	Y+3, r22	; 0x03
 106:	7c 83       	std	Y+4, r23	; 0x04
 108:	8d 83       	std	Y+5, r24	; 0x05
 10a:	9e 83       	std	Y+6, r25	; 0x06
 10c:	7a 01       	movw	r14, r20
 10e:	2f 83       	std	Y+7, r18	; 0x07
 110:	08 87       	std	Y+8, r16	; 0x08
 112:	80 91 00 00 	lds	r24, 0x0000
 116:	81 11       	cpse	r24, r1
 118:	00 c0       	rjmp	.+0      	; 0x11a <_ZN9ServerDrv11startClientEmjhh+0x30>
 11a:	0e 94 00 00 	call	0	; 0x0 <__tmp_reg__>
 11e:	81 e0       	ldi	r24, 0x01	; 1
 120:	80 93 00 00 	sts	0x0000, r24
 124:	0e 94 00 00 	call	0	; 0x0 <__tmp_reg__>
 128:	0e 94 00 00 	call	0	; 0x0 <__tmp_reg__>
 12c:	64 e0       	ldi	r22, 0x04	; 4
 12e:	8d e2       	ldi	r24, 0x2D	; 45
 130:	0e 94 00 00 	call	0	; 0x0 <__tmp_reg__>
 134:	40 e0       	ldi	r20, 0x00	; 0
 136:	64 e0       	ldi	r22, 0x04	; 4
 138:	ce 01       	movw	r24, r28
 13a:	03 96       	adiw	r24, 0x03	; 3
 13c:	0e 94 00 00 	call	0	; 0x0 <__tmp_reg__>
 140:	60 e0       	ldi	r22, 0x00	; 0
 142:	c7 01       	movw	r24, r14
 144:	0e 94 00 00 	call	0	; 0x0 <__tmp_reg__>
 148:	40 e0       	ldi	r20, 0x00	; 0
 14a:	61 e0       	ldi	r22, 0x01	; 1
 14c:	ce 01       	movw	r24, r28
 14e:	07 96       	adiw	r24, 0x07	; 7
 150:	0e 94 00 00 	call	0	; 0x0 <__tmp_reg__>
 154:	41 e0       	ldi	r20, 0x01	; 1
 156:	61 e0       	ldi	r22, 0x01	; 1
 158:	ce 01       	movw	r24, r28
 15a:	08 96       	adiw	r24, 0x08	; 8
 15c:	0e 94 00 00 	call	0	; 0x0 <__tmp_reg__>
 160:	0e 94 00 00 	call	0	; 0x0 <__tmp_reg__>
 164:	1a 82       	std	Y+2, r1	; 0x02
 166:	19 82       	std	Y+1, r1	; 0x01
 168:	9e 01       	movw	r18, r28
 16a:	2f 5f       	subi	r18, 0xFF	; 255
 16c:	3f 4f       	sbci	r19, 0xFF	; 255
 16e:	ae 01       	movw	r20, r28
 170:	4e 5f       	subi	r20, 0xFE	; 254
 172:	5f 4f       	sbci	r21, 0xFF	; 255
 174:	61 e0       	ldi	r22, 0x01	; 1
 176:	8d e2       	ldi	r24, 0x2D	; 45
 178:	0e 94 00 00 	call	0	; 0x0 <__tmp_reg__>
 17c:	0e 94 00 00 	call	0	; 0x0 <__tmp_reg__>
 180:	28 96       	adiw	r28, 0x08	; 8
 182:	0f b6       	in	r0, 0x3f	; 63
 184:	f8 94       	cli
 186:	de bf       	out	0x3e, r29	; 62
 188:	0f be       	out	0x3f, r0	; 63
 18a:	cd bf       	out	0x3d, r28	; 61
 18c:	df 91       	pop	r29
 18e:	cf 91       	pop	r28
 190:	0f 91       	pop	r16
 192:	ff 90       	pop	r15
 194:	ef 90       	pop	r14
 196:	08 95       	ret

Disassembly of section .text._ZN9ServerDrv10stopClientEh:

00000282 <_ZN9ServerDrv10stopClientEh>:
 282:	cf 93       	push	r28
 284:	df 93       	push	r29
 286:	00 d0       	rcall	.+0      	; 0x288 <_ZN9ServerDrv10stopClientEh+0x6>
 288:	1f 92       	push	r1
 28a:	cd b7       	in	r28, 0x3d	; 61
 28c:	de b7       	in	r29, 0x3e	; 62
 28e:	8b 83       	std	Y+3, r24	; 0x03
 290:	80 91 00 00 	lds	r24, 0x0000
 294:	81 11       	cpse	r24, r1
 296:	00 c0       	rjmp	.+0      	; 0x298 <_ZN9ServerDrv10stopClientEh+0x16>
 298:	0e 94 00 00 	call	0	; 0x0 <__tmp_reg__>
 29c:	81 e0       	ldi	r24, 0x01	; 1
 29e:	80 93 00 00 	sts	0x0000, r24
 2a2:	0e 94 00 00 	call	0	; 0x0 <__tmp_reg__>
 2a6:	0e 94 00 00 	call	0	; 0x0 <__tmp_reg__>
 2aa:	61 e0       	ldi	r22, 0x01	; 1
 2ac:	8e e2       	ldi	r24, 0x2E	; 46
 2ae:	0e 94 00 00 	call	0	; 0x0 <__tmp_reg__>
 2b2:	41 e0       	ldi	r20, 0x01	; 1
 2b4:	61 e0       	ldi	r22, 0x01	; 1
 2b6:	ce 01       	movw	r24, r28
 2b8:	03 96       	adiw	r24, 0x03	; 3
 2ba:	0e 94 00 00 	call	0	; 0x0 <__tmp_reg__>
 2be:	0e 94 00 00 	call	0	; 0x0 <__tmp_reg__>
 2c2:	1a 82       	std	Y+2, r1	; 0x02
 2c4:	19 82       	std	Y+1, r1	; 0x01
 2c6:	9e 01       	movw	r18, r28
 2c8:	2f 5f       	subi	r18, 0xFF	; 255
 2ca:	3f 4f       	sbci	r19, 0xFF	; 255
 2cc:	ae 01       	movw	r20, r28
 2ce:	4e 5f       	subi	r20, 0xFE	; 254
 2d0:	5f 4f       	sbci	r21, 0xFF	; 255
 2d2:	61 e0       	ldi	r22, 0x01	; 1
 2d4:	8e e2       	ldi	r24, 0x2E	; 46
 2d6:	0e 94 00 00 	call	0	; 0x0 <__tmp_reg__>
 2da:	0e 94 00 00 	call	0	; 0x0 <__tmp_reg__>
 2de:	0f 90       	pop	r0
 2e0:	0f 90       	pop	r0
 2e2:	0f 90       	pop	r0
 2e4:	df 91       	pop	r29
 2e6:	cf 91       	pop	r28
 2e8:	08 95       	ret

Disassembly of section .text._ZN9ServerDrv14getServerStateEh:

0000056c <_ZN9ServerDrv14getServerStateEh>:
 56c:	cf 93       	push	r28
 56e:	df 93       	push	r29
 570:	00 d0       	rcall	.+0      	; 0x572 <_ZN9ServerDrv14getServerStateEh+0x6>
 572:	1f 92       	push	r1
 574:	cd b7       	in	r28, 0x3d	; 61
 576:	de b7       	in	r29, 0x3e	; 62
 578:	8b 83       	std	Y+3, r24	; 0x03
 57a:	80 91 00 00 	lds	r24, 0x0000
 57e:	81 11       	cpse	r24, r1
 580:	00 c0       	rjmp	.+0      	; 0x582 <_ZN9ServerDrv14getServerStateEh+0x16>
 582:	0e 94 00 00 	call	0	; 0x0 <__tmp_reg__>
 586:	81 e0       	ldi	r24, 0x01	; 1
 588:	80 93 00 00 	sts	0x0000, r24
 58c:	0e 94 00 00 	call	0	; 0x0 <__tmp_reg__>
 590:	0e 94 00 00 	call	0	; 0x0 <__tmp_reg__>
 594:	61 e0       	ldi	r22, 0x01	; 1
 596:	89 e2       	ldi	r24, 0x29	; 41
 598:	0e 94 00 00 	call	0	; 0x0 <__tmp_reg__>
 59c:	41 e0       	ldi	r20, 0x01	; 1
 59e:	61 e0       	ldi	r22, 0x01	; 1
 5a0:	ce 01       	movw	r24, r28
 5a2:	03 96       	adiw	r24, 0x03	; 3
 5a4:	0e 94 00 00 	call	0	; 0x0 <__tmp_reg__>
 5a8:	0e 94 00 00 	call	0	; 0x0 <__tmp_reg__>
 5ac:	1a 82       	std	Y+2, r1	; 0x02
 5ae:	19 82       	std	Y+1, r1	; 0x01
 5b0:	9e 01       	movw	r18, r28
 5b2:	2f 5f       	subi	r18, 0xFF	; 255
 5b4:	3f 4f       	sbci	r19, 0xFF	; 255
 5b6:	ae 01       	movw	r20, r28
 5b8:	4e 5f       	subi	r20, 0xFE	; 254
 5ba:	5f 4f       	sbci	r21, 0xFF	; 255
 5bc:	61 e0       	ldi	r22, 0x01	; 1
 5be:	89 e2       	ldi	r24, 0x29	; 41
 5c0:	0e 94 00 00 	call	0	; 0x0 <__tmp_reg__>
 5c4:	0e 94 00 00 	call	0	; 0x0 <__tmp_reg__>
 5c8:	8a 81       	ldd	r24, Y+2	; 0x02
 5ca:	0f 90       	pop	r0
 5cc:	0f 90       	pop	r0
 5ce:	0f 90       	pop	r0
 5d0:	df 91       	pop	r29
 5d2:	cf 91       	pop	r28
 5d4:	08 95       	ret

Disassembly of section .text._ZN9ServerDrv14getClientStateEh:

00000b42 <_ZN9ServerDrv14getClientStateEh>:
 b42:	cf 93       	push	r28
 b44:	df 93       	push	r29
 b46:	00 d0       	rcall	.+0      	; 0xb48 <_ZN9ServerDrv14getClientStateEh+0x6>
 b48:	1f 92       	push	r1
 b4a:	cd b7       	in	r28, 0x3d	; 61
 b4c:	de b7       	in	r29, 0x3e	; 62
 b4e:	8b 83       	std	Y+3, r24	; 0x03
 b50:	80 91 00 00 	lds	r24, 0x0000
 b54:	81 11       	cpse	r24, r1
 b56:	00 c0       	rjmp	.+0      	; 0xb58 <_ZN9ServerDrv14getClientStateEh+0x16>
 b58:	0e 94 00 00 	call	0	; 0x0 <__tmp_reg__>
 b5c:	81 e0       	ldi	r24, 0x01	; 1
 b5e:	80 93 00 00 	sts	0x0000, r24
 b62:	0e 94 00 00 	call	0	; 0x0 <__tmp_reg__>
 b66:	0e 94 00 00 	call	0	; 0x0 <__tmp_reg__>
 b6a:	61 e0       	ldi	r22, 0x01	; 1
 b6c:	8f e2       	ldi	r24, 0x2F	; 47
 b6e:	0e 94 00 00 	call	0	; 0x0 <__tmp_reg__>
 b72:	41 e0       	ldi	r20, 0x01	; 1
 b74:	61 e0       	ldi	r22, 0x01	; 1
 b76:	ce 01       	movw	r24, r28
 b78:	03 96       	adiw	r24, 0x03	; 3
 b7a:	0e 94 00 00 	call	0	; 0x0 <__tmp_reg__>
 b7e:	0e 94 00 00 	call	0	; 0x0 <__tmp_reg__>
 b82:	1a 82       	std	Y+2, r1	; 0x02
 b84:	19 82       	std	Y+1, r1	; 0x01
 b86:	9e 01       	movw	r18, r28
 b88:	2f 5f       	subi	r18, 0xFF	; 255
 b8a:	3f 4f       	sbci	r19, 0xFF	; 255
 b8c:	ae 01       	movw	r20, r28
 b8e:	4e 5f       	subi	r20, 0xFE	; 254
 b90:	5f 4f       	sbci	r21, 0xFF	; 255
 b92:	61 e0       	ldi	r22, 0x01	; 1
 b94:	8f e2       	ldi	r24, 0x2F	; 47
 b96:	0e 94 00 00 	call	0	; 0x0 <__tmp_reg__>
 b9a:	0e 94 00 00 	call	0	; 0x0 <__tmp_reg__>
 b9e:	8a 81       	ldd	r24, Y+2	; 0x02
 ba0:	0f 90       	pop	r0
 ba2:	0f 90       	pop	r0
 ba4:	0f 90       	pop	r0
 ba6:	df 91       	pop	r29
 ba8:	cf 91       	pop	r28
 baa:	08 95       	ret

Disassembly of section .text._ZN9ServerDrv9availDataEh:

000016ee <_ZN9ServerDrv9availDataEh>:
    16ee:	cf 93       	push	r28
    16f0:	df 93       	push	r29
    16f2:	00 d0       	rcall	.+0      	; 0x16f4 <_ZN9ServerDrv9availDataEh+0x6>
    16f4:	00 d0       	rcall	.+0      	; 0x16f6 <_ZN9ServerDrv9availDataEh+0x8>
    16f6:	cd b7       	in	r28, 0x3d	; 61
    16f8:	de b7       	in	r29, 0x3e	; 62
    16fa:	8c 83       	std	Y+4, r24	; 0x04
    16fc:	80 91 00 00 	lds	r24, 0x0000
    1700:	81 11       	cpse	r24, r1
    1702:	00 c0       	rjmp	.+0      	; 0x1704 <_ZN9ServerDrv9availDataEh+0x16>
    1704:	0e 94 00 00 	call	0	; 0x0 <__tmp_reg__>
    1708:	81 e0       	ldi	r24, 0x01	; 1
    170a:	80 93 00 00 	sts	0x0000, r24
    170e:	0e 94 00 00 	call	0	; 0x0 <__tmp_reg__>
    1712:	0e 94 00 00 	call	0	; 0x0 <__tmp_reg__>
    1716:	61 e0       	ldi	r22, 0x01	; 1
    1718:	8b e2       	ldi	r24, 0x2B	; 43
    171a:	0e 94 00 00 	call	0	; 0x0 <__tmp_reg__>
    171e:	41 e0       	ldi	r20, 0x01	; 1
    1720:	61 e0       	ldi	r22, 0x01	; 1
    1722:	ce 01       	movw	r24, r28
    1724:	04 96       	adiw	r24, 0x04	; 4
    1726:	0e 94 00 00 	call	0	; 0x0 <__tmp_reg__>
    172a:	0e 94 00 00 	call	0	; 0x0 <__tmp_reg__>
    172e:	1b 82       	std	Y+3, r1	; 0x03
    1730:	1a 82       	std	Y+2, r1	; 0x02
    1732:	19 82       	std	Y+1, r1	; 0x01
    1734:	9e 01       	movw	r18, r28
    1736:	2d 5f       	subi	r18, 0xFD	; 253
    1738:	3f 4f       	sbci	r19, 0xFF	; 255
    173a:	ae 01       	movw	r20, r28
    173c:	4f 5f       	subi	r20, 0xFF	; 255
    173e:	5f 4f       	sbci	r21, 0xFF	; 255
    1740:	61 e0       	ldi	r22, 0x01	; 1
    1742:	8b e2       	ldi	r24, 0x2B	; 43
    1744:	0e 94 00 00 	call	0	; 0x0 <__tmp_reg__>
    1748:	0e 94 00 00 	call	0	; 0x0 <__tmp_reg__>
    174c:	89 81       	ldd	r24, Y+1	; 0x01
    174e:	9a 81       	ldd	r25, Y+2	; 0x02
    1750:	0f 90       	pop	r0
    1752:	0f 90       	pop	r0
    1754:	0f 90       	pop	r0
    1756:	0f 90       	pop	r0
    1758:	df 91       	pop	r29
    175a:	cf 91       	pop	r28
    175c:	08 95       	ret

Disassembly of section .text._ZN9ServerDrv7getDataEhPhh:

00002e4c <_ZN9ServerDrv7getDataEhPhh>:
    2e4c:	ff 92       	push	r15
    2e4e:	0f 93       	push	r16
    2e50:	1f 93       	push	r17
    2e52:	cf 93       	push	r28
    2e54:	df 93       	push	r29
    2e56:	00 d0       	rcall	.+0      	; 0x2e58 <_ZN9ServerDrv7getDataEhPhh+0xc>
    2e58:	1f 92       	push	r1
    2e5a:	cd b7       	in	r28, 0x3d	; 61
    2e5c:	de b7       	in	r29, 0x3e	; 62
    2e5e:	8b 83       	std	Y+3, r24	; 0x03
    2e60:	8b 01       	movw	r16, r22
    2e62:	f4 2e       	mov	r15, r20
    2e64:	80 91 00 00 	lds	r24, 0x0000
    2e68:	81 11       	cpse	r24, r1
    2e6a:	00 c0       	rjmp	.+0      	; 0x2e6c <_ZN9ServerDrv7getDataEhPhh+0x20>
    2e6c:	0e 94 00 00 	call	0	; 0x0 <__tmp_reg__>
    2e70:	81 e0       	ldi	r24, 0x01	; 1
    2e72:	80 93 00 00 	sts	0x0000, r24
    2e76:	0e 94 00 00 	call	0	; 0x0 <__tmp_reg__>
    2e7a:	0e 94 00 00 	call	0	; 0x0 <__tmp_reg__>
    2e7e:	62 e0       	ldi	r22, 0x02	; 2
    2e80:	8c e2       	ldi	r24, 0x2C	; 44
    2e82:	0e 94 00 00 	call	0	; 0x0 <__tmp_reg__>
    2e86:	40 e0       	ldi	r20, 0x00	; 0
    2e88:	61 e0       	ldi	r22, 0x01	; 1
    2e8a:	ce 01       	movw	r24, r28
    2e8c:	03 96       	adiw	r24, 0x03	; 3
    2e8e:	0e 94 00 00 	call	0	; 0x0 <__tmp_reg__>
    2e92:	61 e0       	ldi	r22, 0x01	; 1
    2e94:	8f 2d       	mov	r24, r15
    2e96:	90 e0       	ldi	r25, 0x00	; 0
    2e98:	0e 94 00 00 	call	0	; 0x0 <__tmp_reg__>
    2e9c:	0e 94 00 00 	call	0	; 0x0 <__tmp_reg__>
    2ea0:	1a 82       	std	Y+2, r1	; 0x02
    2ea2:	19 82       	std	Y+1, r1	; 0x01
    2ea4:	ae 01       	movw	r20, r28
    2ea6:	4f 5f       	subi	r20, 0xFF	; 255
    2ea8:	5f 4f       	sbci	r21, 0xFF	; 255
    2eaa:	be 01       	movw	r22, r28
    2eac:	6e 5f       	subi	r22, 0xFE	; 254
    2eae:	7f 4f       	sbci	r23, 0xFF	; 255
    2eb0:	8c e2       	ldi	r24, 0x2C	; 44
    2eb2:	0e 94 00 00 	call	0	; 0x0 <__tmp_reg__>
    2eb6:	0e 94 00 00 	call	0	; 0x0 <__tmp_reg__>
    2eba:	89 81       	ldd	r24, Y+1	; 0x01
    2ebc:	88 23       	and	r24, r24
    2ebe:	01 f0       	breq	.+0      	; 0x2ec0 <_ZN9ServerDrv7getDataEhPhh+0x74>
    2ec0:	8a 81       	ldd	r24, Y+2	; 0x02
    2ec2:	f8 01       	movw	r30, r16
    2ec4:	80 83       	st	Z, r24
    2ec6:	81 e0       	ldi	r24, 0x01	; 1
    2ec8:	00 c0       	rjmp	.+0      	; 0x2eca <_ZN9ServerDrv7getDataEhPhh+0x7e>
    2eca:	80 e0       	ldi	r24, 0x00	; 0
    2ecc:	0f 90       	pop	r0
    2ece:	0f 90       	pop	r0
    2ed0:	0f 90       	pop	r0
    2ed2:	df 91       	pop	r29
    2ed4:	cf 91       	pop	r28
    2ed6:	1f 91       	pop	r17
    2ed8:	0f 91       	pop	r16
    2eda:	ff 90       	pop	r15
    2edc:	08 95       	ret

Disassembly of section .text._ZN9ServerDrv10getDataBufEhPhPj:

00005d2a <_ZN9ServerDrv10getDataBufEhPhPj>:
    5d2a:	ef 92       	push	r14
    5d2c:	ff 92       	push	r15
    5d2e:	0f 93       	push	r16
    5d30:	1f 93       	push	r17
    5d32:	cf 93       	push	r28
    5d34:	df 93       	push	r29
    5d36:	1f 92       	push	r1
    5d38:	cd b7       	in	r28, 0x3d	; 61
    5d3a:	de b7       	in	r29, 0x3e	; 62
    5d3c:	89 83       	std	Y+1, r24	; 0x01
    5d3e:	7b 01       	movw	r14, r22
    5d40:	8a 01       	movw	r16, r20
    5d42:	80 91 00 00 	lds	r24, 0x0000
    5d46:	81 11       	cpse	r24, r1
    5d48:	00 c0       	rjmp	.+0      	; 0x5d4a <_ZN9ServerDrv10getDataBufEhPhPj+0x20>
    5d4a:	0e 94 00 00 	call	0	; 0x0 <__tmp_reg__>
    5d4e:	81 e0       	ldi	r24, 0x01	; 1
    5d50:	80 93 00 00 	sts	0x0000, r24
    5d54:	0e 94 00 00 	call	0	; 0x0 <__tmp_reg__>
    5d58:	0e 94 00 00 	call	0	; 0x0 <__tmp_reg__>
    5d5c:	61 e0       	ldi	r22, 0x01	; 1
    5d5e:	85 e4       	ldi	r24, 0x45	; 69
    5d60:	0e 94 00 00 	call	0	; 0x0 <__tmp_reg__>
    5d64:	41 e0       	ldi	r20, 0x01	; 1
    5d66:	61 e0       	ldi	r22, 0x01	; 1
    5d68:	70 e0       	ldi	r23, 0x00	; 0
    5d6a:	ce 01       	movw	r24, r28
    5d6c:	01 96       	adiw	r24, 0x01	; 1
    5d6e:	0e 94 00 00 	call	0	; 0x0 <__tmp_reg__>
    5d72:	0e 94 00 00 	call	0	; 0x0 <__tmp_reg__>
    5d76:	a8 01       	movw	r20, r16
    5d78:	b7 01       	movw	r22, r14
    5d7a:	85 e4       	ldi	r24, 0x45	; 69
    5d7c:	0e 94 00 00 	call	0	; 0x0 <__tmp_reg__>
    5d80:	0e 94 00 00 	call	0	; 0x0 <__tmp_reg__>
    5d84:	81 e0       	ldi	r24, 0x01	; 1
    5d86:	f8 01       	movw	r30, r16
    5d88:	20 81       	ld	r18, Z
    5d8a:	31 81       	ldd	r19, Z+1	; 0x01
    5d8c:	23 2b       	or	r18, r19
    5d8e:	01 f4       	brne	.+0      	; 0x5d90 <_ZN9ServerDrv10getDataBufEhPhPj+0x66>
    5d90:	80 e0       	ldi	r24, 0x00	; 0
    5d92:	0f 90       	pop	r0
    5d94:	df 91       	pop	r29
    5d96:	cf 91       	pop	r28
    5d98:	1f 91       	pop	r17
    5d9a:	0f 91       	pop	r16
    5d9c:	ff 90       	pop	r15
    5d9e:	ef 90       	pop	r14
    5da0:	08 95       	ret

Disassembly of section .text._ZN9ServerDrv13insertDataBufEhPKhj:

0000bacc <_ZN9ServerDrv13insertDataBufEhPKhj>:
    bacc:	ef 92       	push	r14
    bace:	ff 92       	push	r15
    bad0:	0f 93       	push	r16
    bad2:	1f 93       	push	r17
    bad4:	cf 93       	push	r28
    bad6:	df 93       	push	r29
    bad8:	00 d0       	rcall	.+0      	; 0xbada <_ZN9ServerDrv13insertDataBufEhPKhj+0xe>
    bada:	1f 92       	push	r1
    badc:	cd b7       	in	r28, 0x3d	; 61
    bade:	de b7       	in	r29, 0x3e	; 62
    bae0:	8b 83       	std	Y+3, r24	; 0x03
    bae2:	8b 01       	movw	r16, r22
    bae4:	7a 01       	movw	r14, r20
    bae6:	80 91 00 00 	lds	r24, 0x0000
    baea:	81 11       	cpse	r24, r1
    baec:	00 c0       	rjmp	.+0      	; 0xbaee <_ZN9ServerDrv13insertDataBufEhPKhj+0x22>
    baee:	0e 94 00 00 	call	0	; 0x0 <__tmp_reg__>
    baf2:	81 e0       	ldi	r24, 0x01	; 1
    baf4:	80 93 00 00 	sts	0x0000, r24
    baf8:	0e 94 00 00 	call	0	; 0x0 <__tmp_reg__>
    bafc:	0e 94 00 00 	call	0	; 0x0 <__tmp_reg__>
    bb00:	62 e0       	ldi	r22, 0x02	; 2
    bb02:	86 e4       	ldi	r24, 0x46	; 70
    bb04:	0e 94 00 00 	call	0	; 0x0 <__tmp_reg__>
    bb08:	40 e0       	ldi	r20, 0x00	; 0
    bb0a:	61 e0       	ldi	r22, 0x01	; 1
    bb0c:	70 e0       	ldi	r23, 0x00	; 0
    bb0e:	ce 01       	movw	r24, r28
    bb10:	03 96       	adiw	r24, 0x03	; 3
    bb12:	0e 94 00 00 	call	0	; 0x0 <__tmp_reg__>
    bb16:	41 e0       	ldi	r20, 0x01	; 1
    bb18:	b7 01       	movw	r22, r14
    bb1a:	c8 01       	movw	r24, r16
    bb1c:	0e 94 00 00 	call	0	; 0x0 <__tmp_reg__>
    bb20:	0e 94 00 00 	call	0	; 0x0 <__tmp_reg__>
    bb24:	1a 82       	std	Y+2, r1	; 0x02
    bb26:	19 82       	std	Y+1, r1	; 0x01
    bb28:	ae 01       	movw	r20, r28
    bb2a:	4f 5f       	subi	r20, 0xFF	; 255
    bb2c:	5f 4f       	sbci	r21, 0xFF	; 255
    bb2e:	be 01       	movw	r22, r28
    bb30:	6e 5f       	subi	r22, 0xFE	; 254
    bb32:	7f 4f       	sbci	r23, 0xFF	; 255
    bb34:	86 e4       	ldi	r24, 0x46	; 70
    bb36:	0e 94 00 00 	call	0	; 0x0 <__tmp_reg__>
    bb3a:	0e 94 00 00 	call	0	; 0x0 <__tmp_reg__>
    bb3e:	89 81       	ldd	r24, Y+1	; 0x01
    bb40:	88 23       	and	r24, r24
    bb42:	01 f0       	breq	.+0      	; 0xbb44 <_ZN9ServerDrv13insertDataBufEhPKhj+0x78>
    bb44:	81 e0       	ldi	r24, 0x01	; 1
    bb46:	9a 81       	ldd	r25, Y+2	; 0x02
    bb48:	91 30       	cpi	r25, 0x01	; 1
    bb4a:	01 f0       	breq	.+0      	; 0xbb4c <_ZN9ServerDrv13insertDataBufEhPKhj+0x80>
    bb4c:	80 e0       	ldi	r24, 0x00	; 0
    bb4e:	0f 90       	pop	r0
    bb50:	0f 90       	pop	r0
    bb52:	0f 90       	pop	r0
    bb54:	df 91       	pop	r29
    bb56:	cf 91       	pop	r28
    bb58:	1f 91       	pop	r17
    bb5a:	0f 91       	pop	r16
    bb5c:	ff 90       	pop	r15
    bb5e:	ef 90       	pop	r14
    bb60:	08 95       	ret

Disassembly of section .text._ZN9ServerDrv11sendUdpDataEh:

0001762e <_ZN9ServerDrv11sendUdpDataEh>:
   1762e:	cf 93       	push	r28
   17630:	df 93       	push	r29
   17632:	00 d0       	rcall	.+0      	; 0x17634 <_ZN9ServerDrv11sendUdpDataEh+0x6>
   17634:	1f 92       	push	r1
   17636:	cd b7       	in	r28, 0x3d	; 61
   17638:	de b7       	in	r29, 0x3e	; 62
   1763a:	8b 83       	std	Y+3, r24	; 0x03
   1763c:	80 91 00 00 	lds	r24, 0x0000
   17640:	81 11       	cpse	r24, r1
   17642:	00 c0       	rjmp	.+0      	; 0x17644 <_ZN9ServerDrv11sendUdpDataEh+0x16>
   17644:	0e 94 00 00 	call	0	; 0x0 <__tmp_reg__>
   17648:	81 e0       	ldi	r24, 0x01	; 1
   1764a:	80 93 00 00 	sts	0x0000, r24
   1764e:	0e 94 00 00 	call	0	; 0x0 <__tmp_reg__>
   17652:	0e 94 00 00 	call	0	; 0x0 <__tmp_reg__>
   17656:	61 e0       	ldi	r22, 0x01	; 1
   17658:	89 e3       	ldi	r24, 0x39	; 57
   1765a:	0e 94 00 00 	call	0	; 0x0 <__tmp_reg__>
   1765e:	41 e0       	ldi	r20, 0x01	; 1
   17660:	61 e0       	ldi	r22, 0x01	; 1
   17662:	ce 01       	movw	r24, r28
   17664:	03 96       	adiw	r24, 0x03	; 3
   17666:	0e 94 00 00 	call	0	; 0x0 <__tmp_reg__>
   1766a:	0e 94 00 00 	call	0	; 0x0 <__tmp_reg__>
   1766e:	1a 82       	std	Y+2, r1	; 0x02
   17670:	19 82       	std	Y+1, r1	; 0x01
   17672:	ae 01       	movw	r20, r28
   17674:	4f 5f       	subi	r20, 0xFF	; 255
   17676:	5f 4f       	sbci	r21, 0xFF	; 255
   17678:	be 01       	movw	r22, r28
   1767a:	6e 5f       	subi	r22, 0xFE	; 254
   1767c:	7f 4f       	sbci	r23, 0xFF	; 255
   1767e:	89 e3       	ldi	r24, 0x39	; 57
   17680:	0e 94 00 00 	call	0	; 0x0 <__tmp_reg__>
   17684:	0e 94 00 00 	call	0	; 0x0 <__tmp_reg__>
   17688:	89 81       	ldd	r24, Y+1	; 0x01
   1768a:	88 23       	and	r24, r24
   1768c:	01 f0       	breq	.+0      	; 0x1768e <_ZN9ServerDrv11sendUdpDataEh+0x60>
   1768e:	81 e0       	ldi	r24, 0x01	; 1
   17690:	9a 81       	ldd	r25, Y+2	; 0x02
   17692:	91 30       	cpi	r25, 0x01	; 1
   17694:	01 f0       	breq	.+0      	; 0x17696 <_ZN9ServerDrv11sendUdpDataEh+0x68>
   17696:	80 e0       	ldi	r24, 0x00	; 0
   17698:	0f 90       	pop	r0
   1769a:	0f 90       	pop	r0
   1769c:	0f 90       	pop	r0
   1769e:	df 91       	pop	r29
   176a0:	cf 91       	pop	r28
   176a2:	08 95       	ret

Disassembly of section .text._ZN9ServerDrv8sendDataEhPKhj:

0002ecd2 <_ZN9ServerDrv8sendDataEhPKhj>:
   2ecd2:	ef 92       	push	r14
   2ecd4:	ff 92       	push	r15
   2ecd6:	0f 93       	push	r16
   2ecd8:	1f 93       	push	r17
   2ecda:	cf 93       	push	r28
   2ecdc:	df 93       	push	r29
   2ecde:	00 d0       	rcall	.+0      	; 0x2ece0 <_ZN9ServerDrv8sendDataEhPKhj+0xe>
   2ece0:	1f 92       	push	r1
   2ece2:	cd b7       	in	r28, 0x3d	; 61
   2ece4:	de b7       	in	r29, 0x3e	; 62
   2ece6:	8b 83       	std	Y+3, r24	; 0x03
   2ece8:	8b 01       	movw	r16, r22
   2ecea:	7a 01       	movw	r14, r20
   2ecec:	80 91 00 00 	lds	r24, 0x0000
   2ecf0:	81 11       	cpse	r24, r1
   2ecf2:	00 c0       	rjmp	.+0      	; 0x2ecf4 <_ZN9ServerDrv8sendDataEhPKhj+0x22>
   2ecf4:	0e 94 00 00 	call	0	; 0x0 <__tmp_reg__>
   2ecf8:	81 e0       	ldi	r24, 0x01	; 1
   2ecfa:	80 93 00 00 	sts	0x0000, r24
   2ecfe:	0e 94 00 00 	call	0	; 0x0 <__tmp_reg__>
   2ed02:	0e 94 00 00 	call	0	; 0x0 <__tmp_reg__>
   2ed06:	62 e0       	ldi	r22, 0x02	; 2
   2ed08:	84 e4       	ldi	r24, 0x44	; 68
   2ed0a:	0e 94 00 00 	call	0	; 0x0 <__tmp_reg__>
   2ed0e:	40 e0       	ldi	r20, 0x00	; 0
   2ed10:	61 e0       	ldi	r22, 0x01	; 1
   2ed12:	70 e0       	ldi	r23, 0x00	; 0
   2ed14:	ce 01       	movw	r24, r28
   2ed16:	03 96       	adiw	r24, 0x03	; 3
   2ed18:	0e 94 00 00 	call	0	; 0x0 <__tmp_reg__>
   2ed1c:	41 e0       	ldi	r20, 0x01	; 1
   2ed1e:	b7 01       	movw	r22, r14
   2ed20:	c8 01       	movw	r24, r16
   2ed22:	0e 94 00 00 	call	0	; 0x0 <__tmp_reg__>
   2ed26:	0e 94 00 00 	call	0	; 0x0 <__tmp_reg__>
   2ed2a:	1a 82       	std	Y+2, r1	; 0x02
   2ed2c:	19 82       	std	Y+1, r1	; 0x01
   2ed2e:	ae 01       	movw	r20, r28
   2ed30:	4f 5f       	subi	r20, 0xFF	; 255
   2ed32:	5f 4f       	sbci	r21, 0xFF	; 255
   2ed34:	be 01       	movw	r22, r28
   2ed36:	6e 5f       	subi	r22, 0xFE	; 254
   2ed38:	7f 4f       	sbci	r23, 0xFF	; 255
   2ed3a:	84 e4       	ldi	r24, 0x44	; 68
   2ed3c:	0e 94 00 00 	call	0	; 0x0 <__tmp_reg__>
   2ed40:	0e 94 00 00 	call	0	; 0x0 <__tmp_reg__>
   2ed44:	89 81       	ldd	r24, Y+1	; 0x01
   2ed46:	88 23       	and	r24, r24
   2ed48:	01 f0       	breq	.+0      	; 0x2ed4a <_ZN9ServerDrv8sendDataEhPKhj+0x78>
   2ed4a:	81 e0       	ldi	r24, 0x01	; 1
   2ed4c:	9a 81       	ldd	r25, Y+2	; 0x02
   2ed4e:	91 30       	cpi	r25, 0x01	; 1
   2ed50:	01 f0       	breq	.+0      	; 0x2ed52 <_ZN9ServerDrv8sendDataEhPKhj+0x80>
   2ed52:	80 e0       	ldi	r24, 0x00	; 0
   2ed54:	0f 90       	pop	r0
   2ed56:	0f 90       	pop	r0
   2ed58:	0f 90       	pop	r0
   2ed5a:	df 91       	pop	r29
   2ed5c:	cf 91       	pop	r28
   2ed5e:	1f 91       	pop	r17
   2ed60:	0f 91       	pop	r16
   2ed62:	ff 90       	pop	r15
   2ed64:	ef 90       	pop	r14
   2ed66:	08 95       	ret

Disassembly of section .text._ZN9ServerDrv13checkDataSentEh:

0005da3a <_ZN9ServerDrv13checkDataSentEh>:
   5da3a:	ff 92       	push	r15
   5da3c:	0f 93       	push	r16
   5da3e:	1f 93       	push	r17
   5da40:	cf 93       	push	r28
   5da42:	df 93       	push	r29
   5da44:	00 d0       	rcall	.+0      	; 0x5da46 <_ZN9ServerDrv13checkDataSentEh+0xc>
   5da46:	1f 92       	push	r1
   5da48:	cd b7       	in	r28, 0x3d	; 61
   5da4a:	de b7       	in	r29, 0x3e	; 62
   5da4c:	8b 83       	std	Y+3, r24	; 0x03
   5da4e:	1a 82       	std	Y+2, r1	; 0x02
   5da50:	19 82       	std	Y+1, r1	; 0x01
   5da52:	00 e0       	ldi	r16, 0x00	; 0
   5da54:	10 e0       	ldi	r17, 0x00	; 0
   5da56:	ff 24       	eor	r15, r15
   5da58:	f3 94       	inc	r15
   5da5a:	80 91 00 00 	lds	r24, 0x0000
   5da5e:	81 11       	cpse	r24, r1
   5da60:	00 c0       	rjmp	.+0      	; 0x5da62 <_ZN9ServerDrv13checkDataSentEh+0x28>
   5da62:	0e 94 00 00 	call	0	; 0x0 <__tmp_reg__>
   5da66:	f0 92 00 00 	sts	0x0000, r15
   5da6a:	0e 94 00 00 	call	0	; 0x0 <__tmp_reg__>
   5da6e:	0e 94 00 00 	call	0	; 0x0 <__tmp_reg__>
   5da72:	61 e0       	ldi	r22, 0x01	; 1
   5da74:	8a e2       	ldi	r24, 0x2A	; 42
   5da76:	0e 94 00 00 	call	0	; 0x0 <__tmp_reg__>
   5da7a:	41 e0       	ldi	r20, 0x01	; 1
   5da7c:	61 e0       	ldi	r22, 0x01	; 1
   5da7e:	ce 01       	movw	r24, r28
   5da80:	03 96       	adiw	r24, 0x03	; 3
   5da82:	0e 94 00 00 	call	0	; 0x0 <__tmp_reg__>
   5da86:	0e 94 00 00 	call	0	; 0x0 <__tmp_reg__>
   5da8a:	9e 01       	movw	r18, r28
   5da8c:	2f 5f       	subi	r18, 0xFF	; 255
   5da8e:	3f 4f       	sbci	r19, 0xFF	; 255
   5da90:	ae 01       	movw	r20, r28
   5da92:	4e 5f       	subi	r20, 0xFE	; 254
   5da94:	5f 4f       	sbci	r21, 0xFF	; 255
   5da96:	61 e0       	ldi	r22, 0x01	; 1
   5da98:	8a e2       	ldi	r24, 0x2A	; 42
   5da9a:	0e 94 00 00 	call	0	; 0x0 <__tmp_reg__>
   5da9e:	0e 94 00 00 	call	0	; 0x0 <__tmp_reg__>
   5daa2:	8a 81       	ldd	r24, Y+2	; 0x02
   5daa4:	81 11       	cpse	r24, r1
   5daa6:	00 c0       	rjmp	.+0      	; 0x5daa8 <_ZN9ServerDrv13checkDataSentEh+0x6e>
   5daa8:	0f 5f       	subi	r16, 0xFF	; 255
   5daaa:	1f 4f       	sbci	r17, 0xFF	; 255
   5daac:	64 e6       	ldi	r22, 0x64	; 100
   5daae:	70 e0       	ldi	r23, 0x00	; 0
   5dab0:	80 e0       	ldi	r24, 0x00	; 0
   5dab2:	90 e0       	ldi	r25, 0x00	; 0
   5dab4:	0e 94 00 00 	call	0	; 0x0 <__tmp_reg__>
   5dab8:	00 c0       	rjmp	.+0      	; 0x5daba <_ZN9ServerDrv13checkDataSentEh+0x80>
   5daba:	00 e0       	ldi	r16, 0x00	; 0
   5dabc:	10 e0       	ldi	r17, 0x00	; 0
   5dabe:	8a 81       	ldd	r24, Y+2	; 0x02
   5dac0:	88 23       	and	r24, r24
   5dac2:	01 f0       	breq	.+0      	; 0x5dac4 <_ZN9ServerDrv13checkDataSentEh+0x8a>
   5dac4:	81 e0       	ldi	r24, 0x01	; 1
   5dac6:	09 31       	cpi	r16, 0x19	; 25
   5dac8:	11 05       	cpc	r17, r1
   5daca:	01 f4       	brne	.+0      	; 0x5dacc <_ZN9ServerDrv13checkDataSentEh+0x92>
   5dacc:	80 e0       	ldi	r24, 0x00	; 0
   5dace:	00 c0       	rjmp	.+0      	; 0x5dad0 <_ZN9ServerDrv13checkDataSentEh+0x96>
   5dad0:	09 31       	cpi	r16, 0x19	; 25
   5dad2:	11 05       	cpc	r17, r1
   5dad4:	00 f0       	brcs	.+0      	; 0x5dad6 <_ZN9ServerDrv13checkDataSentEh+0x9c>
   5dad6:	00 c0       	rjmp	.+0      	; 0x5dad8 <_ZN9ServerDrv13checkDataSentEh+0x9e>
   5dad8:	0f 90       	pop	r0
   5dada:	0f 90       	pop	r0
   5dadc:	0f 90       	pop	r0
   5dade:	df 91       	pop	r29
   5dae0:	cf 91       	pop	r28
   5dae2:	1f 91       	pop	r17
   5dae4:	0f 91       	pop	r16
   5dae6:	ff 90       	pop	r15
   5dae8:	08 95       	ret

spi_drv.o:     file format elf32-avr

Sections:
Idx Name          Size      VMA       LMA       File off  Algn
  0 .text         00000000  00000000  00000000  00000034  2**0
                  CONTENTS, ALLOC, LOAD, READONLY, CODE
  1 .data         00000060  00000000  00000000  00000034  2**0
                  CONTENTS, ALLOC, LOAD, DATA
  2 .bss          00000000  00000000  00000000  00000094  2**0
                  ALLOC
  3 .stab         00001614  00000000  00000000  00000094  2**2
                  CONTENTS, RELOC, READONLY, DEBUGGING
  4 .stabstr      0000228c  00000000  00000000  000016a8  2**0
                  CONTENTS, READONLY, DEBUGGING
  5 .text._ZN6SpiDrv5beginEv 00000034  00000000  00000000  00003934  2**0
                  CONTENTS, ALLOC, LOAD, RELOC, READONLY, CODE
  6 .text._ZN6SpiDrv3endEv 00000004  00000000  00000000  00003968  2**0
                  CONTENTS, ALLOC, LOAD, RELOC, READONLY, CODE
  7 .text._ZN6SpiDrv14spiSlaveSelectEv 00000008  00000000  00000000  0000396c  2**0
                  CONTENTS, ALLOC, LOAD, RELOC, READONLY, CODE
  8 .text._ZN6SpiDrv16spiSlaveDeselectEv 00000008  00000000  00000000  00003974  2**0
                  CONTENTS, ALLOC, LOAD, RELOC, READONLY, CODE
  9 .text._ZN6SpiDrv11spiTransferEc 00000032  00000000  00000000  0000397c  2**0
                  CONTENTS, ALLOC, LOAD, RELOC, READONLY, CODE
 10 .text._ZN6SpiDrv16waitForSlaveSignEv 0000000c  00000000  00000000  000039ae  2**0
                  CONTENTS, ALLOC, LOAD, RELOC, READONLY, CODE
 11 .text._ZN6SpiDrv17waitForSlaveReadyEv 0000000c  00000000  00000000  000039ba  2**0
                  CONTENTS, ALLOC, LOAD, RELOC, READONLY, CODE
 12 .text._ZN6SpiDrv8getParamEPh 00000020  00000000  00000000  000039c6  2**0
                  CONTENTS, ALLOC, LOAD, RELOC, READONLY, CODE
 13 .text._ZN6SpiDrv16readAndCheckCharEcPc 00000026  00000000  00000000  000039e6  2**0
                  CONTENTS, ALLOC, LOAD, RELOC, READONLY, CODE
 14 .text._ZN6SpiDrv8readCharEv 0000001e  00000000  00000000  00003a0c  2**0
                  CONTENTS, ALLOC, LOAD, RELOC, READONLY, CODE
 15 .text._ZN6SpiDrv11waitSpiCharEh 00000038  00000000  00000000  00003a2a  2**0
                  CONTENTS, ALLOC, LOAD, RELOC, READONLY, CODE
 16 .text._ZN6SpiDrv18waitResponseParamsEhhP6tParam 000000da  00000000  00000000  00003a62  2**0
                  CONTENTS, ALLOC, LOAD, RELOC, READONLY, CODE
 17 .text._ZN6SpiDrv12waitResponseEhPhPS0_h 0000012c  00000000  00000000  00003b3c  2**0
                  CONTENTS, ALLOC, LOAD, RELOC, READONLY, CODE
 18 .text._ZN6SpiDrv9sendParamEPhhh 0000005c  00000000  00000000  00003c68  2**0
                  CONTENTS, ALLOC, LOAD, RELOC, READONLY, CODE
 19 .text._ZN6SpiDrv13sendParamLen8Eh 00000004  00000000  00000000  00003cc4  2**0
                  CONTENTS, ALLOC, LOAD, RELOC, READONLY, CODE
 20 .text._ZN6SpiDrv14sendParamLen16Ej 00000012  00000000  00000000  00003cc8  2**0
                  CONTENTS, ALLOC, LOAD, RELOC, READONLY, CODE
 21 .text._ZN6SpiDrv13readParamLen8EPh 00000018  00000000  00000000  00003cda  2**0
                  CONTENTS, ALLOC, LOAD, RELOC, READONLY, CODE
 22 .text._ZN6SpiDrv15waitResponseCmdEhhPhS0_ 00000098  00000000  00000000  00003cf2  2**0
                  CONTENTS, ALLOC, LOAD, RELOC, READONLY, CODE
 23 .text._ZN6SpiDrv17waitResponseData8EhPhS0_ 00000094  00000000  00000000  00003d8a  2**0
                  CONTENTS, ALLOC, LOAD, RELOC, READONLY, CODE
 24 .text._ZN6SpiDrv14readParamLen16EPj 00000032  00000000  00000000  00003e1e  2**0
                  CONTENTS, ALLOC, LOAD, RELOC, READONLY, CODE
 25 .text._ZN6SpiDrv18waitResponseData16EhPhPj 00000094  00000000  00000000  00003e50  2**0
                  CONTENTS, ALLOC, LOAD, RELOC, READONLY, CODE
 26 .text._ZN6SpiDrv10sendBufferEPhjh 0000005c  00000000  00000000  00003ee4  2**0
                  CONTENTS, ALLOC, LOAD, RELOC, READONLY, CODE
 27 .text._ZN6SpiDrv9sendParamEjh 00000048  00000000  00000000  00003f40  2**0
                  CONTENTS, ALLOC, LOAD, RELOC, READONLY, CODE
 28 .text._ZN6SpiDrv7sendCmdEhh 00000038  00000000  00000000  00003f88  2**0
                  CONTENTS, ALLOC, LOAD, RELOC, READONLY, CODE
 29 .bss.spiDrv   00000001  00000000  00000000  00003fc0  2**0
                  ALLOC
 30 .comment      00000012  00000000  00000000  00003fc0  2**0
                  CONTENTS, READONLY

Disassembly of section .text._ZN6SpiDrv5beginEv:

00000000 <_ZN6SpiDrv5beginEv>:
/*|___________|______|______|_________|_________|___________|________|____|_________| */
/*|   8 bit   | 1bit | 7bit |  8bit   |  8bit   |   8bit    | nbytes | .. |   8bit  | */
/*|___________|______|______|_________|_________|___________|________|____|_________| */

void SpiDrv::sendCmd(uint8_t cmd, uint8_t numParam)
{
   0:	0e 94 00 00 	call	0	; 0x0 <_ZN6SpiDrv5beginEv>

    // If numParam == 0 send END CMD
    if (numParam == 0)
        spiTransfer(END_CMD);

}
  64:	61 e0       	Address 0x0000000000000064 is out of bounds.
.word	0xffff	; ????
  66:	8a e0       	Address 0x0000000000000066 is out of bounds.
.word	0xffff	; ????
  68:	0e 94       	Address 0x0000000000000068 is out of bounds.
.word	0xffff	; ????
  6a:	00 00       	Address 0x000000000000006a is out of bounds.
.word	0xffff	; ????
  6c:	60 e0       	Address 0x000000000000006c is out of bounds.
.word	0xffff	; ????
  6e:	87 e0       	Address 0x000000000000006e is out of bounds.
.word	0xffff	; ????
  70:	0e 94       	Address 0x0000000000000070 is out of bounds.
.word	0xffff	; ????
  72:	00 00       	Address 0x0000000000000072 is out of bounds.
.word	0xffff	; ????
  74:	61 e0       	Address 0x0000000000000074 is out of bounds.
.word	0xffff	; ????
  76:	89 e0       	Address 0x0000000000000076 is out of bounds.
.word	0xffff	; ????
  78:	0e 94       	Address 0x0000000000000078 is out of bounds.
.word	0xffff	; ????
  7a:	00 00       	Address 0x000000000000007a is out of bounds.
.word	0xffff	; ????
  7c:	61 e0       	Address 0x000000000000007c is out of bounds.
.word	0xffff	; ????
  7e:	8a e0       	Address 0x000000000000007e is out of bounds.
.word	0xffff	; ????
  80:	0e 94       	Address 0x0000000000000080 is out of bounds.
.word	0xffff	; ????
  82:	00 00       	Address 0x0000000000000082 is out of bounds.
.word	0xffff	; ????
  84:	61 e0       	Address 0x0000000000000084 is out of bounds.
.word	0xffff	; ????
  86:	8a e0       	Address 0x0000000000000086 is out of bounds.
.word	0xffff	; ????
  88:	0e 94       	Address 0x0000000000000088 is out of bounds.
.word	0xffff	; ????
  8a:	00 00       	Address 0x000000000000008a is out of bounds.
.word	0xffff	; ????
  8c:	60 e0       	Address 0x000000000000008c is out of bounds.
.word	0xffff	; ????
  8e:	89 e0       	Address 0x000000000000008e is out of bounds.
.word	0xffff	; ????
  90:	0c 94       	Address 0x0000000000000090 is out of bounds.
.word	0xffff	; ????
	...

Disassembly of section .text._ZN6SpiDrv3endEv:

000000f4 <_ZN6SpiDrv3endEv>:
  f4:	0c 94 00 00 	jmp	0	; 0x0 <__tmp_reg__>

Disassembly of section .text._ZN6SpiDrv14spiSlaveSelectEv:

000001ec <_ZN6SpiDrv14spiSlaveSelectEv>:
 1ec:	60 e0       	ldi	r22, 0x00	; 0
 1ee:	8a e0       	ldi	r24, 0x0A	; 10
 1f0:	0c 94 00 00 	jmp	0	; 0x0 <__tmp_reg__>

Disassembly of section .text._ZN6SpiDrv16spiSlaveDeselectEv:

000003e0 <_ZN6SpiDrv16spiSlaveDeselectEv>:
 3e0:	61 e0       	ldi	r22, 0x01	; 1
 3e2:	8a e0       	ldi	r24, 0x0A	; 10
 3e4:	0c 94 00 00 	jmp	0	; 0x0 <__tmp_reg__>

Disassembly of section .text._ZN6SpiDrv11spiTransferEc:

000007c8 <_ZN6SpiDrv11spiTransferEc>:
 7c8:	cf 93       	push	r28
 7ca:	df 93       	push	r29
 7cc:	1f 92       	push	r1
 7ce:	cd b7       	in	r28, 0x3d	; 61
 7d0:	de b7       	in	r29, 0x3e	; 62
 7d2:	89 83       	std	Y+1, r24	; 0x01
 7d4:	89 81       	ldd	r24, Y+1	; 0x01
 7d6:	8e bd       	out	0x2e, r24	; 46
 7d8:	00 00       	nop
 7da:	0d b4       	in	r0, 0x2d	; 45
 7dc:	07 fe       	sbrs	r0, 7
 7de:	00 c0       	rjmp	.+0      	; 0x7e0 <_ZN6SpiDrv11spiTransferEc+0x18>
 7e0:	8e b5       	in	r24, 0x2e	; 46
 7e2:	2a e0       	ldi	r18, 0x0A	; 10
 7e4:	30 e0       	ldi	r19, 0x00	; 0
 7e6:	00 00       	nop
 7e8:	21 50       	subi	r18, 0x01	; 1
 7ea:	31 09       	sbc	r19, r1
 7ec:	21 15       	cp	r18, r1
 7ee:	31 05       	cpc	r19, r1
 7f0:	01 f4       	brne	.+0      	; 0x7f2 <_ZN6SpiDrv11spiTransferEc+0x2a>
 7f2:	0f 90       	pop	r0
 7f4:	df 91       	pop	r29
 7f6:	cf 91       	pop	r28
 7f8:	08 95       	ret

Disassembly of section .text._ZN6SpiDrv16waitForSlaveSignEv:

00000fc2 <_ZN6SpiDrv16waitForSlaveSignEv>:
 fc2:	87 e0       	ldi	r24, 0x07	; 7
 fc4:	0e 94 00 00 	call	0	; 0x0 <__tmp_reg__>
 fc8:	01 97       	sbiw	r24, 0x01	; 1
 fca:	01 f4       	brne	.+0      	; 0xfcc <_ZN6SpiDrv16waitForSlaveSignEv+0xa>
 fcc:	08 95       	ret

Disassembly of section .text._ZN6SpiDrv17waitForSlaveReadyEv:

00001f90 <_ZN6SpiDrv17waitForSlaveReadyEv>:
    1f90:	87 e0       	ldi	r24, 0x07	; 7
    1f92:	0e 94 00 00 	call	0	; 0x0 <__tmp_reg__>
    1f96:	89 2b       	or	r24, r25
    1f98:	01 f4       	brne	.+0      	; 0x1f9a <_ZN6SpiDrv17waitForSlaveReadyEv+0xa>
    1f9a:	08 95       	ret

Disassembly of section .text._ZN6SpiDrv8getParamEPh:

00003f2c <_ZN6SpiDrv8getParamEPh>:
    3f2c:	cf 93       	push	r28
    3f2e:	df 93       	push	r29
    3f30:	ec 01       	movw	r28, r24
    3f32:	8f ef       	ldi	r24, 0xFF	; 255
    3f34:	0e 94 00 00 	call	0	; 0x0 <__tmp_reg__>
    3f38:	88 83       	st	Y, r24
    3f3a:	8a e0       	ldi	r24, 0x0A	; 10
    3f3c:	90 e0       	ldi	r25, 0x00	; 0
    3f3e:	00 00       	nop
    3f40:	01 97       	sbiw	r24, 0x01	; 1
    3f42:	00 97       	sbiw	r24, 0x00	; 0
    3f44:	01 f4       	brne	.+0      	; 0x3f46 <_ZN6SpiDrv8getParamEPh+0x1a>
    3f46:	df 91       	pop	r29
    3f48:	cf 91       	pop	r28
    3f4a:	08 95       	ret

Disassembly of section .text._ZN6SpiDrv16readAndCheckCharEcPc:

00007e78 <_ZN6SpiDrv16readAndCheckCharEcPc>:
    7e78:	1f 93       	push	r17
    7e7a:	cf 93       	push	r28
    7e7c:	df 93       	push	r29
    7e7e:	18 2f       	mov	r17, r24
    7e80:	eb 01       	movw	r28, r22
    7e82:	cb 01       	movw	r24, r22
    7e84:	0e 94 00 00 	call	0	; 0x0 <__tmp_reg__>
    7e88:	81 e0       	ldi	r24, 0x01	; 1
    7e8a:	90 e0       	ldi	r25, 0x00	; 0
    7e8c:	28 81       	ld	r18, Y
    7e8e:	21 17       	cp	r18, r17
    7e90:	01 f0       	breq	.+0      	; 0x7e92 <_ZN6SpiDrv16readAndCheckCharEcPc+0x1a>
    7e92:	80 e0       	ldi	r24, 0x00	; 0
    7e94:	90 e0       	ldi	r25, 0x00	; 0
    7e96:	df 91       	pop	r29
    7e98:	cf 91       	pop	r28
    7e9a:	1f 91       	pop	r17
    7e9c:	08 95       	ret

Disassembly of section .text._ZN6SpiDrv8readCharEv:

0000fd16 <_ZN6SpiDrv8readCharEv>:
    fd16:	cf 93       	push	r28
    fd18:	df 93       	push	r29
    fd1a:	1f 92       	push	r1
    fd1c:	cd b7       	in	r28, 0x3d	; 61
    fd1e:	de b7       	in	r29, 0x3e	; 62
    fd20:	19 82       	std	Y+1, r1	; 0x01
    fd22:	ce 01       	movw	r24, r28
    fd24:	01 96       	adiw	r24, 0x01	; 1
    fd26:	0e 94 00 00 	call	0	; 0x0 <__tmp_reg__>
    fd2a:	89 81       	ldd	r24, Y+1	; 0x01
    fd2c:	0f 90       	pop	r0
    fd2e:	df 91       	pop	r29
    fd30:	cf 91       	pop	r28
    fd32:	08 95       	ret

Disassembly of section .text._ZN6SpiDrv11waitSpiCharEh:

0001fa4a <_ZN6SpiDrv11waitSpiCharEh>:
   1fa4a:	1f 93       	push	r17
   1fa4c:	cf 93       	push	r28
   1fa4e:	df 93       	push	r29
   1fa50:	18 2f       	mov	r17, r24
   1fa52:	c9 ee       	ldi	r28, 0xE9	; 233
   1fa54:	d3 e0       	ldi	r29, 0x03	; 3
   1fa56:	0e 94 00 00 	call	0	; 0x0 <__tmp_reg__>
   1fa5a:	28 2f       	mov	r18, r24
   1fa5c:	8f 3e       	cpi	r24, 0xEF	; 239
   1fa5e:	01 f0       	breq	.+0      	; 0x1fa60 <_ZN6SpiDrv11waitSpiCharEh+0x16>
   1fa60:	21 97       	sbiw	r28, 0x01	; 1
   1fa62:	20 97       	sbiw	r28, 0x00	; 0
   1fa64:	01 f0       	breq	.+0      	; 0x1fa66 <_ZN6SpiDrv11waitSpiCharEh+0x1c>
   1fa66:	81 13       	cpse	r24, r17
   1fa68:	00 c0       	rjmp	.+0      	; 0x1fa6a <_ZN6SpiDrv11waitSpiCharEh+0x20>
   1fa6a:	00 c0       	rjmp	.+0      	; 0x1fa6c <_ZN6SpiDrv11waitSpiCharEh+0x22>
   1fa6c:	8f ef       	ldi	r24, 0xFF	; 255
   1fa6e:	9f ef       	ldi	r25, 0xFF	; 255
   1fa70:	00 c0       	rjmp	.+0      	; 0x1fa72 <_ZN6SpiDrv11waitSpiCharEh+0x28>
   1fa72:	81 e0       	ldi	r24, 0x01	; 1
   1fa74:	90 e0       	ldi	r25, 0x00	; 0
   1fa76:	21 13       	cpse	r18, r17
   1fa78:	80 e0       	ldi	r24, 0x00	; 0
   1fa7a:	df 91       	pop	r29
   1fa7c:	cf 91       	pop	r28
   1fa7e:	1f 91       	pop	r17
   1fa80:	08 95       	ret

Disassembly of section .text._ZN6SpiDrv18waitResponseParamsEhhP6tParam:

0003f4cc <_ZN6SpiDrv18waitResponseParamsEhhP6tParam>:
   3f4cc:	6f 92       	push	r6
   3f4ce:	7f 92       	push	r7
   3f4d0:	8f 92       	push	r8
   3f4d2:	9f 92       	push	r9
   3f4d4:	af 92       	push	r10
   3f4d6:	bf 92       	push	r11
   3f4d8:	cf 92       	push	r12
   3f4da:	df 92       	push	r13
   3f4dc:	ef 92       	push	r14
   3f4de:	ff 92       	push	r15
   3f4e0:	0f 93       	push	r16
   3f4e2:	1f 93       	push	r17
   3f4e4:	cf 93       	push	r28
   3f4e6:	df 93       	push	r29
   3f4e8:	1f 92       	push	r1
   3f4ea:	cd b7       	in	r28, 0x3d	; 61
   3f4ec:	de b7       	in	r29, 0x3e	; 62
   3f4ee:	18 2f       	mov	r17, r24
   3f4f0:	66 2e       	mov	r6, r22
   3f4f2:	7a 01       	movw	r14, r20
   3f4f4:	19 82       	std	Y+1, r1	; 0x01
   3f4f6:	80 ee       	ldi	r24, 0xE0	; 224
   3f4f8:	0e 94 00 00 	call	0	; 0x0 <__tmp_reg__>
   3f4fc:	89 2b       	or	r24, r25
   3f4fe:	01 f4       	brne	.+0      	; 0x3f500 <_ZN6SpiDrv18waitResponseParamsEhhP6tParam+0x34>
   3f500:	80 e0       	ldi	r24, 0x00	; 0
   3f502:	90 e0       	ldi	r25, 0x00	; 0
   3f504:	00 c0       	rjmp	.+0      	; 0x3f506 <_ZN6SpiDrv18waitResponseParamsEhhP6tParam+0x3a>
   3f506:	ce 01       	movw	r24, r28
   3f508:	01 96       	adiw	r24, 0x01	; 1
   3f50a:	0e 94 00 00 	call	0	; 0x0 <__tmp_reg__>
   3f50e:	10 68       	ori	r17, 0x80	; 128
   3f510:	89 81       	ldd	r24, Y+1	; 0x01
   3f512:	81 13       	cpse	r24, r17
   3f514:	00 c0       	rjmp	.+0      	; 0x3f516 <_ZN6SpiDrv18waitResponseParamsEhhP6tParam+0x4a>
   3f516:	0e 94 00 00 	call	0	; 0x0 <__tmp_reg__>
   3f51a:	78 2e       	mov	r7, r24
   3f51c:	88 23       	and	r24, r24
   3f51e:	01 f0       	breq	.+0      	; 0x3f520 <_ZN6SpiDrv18waitResponseParamsEhhP6tParam+0x54>
   3f520:	87 01       	movw	r16, r14
   3f522:	c1 2c       	mov	r12, r1
   3f524:	d1 2c       	mov	r13, r1
   3f526:	88 2e       	mov	r8, r24
   3f528:	91 2c       	mov	r9, r1
   3f52a:	c8 14       	cp	r12, r8
   3f52c:	d9 04       	cpc	r13, r9
   3f52e:	04 f4       	brge	.+0      	; 0x3f530 <_ZN6SpiDrv18waitResponseParamsEhhP6tParam+0x64>
   3f530:	8f ef       	ldi	r24, 0xFF	; 255
   3f532:	0e 94 00 00 	call	0	; 0x0 <__tmp_reg__>
   3f536:	f8 01       	movw	r30, r16
   3f538:	80 83       	st	Z, r24
   3f53a:	e1 2c       	mov	r14, r1
   3f53c:	f1 2c       	mov	r15, r1
   3f53e:	f8 01       	movw	r30, r16
   3f540:	20 81       	ld	r18, Z
   3f542:	30 e0       	ldi	r19, 0x00	; 0
   3f544:	e2 16       	cp	r14, r18
   3f546:	f3 06       	cpc	r15, r19
   3f548:	04 f4       	brge	.+0      	; 0x3f54a <_ZN6SpiDrv18waitResponseParamsEhhP6tParam+0x7e>
   3f54a:	f8 01       	movw	r30, r16
   3f54c:	a1 80       	ldd	r10, Z+1	; 0x01
   3f54e:	b2 80       	ldd	r11, Z+2	; 0x02
   3f550:	ae 0c       	add	r10, r14
   3f552:	bf 1c       	adc	r11, r15
   3f554:	8f ef       	ldi	r24, 0xFF	; 255
   3f556:	0e 94 00 00 	call	0	; 0x0 <__tmp_reg__>
   3f55a:	f5 01       	movw	r30, r10
   3f55c:	80 83       	st	Z, r24
   3f55e:	ff ef       	ldi	r31, 0xFF	; 255
   3f560:	ef 1a       	sub	r14, r31
   3f562:	ff 0a       	sbc	r15, r31
   3f564:	00 c0       	rjmp	.+0      	; 0x3f566 <_ZN6SpiDrv18waitResponseParamsEhhP6tParam+0x9a>
   3f566:	ff ef       	ldi	r31, 0xFF	; 255
   3f568:	cf 1a       	sub	r12, r31
   3f56a:	df 0a       	sbc	r13, r31
   3f56c:	0d 5f       	subi	r16, 0xFD	; 253
   3f56e:	1f 4f       	sbci	r17, 0xFF	; 255
   3f570:	00 c0       	rjmp	.+0      	; 0x3f572 <_ZN6SpiDrv18waitResponseParamsEhhP6tParam+0xa6>
   3f572:	67 10       	cpse	r6, r7
   3f574:	00 c0       	rjmp	.+0      	; 0x3f576 <_ZN6SpiDrv18waitResponseParamsEhhP6tParam+0xaa>
   3f576:	be 01       	movw	r22, r28
   3f578:	6f 5f       	subi	r22, 0xFF	; 255
   3f57a:	7f 4f       	sbci	r23, 0xFF	; 255
   3f57c:	8e ee       	ldi	r24, 0xEE	; 238
   3f57e:	0e 94 00 00 	call	0	; 0x0 <__tmp_reg__>
   3f582:	81 e0       	ldi	r24, 0x01	; 1
   3f584:	90 e0       	ldi	r25, 0x00	; 0
   3f586:	0f 90       	pop	r0
   3f588:	df 91       	pop	r29
   3f58a:	cf 91       	pop	r28
   3f58c:	1f 91       	pop	r17
   3f58e:	0f 91       	pop	r16
   3f590:	ff 90       	pop	r15
   3f592:	ef 90       	pop	r14
   3f594:	df 90       	pop	r13
   3f596:	cf 90       	pop	r12
   3f598:	bf 90       	pop	r11
   3f59a:	af 90       	pop	r10
   3f59c:	9f 90       	pop	r9
   3f59e:	8f 90       	pop	r8
   3f5a0:	7f 90       	pop	r7
   3f5a2:	6f 90       	pop	r6
   3f5a4:	08 95       	ret

Disassembly of section .text._ZN6SpiDrv12waitResponseEhPhPS0_h:

0007ea72 <_ZN6SpiDrv12waitResponseEhPhPS0_h>:
   7ea72:	6f 92       	push	r6
   7ea74:	7f 92       	push	r7
   7ea76:	8f 92       	push	r8
   7ea78:	9f 92       	push	r9
   7ea7a:	af 92       	push	r10
   7ea7c:	bf 92       	push	r11
   7ea7e:	cf 92       	push	r12
   7ea80:	df 92       	push	r13
   7ea82:	ef 92       	push	r14
   7ea84:	ff 92       	push	r15
   7ea86:	0f 93       	push	r16
   7ea88:	1f 93       	push	r17
   7ea8a:	cf 93       	push	r28
   7ea8c:	df 93       	push	r29
   7ea8e:	cd b7       	in	r28, 0x3d	; 61
   7ea90:	de b7       	in	r29, 0x3e	; 62
   7ea92:	c1 54       	subi	r28, 0x41	; 65
   7ea94:	d1 09       	sbc	r29, r1
   7ea96:	0f b6       	in	r0, 0x3f	; 63
   7ea98:	f8 94       	cli
   7ea9a:	de bf       	out	0x3e, r29	; 62
   7ea9c:	0f be       	out	0x3f, r0	; 63
   7ea9e:	cd bf       	out	0x3d, r28	; 61
   7eaa0:	e8 2e       	mov	r14, r24
   7eaa2:	8b 01       	movw	r16, r22
   7eaa4:	f2 2e       	mov	r15, r18
   7eaa6:	22 96       	adiw	r28, 0x02	; 2
   7eaa8:	1f ae       	std	Y+63, r1	; 0x3f
   7eaaa:	22 97       	sbiw	r28, 0x02	; 2
   7eaac:	fa 01       	movw	r30, r20
   7eaae:	ae 01       	movw	r20, r28
   7eab0:	4b 5e       	subi	r20, 0xEB	; 235
   7eab2:	5f 4f       	sbci	r21, 0xFF	; 255
   7eab4:	de 01       	movw	r26, r28
   7eab6:	11 96       	adiw	r26, 0x01	; 1
   7eab8:	ed 93       	st	X+, r30
   7eaba:	fd 93       	st	X+, r31
   7eabc:	b0 96       	adiw	r30, 0x20	; 32
   7eabe:	a4 17       	cp	r26, r20
   7eac0:	b5 07       	cpc	r27, r21
   7eac2:	01 f4       	brne	.+0      	; 0x7eac4 <_ZN6SpiDrv12waitResponseEhPhPS0_h+0x52>
   7eac4:	80 ee       	ldi	r24, 0xE0	; 224
   7eac6:	0e 94 00 00 	call	0	; 0x0 <__tmp_reg__>
   7eaca:	89 2b       	or	r24, r25
   7eacc:	01 f4       	brne	.+0      	; 0x7eace <_ZN6SpiDrv12waitResponseEhPhPS0_h+0x5c>
   7eace:	00 c0       	rjmp	.+0      	; 0x7ead0 <_ZN6SpiDrv12waitResponseEhPhPS0_h+0x5e>
   7ead0:	ce 01       	movw	r24, r28
   7ead2:	8f 5b       	subi	r24, 0xBF	; 191
   7ead4:	9f 4f       	sbci	r25, 0xFF	; 255
   7ead6:	0e 94 00 00 	call	0	; 0x0 <__tmp_reg__>
   7eada:	8e 2d       	mov	r24, r14
   7eadc:	80 68       	ori	r24, 0x80	; 128
   7eade:	22 96       	adiw	r28, 0x02	; 2
   7eae0:	9f ad       	ldd	r25, Y+63	; 0x3f
   7eae2:	22 97       	sbiw	r28, 0x02	; 2
   7eae4:	98 13       	cpse	r25, r24
   7eae6:	00 c0       	rjmp	.+0      	; 0x7eae8 <_ZN6SpiDrv12waitResponseEhPhPS0_h+0x76>
   7eae8:	0e 94 00 00 	call	0	; 0x0 <__tmp_reg__>
   7eaec:	f8 16       	cp	r15, r24
   7eaee:	00 f4       	brcc	.+0      	; 0x7eaf0 <_ZN6SpiDrv12waitResponseEhPhPS0_h+0x7e>
   7eaf0:	8f 2d       	mov	r24, r15
   7eaf2:	d8 01       	movw	r26, r16
   7eaf4:	8c 93       	st	X, r24
   7eaf6:	88 23       	and	r24, r24
   7eaf8:	01 f0       	breq	.+0      	; 0x7eafa <_ZN6SpiDrv12waitResponseEhPhPS0_h+0x88>
   7eafa:	fe 01       	movw	r30, r28
   7eafc:	31 96       	adiw	r30, 0x01	; 1
   7eafe:	7f 01       	movw	r14, r30
   7eb00:	c1 2c       	mov	r12, r1
   7eb02:	d1 2c       	mov	r13, r1
   7eb04:	88 2e       	mov	r8, r24
   7eb06:	91 2c       	mov	r9, r1
   7eb08:	c8 14       	cp	r12, r8
   7eb0a:	d9 04       	cpc	r13, r9
   7eb0c:	04 f4       	brge	.+0      	; 0x7eb0e <_ZN6SpiDrv12waitResponseEhPhPS0_h+0x9c>
   7eb0e:	8f ef       	ldi	r24, 0xFF	; 255
   7eb10:	0e 94 00 00 	call	0	; 0x0 <__tmp_reg__>
   7eb14:	00 e0       	ldi	r16, 0x00	; 0
   7eb16:	10 e0       	ldi	r17, 0x00	; 0
   7eb18:	68 2e       	mov	r6, r24
   7eb1a:	71 2c       	mov	r7, r1
   7eb1c:	d7 01       	movw	r26, r14
   7eb1e:	06 15       	cp	r16, r6
   7eb20:	17 05       	cpc	r17, r7
   7eb22:	04 f4       	brge	.+0      	; 0x7eb24 <_ZN6SpiDrv12waitResponseEhPhPS0_h+0xb2>
   7eb24:	ad 90       	ld	r10, X+
   7eb26:	bc 90       	ld	r11, X
   7eb28:	a0 0e       	add	r10, r16
   7eb2a:	b1 1e       	adc	r11, r17
   7eb2c:	8f ef       	ldi	r24, 0xFF	; 255
   7eb2e:	0e 94 00 00 	call	0	; 0x0 <__tmp_reg__>
   7eb32:	f5 01       	movw	r30, r10
   7eb34:	80 83       	st	Z, r24
   7eb36:	0f 5f       	subi	r16, 0xFF	; 255
   7eb38:	1f 4f       	sbci	r17, 0xFF	; 255
   7eb3a:	00 c0       	rjmp	.+0      	; 0x7eb3c <_ZN6SpiDrv12waitResponseEhPhPS0_h+0xca>
   7eb3c:	ed 91       	ld	r30, X+
   7eb3e:	fd 91       	ld	r31, X+
   7eb40:	7d 01       	movw	r14, r26
   7eb42:	e6 0d       	add	r30, r6
   7eb44:	f7 1d       	adc	r31, r7
   7eb46:	10 82       	st	Z, r1
   7eb48:	bf ef       	ldi	r27, 0xFF	; 255
   7eb4a:	cb 1a       	sub	r12, r27
   7eb4c:	db 0a       	sbc	r13, r27
   7eb4e:	00 c0       	rjmp	.+0      	; 0x7eb50 <_ZN6SpiDrv12waitResponseEhPhPS0_h+0xde>
   7eb50:	be 01       	movw	r22, r28
   7eb52:	6f 5b       	subi	r22, 0xBF	; 191
   7eb54:	7f 4f       	sbci	r23, 0xFF	; 255
   7eb56:	8e ee       	ldi	r24, 0xEE	; 238
   7eb58:	0e 94 00 00 	call	0	; 0x0 <__tmp_reg__>
   7eb5c:	80 e0       	ldi	r24, 0x00	; 0
   7eb5e:	90 e0       	ldi	r25, 0x00	; 0
   7eb60:	00 c0       	rjmp	.+0      	; 0x7eb62 <_ZN6SpiDrv12waitResponseEhPhPS0_h+0xf0>
   7eb62:	be 01       	movw	r22, r28
   7eb64:	6f 5b       	subi	r22, 0xBF	; 191
   7eb66:	7f 4f       	sbci	r23, 0xFF	; 255
   7eb68:	8e ee       	ldi	r24, 0xEE	; 238
   7eb6a:	0e 94 00 00 	call	0	; 0x0 <__tmp_reg__>
   7eb6e:	81 e0       	ldi	r24, 0x01	; 1
   7eb70:	90 e0       	ldi	r25, 0x00	; 0
   7eb72:	cf 5b       	subi	r28, 0xBF	; 191
   7eb74:	df 4f       	sbci	r29, 0xFF	; 255
   7eb76:	0f b6       	in	r0, 0x3f	; 63
   7eb78:	f8 94       	cli
   7eb7a:	de bf       	out	0x3e, r29	; 62
   7eb7c:	0f be       	out	0x3f, r0	; 63
   7eb7e:	cd bf       	out	0x3d, r28	; 61
   7eb80:	df 91       	pop	r29
   7eb82:	cf 91       	pop	r28
   7eb84:	1f 91       	pop	r17
   7eb86:	0f 91       	pop	r16
   7eb88:	ff 90       	pop	r15
   7eb8a:	ef 90       	pop	r14
   7eb8c:	df 90       	pop	r13
   7eb8e:	cf 90       	pop	r12
   7eb90:	bf 90       	pop	r11
   7eb92:	af 90       	pop	r10
   7eb94:	9f 90       	pop	r9
   7eb96:	8f 90       	pop	r8
   7eb98:	7f 90       	pop	r7
   7eb9a:	6f 90       	pop	r6
   7eb9c:	08 95       	ret

Disassembly of section .text._ZN6SpiDrv9sendParamEPhhh:

000fd610 <_ZN6SpiDrv9sendParamEPhhh>:
   fd610:	df 92       	push	r13
   fd612:	ef 92       	push	r14
   fd614:	ff 92       	push	r15
   fd616:	0f 93       	push	r16
   fd618:	1f 93       	push	r17
   fd61a:	cf 93       	push	r28
   fd61c:	df 93       	push	r29
   fd61e:	8c 01       	movw	r16, r24
   fd620:	e6 2e       	mov	r14, r22
   fd622:	d4 2e       	mov	r13, r20
   fd624:	86 2f       	mov	r24, r22
   fd626:	0e 94 00 00 	call	0	; 0x0 <__tmp_reg__>
   fd62a:	e8 01       	movw	r28, r16
   fd62c:	f1 2c       	mov	r15, r1
   fd62e:	ce 01       	movw	r24, r28
   fd630:	80 1b       	sub	r24, r16
   fd632:	91 0b       	sbc	r25, r17
   fd634:	8e 15       	cp	r24, r14
   fd636:	9f 05       	cpc	r25, r15
   fd638:	04 f4       	brge	.+0      	; 0xfd63a <_ZN6SpiDrv9sendParamEPhhh+0x2a>
   fd63a:	89 91       	ld	r24, Y+
   fd63c:	0e 94 00 00 	call	0	; 0x0 <__tmp_reg__>
   fd640:	00 c0       	rjmp	.+0      	; 0xfd642 <_ZN6SpiDrv9sendParamEPhhh+0x32>
   fd642:	81 e0       	ldi	r24, 0x01	; 1
   fd644:	d8 12       	cpse	r13, r24
   fd646:	00 c0       	rjmp	.+0      	; 0xfd648 <_ZN6SpiDrv9sendParamEPhhh+0x38>
   fd648:	8e ee       	ldi	r24, 0xEE	; 238
   fd64a:	df 91       	pop	r29
   fd64c:	cf 91       	pop	r28
   fd64e:	1f 91       	pop	r17
   fd650:	0f 91       	pop	r16
   fd652:	ff 90       	pop	r15
   fd654:	ef 90       	pop	r14
   fd656:	df 90       	pop	r13
   fd658:	0c 94 00 00 	jmp	0	; 0x0 <__tmp_reg__>
   fd65c:	df 91       	pop	r29
   fd65e:	cf 91       	pop	r28
   fd660:	1f 91       	pop	r17
   fd662:	0f 91       	pop	r16
   fd664:	ff 90       	pop	r15
   fd666:	ef 90       	pop	r14
   fd668:	df 90       	pop	r13
   fd66a:	08 95       	ret

Disassembly of section .text._ZN6SpiDrv13sendParamLen8Eh:

001fac7c <_ZN6SpiDrv13sendParamLen8Eh>:
  1fac7c:	0c 94 00 00 	jmp	0	; 0x0 <__tmp_reg__>

Disassembly of section .text._ZN6SpiDrv14sendParamLen16Ej:

003f58fc <_ZN6SpiDrv14sendParamLen16Ej>:
  3f58fc:	cf 93       	push	r28
  3f58fe:	c8 2f       	mov	r28, r24
  3f5900:	89 2f       	mov	r24, r25
  3f5902:	0e 94 00 00 	call	0	; 0x0 <__tmp_reg__>
  3f5906:	8c 2f       	mov	r24, r28
  3f5908:	cf 91       	pop	r28
  3f590a:	0c 94 00 00 	jmp	0	; 0x0 <__tmp_reg__>

Disassembly of section .text._ZN6SpiDrv13readParamLen8EPh:

007eb20a <_ZN6SpiDrv13readParamLen8EPh>:
  7eb20a:	cf 93       	push	r28
  7eb20c:	df 93       	push	r29
  7eb20e:	ec 01       	movw	r28, r24
  7eb210:	8f ef       	ldi	r24, 0xFF	; 255
  7eb212:	0e 94 00 00 	call	0	; 0x0 <__tmp_reg__>
  7eb216:	20 97       	sbiw	r28, 0x00	; 0
  7eb218:	01 f0       	breq	.+0      	; 0x7eb21a <_ZN6SpiDrv13readParamLen8EPh+0x10>
  7eb21a:	88 83       	st	Y, r24
  7eb21c:	df 91       	pop	r29
  7eb21e:	cf 91       	pop	r28
  7eb220:	08 95       	ret

Disassembly of section .text._ZN6SpiDrv15waitResponseCmdEhhPhS0_:

00fd642c <_ZN6SpiDrv15waitResponseCmdEhhPhS0_>:
  fd642c:	cf 92       	push	r12
  fd642e:	df 92       	push	r13
  fd6430:	ef 92       	push	r14
  fd6432:	ff 92       	push	r15
  fd6434:	0f 93       	push	r16
  fd6436:	1f 93       	push	r17
  fd6438:	cf 93       	push	r28
  fd643a:	df 93       	push	r29
  fd643c:	1f 92       	push	r1
  fd643e:	cd b7       	in	r28, 0x3d	; 61
  fd6440:	de b7       	in	r29, 0x3e	; 62
  fd6442:	08 2f       	mov	r16, r24
  fd6444:	16 2f       	mov	r17, r22
  fd6446:	6a 01       	movw	r12, r20
  fd6448:	79 01       	movw	r14, r18
  fd644a:	19 82       	std	Y+1, r1	; 0x01
  fd644c:	80 ee       	ldi	r24, 0xE0	; 224
  fd644e:	0e 94 00 00 	call	0	; 0x0 <__tmp_reg__>
  fd6452:	89 2b       	or	r24, r25
  fd6454:	01 f4       	brne	.+0      	; 0xfd6456 <_ZN6SpiDrv15waitResponseCmdEhhPhS0_+0x2a>
  fd6456:	80 e0       	ldi	r24, 0x00	; 0
  fd6458:	90 e0       	ldi	r25, 0x00	; 0
  fd645a:	00 c0       	rjmp	.+0      	; 0xfd645c <_ZN6SpiDrv15waitResponseCmdEhhPhS0_+0x30>
  fd645c:	ce 01       	movw	r24, r28
  fd645e:	01 96       	adiw	r24, 0x01	; 1
  fd6460:	0e 94 00 00 	call	0	; 0x0 <__tmp_reg__>
  fd6464:	00 68       	ori	r16, 0x80	; 128
  fd6466:	89 81       	ldd	r24, Y+1	; 0x01
  fd6468:	80 13       	cpse	r24, r16
  fd646a:	00 c0       	rjmp	.+0      	; 0xfd646c <_ZN6SpiDrv15waitResponseCmdEhhPhS0_+0x40>
  fd646c:	ce 01       	movw	r24, r28
  fd646e:	01 96       	adiw	r24, 0x01	; 1
  fd6470:	0e 94 00 00 	call	0	; 0x0 <__tmp_reg__>
  fd6474:	89 81       	ldd	r24, Y+1	; 0x01
  fd6476:	81 13       	cpse	r24, r17
  fd6478:	00 c0       	rjmp	.+0      	; 0xfd647a <_ZN6SpiDrv15waitResponseCmdEhhPhS0_+0x4e>
  fd647a:	c7 01       	movw	r24, r14
  fd647c:	0e 94 00 00 	call	0	; 0x0 <__tmp_reg__>
  fd6480:	00 e0       	ldi	r16, 0x00	; 0
  fd6482:	10 e0       	ldi	r17, 0x00	; 0
  fd6484:	f7 01       	movw	r30, r14
  fd6486:	80 81       	ld	r24, Z
  fd6488:	90 e0       	ldi	r25, 0x00	; 0
  fd648a:	08 17       	cp	r16, r24
  fd648c:	19 07       	cpc	r17, r25
  fd648e:	04 f4       	brge	.+0      	; 0xfd6490 <_ZN6SpiDrv15waitResponseCmdEhhPhS0_+0x64>
  fd6490:	c6 01       	movw	r24, r12
  fd6492:	80 0f       	add	r24, r16
  fd6494:	91 1f       	adc	r25, r17
  fd6496:	0e 94 00 00 	call	0	; 0x0 <__tmp_reg__>
  fd649a:	0f 5f       	subi	r16, 0xFF	; 255
  fd649c:	1f 4f       	sbci	r17, 0xFF	; 255
  fd649e:	00 c0       	rjmp	.+0      	; 0xfd64a0 <_ZN6SpiDrv15waitResponseCmdEhhPhS0_+0x74>
  fd64a0:	be 01       	movw	r22, r28
  fd64a2:	6f 5f       	subi	r22, 0xFF	; 255
  fd64a4:	7f 4f       	sbci	r23, 0xFF	; 255
  fd64a6:	8e ee       	ldi	r24, 0xEE	; 238
  fd64a8:	0e 94 00 00 	call	0	; 0x0 <__tmp_reg__>
  fd64ac:	81 e0       	ldi	r24, 0x01	; 1
  fd64ae:	90 e0       	ldi	r25, 0x00	; 0
  fd64b0:	0f 90       	pop	r0
  fd64b2:	df 91       	pop	r29
  fd64b4:	cf 91       	pop	r28
  fd64b6:	1f 91       	pop	r17
  fd64b8:	0f 91       	pop	r16
  fd64ba:	ff 90       	pop	r15
  fd64bc:	ef 90       	pop	r14
  fd64be:	df 90       	pop	r13
  fd64c0:	cf 90       	pop	r12
  fd64c2:	08 95       	ret

Disassembly of section .text._ZN6SpiDrv17waitResponseData8EhPhS0_:

01fac8f0 <_ZN6SpiDrv17waitResponseData8EhPhS0_>:
 1fac8f0:	cf 92       	push	r12
 1fac8f2:	df 92       	push	r13
 1fac8f4:	ef 92       	push	r14
 1fac8f6:	ff 92       	push	r15
 1fac8f8:	0f 93       	push	r16
 1fac8fa:	1f 93       	push	r17
 1fac8fc:	cf 93       	push	r28
 1fac8fe:	df 93       	push	r29
 1fac900:	1f 92       	push	r1
 1fac902:	cd b7       	in	r28, 0x3d	; 61
 1fac904:	de b7       	in	r29, 0x3e	; 62
 1fac906:	18 2f       	mov	r17, r24
 1fac908:	6b 01       	movw	r12, r22
 1fac90a:	7a 01       	movw	r14, r20
 1fac90c:	19 82       	std	Y+1, r1	; 0x01
 1fac90e:	80 ee       	ldi	r24, 0xE0	; 224
 1fac910:	0e 94 00 00 	call	0	; 0x0 <__tmp_reg__>
 1fac914:	89 2b       	or	r24, r25
 1fac916:	01 f4       	brne	.+0      	; 0x1fac918 <_ZN6SpiDrv17waitResponseData8EhPhS0_+0x28>
 1fac918:	80 e0       	ldi	r24, 0x00	; 0
 1fac91a:	90 e0       	ldi	r25, 0x00	; 0
 1fac91c:	00 c0       	rjmp	.+0      	; 0x1fac91e <_ZN6SpiDrv17waitResponseData8EhPhS0_+0x2e>
 1fac91e:	ce 01       	movw	r24, r28
 1fac920:	01 96       	adiw	r24, 0x01	; 1
 1fac922:	0e 94 00 00 	call	0	; 0x0 <__tmp_reg__>
 1fac926:	10 68       	ori	r17, 0x80	; 128
 1fac928:	89 81       	ldd	r24, Y+1	; 0x01
 1fac92a:	81 13       	cpse	r24, r17
 1fac92c:	00 c0       	rjmp	.+0      	; 0x1fac92e <_ZN6SpiDrv17waitResponseData8EhPhS0_+0x3e>
 1fac92e:	0e 94 00 00 	call	0	; 0x0 <__tmp_reg__>
 1fac932:	81 11       	cpse	r24, r1
 1fac934:	00 c0       	rjmp	.+0      	; 0x1fac936 <_ZN6SpiDrv17waitResponseData8EhPhS0_+0x46>
 1fac936:	be 01       	movw	r22, r28
 1fac938:	6f 5f       	subi	r22, 0xFF	; 255
 1fac93a:	7f 4f       	sbci	r23, 0xFF	; 255
 1fac93c:	8e ee       	ldi	r24, 0xEE	; 238
 1fac93e:	0e 94 00 00 	call	0	; 0x0 <__tmp_reg__>
 1fac942:	81 e0       	ldi	r24, 0x01	; 1
 1fac944:	90 e0       	ldi	r25, 0x00	; 0
 1fac946:	00 c0       	rjmp	.+0      	; 0x1fac948 <_ZN6SpiDrv17waitResponseData8EhPhS0_+0x58>
 1fac948:	c7 01       	movw	r24, r14
 1fac94a:	0e 94 00 00 	call	0	; 0x0 <__tmp_reg__>
 1fac94e:	86 01       	movw	r16, r12
 1fac950:	f7 01       	movw	r30, r14
 1fac952:	80 81       	ld	r24, Z
 1fac954:	90 e0       	ldi	r25, 0x00	; 0
 1fac956:	98 01       	movw	r18, r16
 1fac958:	2c 19       	sub	r18, r12
 1fac95a:	3d 09       	sbc	r19, r13
 1fac95c:	28 17       	cp	r18, r24
 1fac95e:	39 07       	cpc	r19, r25
 1fac960:	04 f4       	brge	.+0      	; 0x1fac962 <_ZN6SpiDrv17waitResponseData8EhPhS0_+0x72>
 1fac962:	8f ef       	ldi	r24, 0xFF	; 255
 1fac964:	0e 94 00 00 	call	0	; 0x0 <__tmp_reg__>
 1fac968:	f8 01       	movw	r30, r16
 1fac96a:	81 93       	st	Z+, r24
 1fac96c:	8f 01       	movw	r16, r30
 1fac96e:	00 c0       	rjmp	.+0      	; 0x1fac970 <_ZN6SpiDrv17waitResponseData8EhPhS0_+0x80>
 1fac970:	0f 90       	pop	r0
 1fac972:	df 91       	pop	r29
 1fac974:	cf 91       	pop	r28
 1fac976:	1f 91       	pop	r17
 1fac978:	0f 91       	pop	r16
 1fac97a:	ff 90       	pop	r15
 1fac97c:	ef 90       	pop	r14
 1fac97e:	df 90       	pop	r13
 1fac980:	cf 90       	pop	r12
 1fac982:	08 95       	ret

Disassembly of section .text._ZN6SpiDrv14readParamLen16EPj:

03f59274 <_ZN6SpiDrv14readParamLen16EPj>:
 3f59274:	1f 93       	push	r17
 3f59276:	cf 93       	push	r28
 3f59278:	df 93       	push	r29
 3f5927a:	ec 01       	movw	r28, r24
 3f5927c:	8f ef       	ldi	r24, 0xFF	; 255
 3f5927e:	0e 94 00 00 	call	0	; 0x0 <__tmp_reg__>
 3f59282:	18 2f       	mov	r17, r24
 3f59284:	8f ef       	ldi	r24, 0xFF	; 255
 3f59286:	0e 94 00 00 	call	0	; 0x0 <__tmp_reg__>
 3f5928a:	21 2f       	mov	r18, r17
 3f5928c:	30 e0       	ldi	r19, 0x00	; 0
 3f5928e:	32 2f       	mov	r19, r18
 3f59290:	22 27       	eor	r18, r18
 3f59292:	28 2b       	or	r18, r24
 3f59294:	20 97       	sbiw	r28, 0x00	; 0
 3f59296:	01 f0       	breq	.+0      	; 0x3f59298 <_ZN6SpiDrv14readParamLen16EPj+0x24>
 3f59298:	39 83       	std	Y+1, r19	; 0x01
 3f5929a:	28 83       	st	Y, r18
 3f5929c:	c9 01       	movw	r24, r18
 3f5929e:	df 91       	pop	r29
 3f592a0:	cf 91       	pop	r28
 3f592a2:	1f 91       	pop	r17
 3f592a4:	08 95       	ret

Disassembly of section .text._ZN6SpiDrv18waitResponseData16EhPhPj:

07eb251a <_ZN6SpiDrv18waitResponseData16EhPhPj>:
 7eb251a:	cf 92       	push	r12
 7eb251c:	df 92       	push	r13
 7eb251e:	ef 92       	push	r14
 7eb2520:	ff 92       	push	r15
 7eb2522:	0f 93       	push	r16
 7eb2524:	1f 93       	push	r17
 7eb2526:	cf 93       	push	r28
 7eb2528:	df 93       	push	r29
 7eb252a:	1f 92       	push	r1
 7eb252c:	cd b7       	in	r28, 0x3d	; 61
 7eb252e:	de b7       	in	r29, 0x3e	; 62
 7eb2530:	18 2f       	mov	r17, r24
 7eb2532:	6b 01       	movw	r12, r22
 7eb2534:	7a 01       	movw	r14, r20
 7eb2536:	19 82       	std	Y+1, r1	; 0x01
 7eb2538:	80 ee       	ldi	r24, 0xE0	; 224
 7eb253a:	0e 94 00 00 	call	0	; 0x0 <__tmp_reg__>
 7eb253e:	89 2b       	or	r24, r25
 7eb2540:	01 f4       	brne	.+0      	; 0x7eb2542 <_ZN6SpiDrv18waitResponseData16EhPhPj+0x28>
 7eb2542:	80 e0       	ldi	r24, 0x00	; 0
 7eb2544:	90 e0       	ldi	r25, 0x00	; 0
 7eb2546:	00 c0       	rjmp	.+0      	; 0x7eb2548 <_ZN6SpiDrv18waitResponseData16EhPhPj+0x2e>
 7eb2548:	ce 01       	movw	r24, r28
 7eb254a:	01 96       	adiw	r24, 0x01	; 1
 7eb254c:	0e 94 00 00 	call	0	; 0x0 <__tmp_reg__>
 7eb2550:	10 68       	ori	r17, 0x80	; 128
 7eb2552:	89 81       	ldd	r24, Y+1	; 0x01
 7eb2554:	81 13       	cpse	r24, r17
 7eb2556:	00 c0       	rjmp	.+0      	; 0x7eb2558 <_ZN6SpiDrv18waitResponseData16EhPhPj+0x3e>
 7eb2558:	0e 94 00 00 	call	0	; 0x0 <__tmp_reg__>
 7eb255c:	81 11       	cpse	r24, r1
 7eb255e:	00 c0       	rjmp	.+0      	; 0x7eb2560 <_ZN6SpiDrv18waitResponseData16EhPhPj+0x46>
 7eb2560:	be 01       	movw	r22, r28
 7eb2562:	6f 5f       	subi	r22, 0xFF	; 255
 7eb2564:	7f 4f       	sbci	r23, 0xFF	; 255
 7eb2566:	8e ee       	ldi	r24, 0xEE	; 238
 7eb2568:	0e 94 00 00 	call	0	; 0x0 <__tmp_reg__>
 7eb256c:	81 e0       	ldi	r24, 0x01	; 1
 7eb256e:	90 e0       	ldi	r25, 0x00	; 0
 7eb2570:	00 c0       	rjmp	.+0      	; 0x7eb2572 <_ZN6SpiDrv18waitResponseData16EhPhPj+0x58>
 7eb2572:	c7 01       	movw	r24, r14
 7eb2574:	0e 94 00 00 	call	0	; 0x0 <__tmp_reg__>
 7eb2578:	86 01       	movw	r16, r12
 7eb257a:	f7 01       	movw	r30, r14
 7eb257c:	80 81       	ld	r24, Z
 7eb257e:	91 81       	ldd	r25, Z+1	; 0x01
 7eb2580:	98 01       	movw	r18, r16
 7eb2582:	2c 19       	sub	r18, r12
 7eb2584:	3d 09       	sbc	r19, r13
 7eb2586:	28 17       	cp	r18, r24
 7eb2588:	39 07       	cpc	r19, r25
 7eb258a:	00 f4       	brcc	.+0      	; 0x7eb258c <_ZN6SpiDrv18waitResponseData16EhPhPj+0x72>
 7eb258c:	8f ef       	ldi	r24, 0xFF	; 255
 7eb258e:	0e 94 00 00 	call	0	; 0x0 <__tmp_reg__>
 7eb2592:	f8 01       	movw	r30, r16
 7eb2594:	81 93       	st	Z+, r24
 7eb2596:	8f 01       	movw	r16, r30
 7eb2598:	00 c0       	rjmp	.+0      	; 0x7eb259a <_ZN6SpiDrv18waitResponseData16EhPhPj+0x80>
 7eb259a:	0f 90       	pop	r0
 7eb259c:	df 91       	pop	r29
 7eb259e:	cf 91       	pop	r28
 7eb25a0:	1f 91       	pop	r17
 7eb25a2:	0f 91       	pop	r16
 7eb25a4:	ff 90       	pop	r15
 7eb25a6:	ef 90       	pop	r14
 7eb25a8:	df 90       	pop	r13
 7eb25aa:	cf 90       	pop	r12
 7eb25ac:	08 95       	ret

Disassembly of section .text._ZN6SpiDrv10sendBufferEPhjh:

0fd64ac8 <_ZN6SpiDrv10sendBufferEPhjh>:
 fd64ac8:	df 92       	push	r13
 fd64aca:	ef 92       	push	r14
 fd64acc:	ff 92       	push	r15
 fd64ace:	0f 93       	push	r16
 fd64ad0:	1f 93       	push	r17
 fd64ad2:	cf 93       	push	r28
 fd64ad4:	df 93       	push	r29
 fd64ad6:	d8 2e       	mov	r13, r24
 fd64ad8:	e9 2e       	mov	r14, r25
 fd64ada:	8b 01       	movw	r16, r22
 fd64adc:	f4 2e       	mov	r15, r20
 fd64ade:	cb 01       	movw	r24, r22
 fd64ae0:	0e 94 00 00 	call	0	; 0x0 <__tmp_reg__>
 fd64ae4:	cd 2d       	mov	r28, r13
 fd64ae6:	de 2d       	mov	r29, r14
 fd64ae8:	0c 0f       	add	r16, r28
 fd64aea:	1d 1f       	adc	r17, r29
 fd64aec:	c0 17       	cp	r28, r16
 fd64aee:	d1 07       	cpc	r29, r17
 fd64af0:	01 f0       	breq	.+0      	; 0xfd64af2 <_ZN6SpiDrv10sendBufferEPhjh+0x2a>
 fd64af2:	89 91       	ld	r24, Y+
 fd64af4:	0e 94 00 00 	call	0	; 0x0 <__tmp_reg__>
 fd64af8:	00 c0       	rjmp	.+0      	; 0xfd64afa <_ZN6SpiDrv10sendBufferEPhjh+0x32>
 fd64afa:	81 e0       	ldi	r24, 0x01	; 1
 fd64afc:	f8 12       	cpse	r15, r24
 fd64afe:	00 c0       	rjmp	.+0      	; 0xfd64b00 <_ZN6SpiDrv10sendBufferEPhjh+0x38>
 fd64b00:	8e ee       	ldi	r24, 0xEE	; 238
 fd64b02:	df 91       	pop	r29
 fd64b04:	cf 91       	pop	r28
 fd64b06:	1f 91       	pop	r17
 fd64b08:	0f 91       	pop	r16
 fd64b0a:	ff 90       	pop	r15
 fd64b0c:	ef 90       	pop	r14
 fd64b0e:	df 90       	pop	r13
 fd64b10:	0c 94 00 00 	jmp	0	; 0x0 <__tmp_reg__>
 fd64b14:	df 91       	pop	r29
 fd64b16:	cf 91       	pop	r28
 fd64b18:	1f 91       	pop	r17
 fd64b1a:	0f 91       	pop	r16
 fd64b1c:	ff 90       	pop	r15
 fd64b1e:	ef 90       	pop	r14
 fd64b20:	df 90       	pop	r13
 fd64b22:	08 95       	ret

Disassembly of section .text._ZN6SpiDrv9sendParamEjh:

1fac95ec <_ZN6SpiDrv9sendParamEjh>:
1fac95ec:	1f 93       	push	r17
1fac95ee:	cf 93       	push	r28
1fac95f0:	df 93       	push	r29
1fac95f2:	00 d0       	rcall	.+0      	; 0x1fac95f4 <_ZN6SpiDrv9sendParamEjh+0x8>
1fac95f4:	cd b7       	in	r28, 0x3d	; 61
1fac95f6:	de b7       	in	r29, 0x3e	; 62
1fac95f8:	18 2f       	mov	r17, r24
1fac95fa:	82 e0       	ldi	r24, 0x02	; 2
1fac95fc:	6a 83       	std	Y+2, r22	; 0x02
1fac95fe:	99 83       	std	Y+1, r25	; 0x01
1fac9600:	0e 94 00 00 	call	0	; 0x0 <__tmp_reg__>
1fac9604:	99 81       	ldd	r25, Y+1	; 0x01
1fac9606:	89 2f       	mov	r24, r25
1fac9608:	0e 94 00 00 	call	0	; 0x0 <__tmp_reg__>
1fac960c:	81 2f       	mov	r24, r17
1fac960e:	0e 94 00 00 	call	0	; 0x0 <__tmp_reg__>
1fac9612:	6a 81       	ldd	r22, Y+2	; 0x02
1fac9614:	61 30       	cpi	r22, 0x01	; 1
1fac9616:	01 f4       	brne	.+0      	; 0x1fac9618 <_ZN6SpiDrv9sendParamEjh+0x2c>
1fac9618:	8e ee       	ldi	r24, 0xEE	; 238
1fac961a:	0f 90       	pop	r0
1fac961c:	0f 90       	pop	r0
1fac961e:	df 91       	pop	r29
1fac9620:	cf 91       	pop	r28
1fac9622:	1f 91       	pop	r17
1fac9624:	0c 94 00 00 	jmp	0	; 0x0 <__tmp_reg__>
1fac9628:	0f 90       	pop	r0
1fac962a:	0f 90       	pop	r0
1fac962c:	df 91       	pop	r29
1fac962e:	cf 91       	pop	r28
1fac9630:	1f 91       	pop	r17
1fac9632:	08 95       	ret

Disassembly of section .text._ZN6SpiDrv7sendCmdEhh:

3f592c20 <_ZN6SpiDrv7sendCmdEhh>:
3f592c20:	cf 93       	push	r28
3f592c22:	df 93       	push	r29
3f592c24:	d8 2f       	mov	r29, r24
3f592c26:	c6 2f       	mov	r28, r22
3f592c28:	80 ee       	ldi	r24, 0xE0	; 224
3f592c2a:	0e 94 00 00 	call	0	; 0x0 <__tmp_reg__>
3f592c2e:	8a e0       	ldi	r24, 0x0A	; 10
3f592c30:	90 e0       	ldi	r25, 0x00	; 0
3f592c32:	0e 94 00 00 	call	0	; 0x0 <__tmp_reg__>
3f592c36:	8d 2f       	mov	r24, r29
3f592c38:	8f 77       	andi	r24, 0x7F	; 127
3f592c3a:	0e 94 00 00 	call	0	; 0x0 <__tmp_reg__>
3f592c3e:	8c 2f       	mov	r24, r28
3f592c40:	0e 94 00 00 	call	0	; 0x0 <__tmp_reg__>
3f592c44:	c1 11       	cpse	r28, r1
3f592c46:	00 c0       	rjmp	.+0      	; 0x3f592c48 <_ZN6SpiDrv7sendCmdEhh+0x28>
3f592c48:	8e ee       	ldi	r24, 0xEE	; 238
3f592c4a:	df 91       	pop	r29
3f592c4c:	cf 91       	pop	r28
3f592c4e:	0c 94 00 00 	jmp	0	; 0x0 <__tmp_reg__>
3f592c52:	df 91       	pop	r29
3f592c54:	cf 91       	pop	r28
3f592c56:	08 95       	ret

wifi_drv.o:     file format elf32-avr

Sections:
Idx Name          Size      VMA       LMA       File off  Algn
  0 .text         00000000  00000000  00000000  00000034  2**0
                  CONTENTS, ALLOC, LOAD, READONLY, CODE
  1 .data         00000070  00000000  00000000  00000034  2**0
                  CONTENTS, ALLOC, LOAD, DATA
  2 .bss          00000000  00000000  00000000  000000a4  2**0
                  ALLOC
  3 .stab         00001e6c  00000000  00000000  000000a4  2**2
                  CONTENTS, RELOC, READONLY, DEBUGGING
  4 .stabstr      0000289c  00000000  00000000  00001f10  2**0
                  CONTENTS, READONLY, DEBUGGING
  5 .text._ZN7WiFiDrv14getNetworkDataEPhS0_S0_ 0000008e  00000000  00000000  000047ac  2**0
                  CONTENTS, ALLOC, LOAD, RELOC, READONLY, CODE
  6 .text._ZN7WiFiDrv13getRemoteDataEhPhS0_ 00000088  00000000  00000000  0000483a  2**0
                  CONTENTS, ALLOC, LOAD, RELOC, READONLY, CODE
  7 .text._ZN7WiFiDrv14wifiDriverInitEv 00000004  00000000  00000000  000048c2  2**0
                  CONTENTS, ALLOC, LOAD, RELOC, READONLY, CODE
  8 .text._ZN7WiFiDrv14wifiSetNetworkEPch 00000080  00000000  00000000  000048c6  2**0
                  CONTENTS, ALLOC, LOAD, RELOC, READONLY, CODE
  9 .text._ZN7WiFiDrv17wifiSetPassphraseEPchPKch 00000094  00000000  00000000  00004946  2**0
                  CONTENTS, ALLOC, LOAD, RELOC, READONLY, CODE
 10 .text._ZN7WiFiDrv10wifiSetKeyEPchhPKvh 000000a4  00000000  00000000  000049da  2**0
                  CONTENTS, ALLOC, LOAD, RELOC, READONLY, CODE
 11 .text._ZN7WiFiDrv6configEhmmm 000000d2  00000000  00000000  00004a7e  2**0
                  CONTENTS, ALLOC, LOAD, RELOC, READONLY, CODE
 12 .text._ZN7WiFiDrv6setDNSEhmm 000000ae  00000000  00000000  00004b50  2**0
                  CONTENTS, ALLOC, LOAD, RELOC, READONLY, CODE
 13 .text._ZN7WiFiDrv10disconnectEv 00000070  00000000  00000000  00004bfe  2**0
                  CONTENTS, ALLOC, LOAD, RELOC, READONLY, CODE
 14 .text._ZN7WiFiDrv19getConnectionStatusEv 0000005a  00000000  00000000  00004c6e  2**0
                  CONTENTS, ALLOC, LOAD, RELOC, READONLY, CODE
 15 .text._ZN7WiFiDrv13getMacAddressEv 00000066  00000000  00000000  00004cc8  2**0
                  CONTENTS, ALLOC, LOAD, RELOC, READONLY, CODE
 16 .text._ZN7WiFiDrv12getIpAddressER9IPAddress 00000024  00000000  00000000  00004d2e  2**0
                  CONTENTS, ALLOC, LOAD, RELOC, READONLY, CODE
 17 .text._ZN7WiFiDrv13getSubnetMaskER9IPAddress 00000024  00000000  00000000  00004d52  2**0
                  CONTENTS, ALLOC, LOAD, RELOC, READONLY, CODE
 18 .text._ZN7WiFiDrv12getGatewayIPER9IPAddress 00000024  00000000  00000000  00004d76  2**0
                  CONTENTS, ALLOC, LOAD, RELOC, READONLY, CODE
 19 .text._ZN7WiFiDrv14getCurrentSSIDEv 00000066  00000000  00000000  00004d9a  2**0
                  CONTENTS, ALLOC, LOAD, RELOC, READONLY, CODE
 20 .text._ZN7WiFiDrv15getCurrentBSSIDEv 00000066  00000000  00000000  00004e00  2**0
                  CONTENTS, ALLOC, LOAD, RELOC, READONLY, CODE
 21 .text._ZN7WiFiDrv14getCurrentRSSIEv 00000080  00000000  00000000  00004e66  2**0
                  CONTENTS, ALLOC, LOAD, RELOC, READONLY, CODE
 22 .text._ZN7WiFiDrv24getCurrentEncryptionTypeEv 0000006c  00000000  00000000  00004ee6  2**0
                  CONTENTS, ALLOC, LOAD, RELOC, READONLY, CODE
 23 .text._ZN7WiFiDrv17startScanNetworksEv 00000060  00000000  00000000  00004f52  2**0
                  CONTENTS, ALLOC, LOAD, RELOC, READONLY, CODE
 24 .text._ZN7WiFiDrv15getScanNetworksEv 00000052  00000000  00000000  00004fb2  2**0
                  CONTENTS, ALLOC, LOAD, RELOC, READONLY, CODE
 25 .text._ZN7WiFiDrv16getSSIDNetoworksEh 00000018  00000000  00000000  00005004  2**0
                  CONTENTS, ALLOC, LOAD, RELOC, READONLY, CODE
 26 .text._ZN7WiFiDrv18getEncTypeNetowrksEh 00000072  00000000  00000000  0000501c  2**0
                  CONTENTS, ALLOC, LOAD, RELOC, READONLY, CODE
 27 .text._ZN7WiFiDrv16getRSSINetoworksEh 0000008a  00000000  00000000  0000508e  2**0
                  CONTENTS, ALLOC, LOAD, RELOC, READONLY, CODE
 28 .text._ZN7WiFiDrv13reqHostByNameEPKc 00000082  00000000  00000000  00005118  2**0
                  CONTENTS, ALLOC, LOAD, RELOC, READONLY, CODE
 29 .text._ZN7WiFiDrv13getHostByNameER9IPAddress 000000c8  00000000  00000000  0000519a  2**0
                  CONTENTS, ALLOC, LOAD, RELOC, READONLY, CODE
 30 .text._ZN7WiFiDrv13getHostByNameEPKcR9IPAddress 0000004a  00000000  00000000  00005262  2**0
                  CONTENTS, ALLOC, LOAD, RELOC, READONLY, CODE
 31 .text._ZN7WiFiDrv12getFwVersionEv 00000054  00000000  00000000  000052ac  2**0
                  CONTENTS, ALLOC, LOAD, RELOC, READONLY, CODE
 32 .text.startup._GLOBAL__sub_I__ZN7WiFiDrv12_networkSsidE 00000016  00000000  00000000  00005300  2**0
                  CONTENTS, ALLOC, LOAD, RELOC, READONLY, CODE
 33 .ctors        00000002  00000000  00000000  00005316  2**1
                  CONTENTS, ALLOC, LOAD, RELOC, READONLY, DATA
 34 .bss.wiFiDrv  00000001  00000000  00000000  00005318  2**0
                  ALLOC
 35 .bss._ZN7WiFiDrv9fwVersionE 00000006  00000000  00000000  00005318  2**0
                  ALLOC
 36 .bss._ZN7WiFiDrv10_gatewayIpE 00000004  00000000  00000000  00005318  2**0
                  ALLOC
 37 .bss._ZN7WiFiDrv11_subnetMaskE 00000004  00000000  00000000  00005318  2**0
                  ALLOC
 38 .bss._ZN7WiFiDrv8_localIpE 00000004  00000000  00000000  00005318  2**0
                  ALLOC
 39 .bss._ZN7WiFiDrv4_macE 00000006  00000000  00000000  00005318  2**0
                  ALLOC
 40 .bss._ZN7WiFiDrv6_bssidE 00000006  00000000  00000000  00005318  2**0
                  ALLOC
 41 .bss._ZN7WiFiDrv5_ssidE 00000020  00000000  00000000  00005318  2**0
                  ALLOC
 42 .bss._ZN7WiFiDrv12_networkEncrE 0000000a  00000000  00000000  00005318  2**0
                  ALLOC
 43 .bss._ZN7WiFiDrv12_networkRssiE 00000028  00000000  00000000  00005318  2**0
                  ALLOC
 44 .data._ZN7WiFiDrv12_networkSsidE 00000140  00000000  00000000  00005318  2**0
                  CONTENTS, ALLOC, LOAD, DATA
 45 .bss._ZL11INADDR_NONE 00000006  00000000  00000000  00005458  2**0
                  ALLOC
 46 .bss._ZL11initialized 00000001  00000000  00000000  00005458  2**0
                  ALLOC
 47 .comment      00000012  00000000  00000000  00005458  2**0
                  CONTENTS, READONLY

Disassembly of section .text._ZN7WiFiDrv14getNetworkDataEPhS0_S0_:

00000000 <_ZN7WiFiDrv14getNetworkDataEPhS0_S0_>:
    }
    SpiDrv::spiSlaveDeselect();
    return fwVersion;
}

WiFiDrv wiFiDrv;
   0:	0f 93       	push	r16
  72:	1f 93       	nop
  74:	cf 93 df 93 	call	0	; 0x0 <__tmp_reg__>
  78:	cd b7       	adiw	r28, 0x0a	; 10
  7a:	de b7       	in	r0, 0x3f	; 63
  7c:	2a 97       	cli
  7e:	0f b6       	out	0x3e, r29	; 62
  80:	f8 94       	out	0x3f, r0	; 63
  82:	de bf       	out	0x3d, r28	; 61
  84:	0f be       	pop	r29
  86:	cd bf       	pop	r28
  88:	8e 01       	pop	r17
  8a:	0f 5f       	pop	r16
  8c:	1f 4f       	ret
  8e:	29 e0       	Address 0x000000000000008e is out of bounds.
.word	0xffff	; ????
  90:	f8 01       	Address 0x0000000000000090 is out of bounds.
.word	0xffff	; ????
  92:	11 92       	Address 0x0000000000000092 is out of bounds.
.word	0xffff	; ????
  94:	2a 95       	Address 0x0000000000000094 is out of bounds.
.word	0xffff	; ????
  96:	01 f4       	Address 0x0000000000000096 is out of bounds.
.word	0xffff	; ????
  98:	9b 83       	Address 0x0000000000000098 is out of bounds.
.word	0xffff	; ????
  9a:	8a 83       	Address 0x000000000000009a is out of bounds.
.word	0xffff	; ????
  9c:	7e 83       	Address 0x000000000000009c is out of bounds.
.word	0xffff	; ????
  9e:	6d 83       	Address 0x000000000000009e is out of bounds.
.word	0xffff	; ????
  a0:	59 87       	Address 0x00000000000000a0 is out of bounds.
.word	0xffff	; ????
  a2:	48 87       	Address 0x00000000000000a2 is out of bounds.
.word	0xffff	; ????
  a4:	80 91       	Address 0x00000000000000a4 is out of bounds.
.word	0xffff	; ????
  a6:	00 00       	Address 0x00000000000000a6 is out of bounds.
.word	0xffff	; ????
  a8:	81 11       	Address 0x00000000000000a8 is out of bounds.
.word	0xffff	; ????
  aa:	00 c0       	Address 0x00000000000000aa is out of bounds.
.word	0xffff	; ????
  ac:	0e 94       	Address 0x00000000000000ac is out of bounds.
.word	0xffff	; ????
  ae:	00 00       	Address 0x00000000000000ae is out of bounds.
.word	0xffff	; ????
  b0:	81 e0       	Address 0x00000000000000b0 is out of bounds.
.word	0xffff	; ????
  b2:	80 93       	Address 0x00000000000000b2 is out of bounds.
.word	0xffff	; ????
  b4:	00 00       	Address 0x00000000000000b4 is out of bounds.
.word	0xffff	; ????
  b6:	0e 94       	Address 0x00000000000000b6 is out of bounds.
.word	0xffff	; ????
  b8:	00 00       	Address 0x00000000000000b8 is out of bounds.
.word	0xffff	; ????
  ba:	0e 94       	Address 0x00000000000000ba is out of bounds.
.word	0xffff	; ????
  bc:	00 00       	Address 0x00000000000000bc is out of bounds.
.word	0xffff	; ????
  be:	61 e0       	Address 0x00000000000000be is out of bounds.
.word	0xffff	; ????
  c0:	81 e2       	Address 0x00000000000000c0 is out of bounds.
.word	0xffff	; ????
  c2:	0e 94       	Address 0x00000000000000c2 is out of bounds.
.word	0xffff	; ????
  c4:	00 00       	Address 0x00000000000000c4 is out of bounds.
.word	0xffff	; ????
  c6:	8f ef       	Address 0x00000000000000c6 is out of bounds.
.word	0xffff	; ????
  c8:	8a 87       	Address 0x00000000000000c8 is out of bounds.
.word	0xffff	; ????
  ca:	41 e0       	Address 0x00000000000000ca is out of bounds.
.word	0xffff	; ????
  cc:	61 e0       	Address 0x00000000000000cc is out of bounds.
.word	0xffff	; ????
  ce:	ce 01       	Address 0x00000000000000ce is out of bounds.
.word	0xffff	; ????
  d0:	0a 96       	Address 0x00000000000000d0 is out of bounds.
.word	0xffff	; ????
  d2:	0e 94       	Address 0x00000000000000d2 is out of bounds.
.word	0xffff	; ????
  d4:	00 00       	Address 0x00000000000000d4 is out of bounds.
.word	0xffff	; ????
  d6:	0e 94       	Address 0x00000000000000d6 is out of bounds.
.word	0xffff	; ????
  d8:	00 00       	Address 0x00000000000000d8 is out of bounds.
.word	0xffff	; ????
  da:	a8 01       	Address 0x00000000000000da is out of bounds.
.word	0xffff	; ????
  dc:	63 e0       	Address 0x00000000000000dc is out of bounds.
.word	0xffff	; ????
  de:	81 e2       	Address 0x00000000000000de is out of bounds.
.word	0xffff	; ????
  e0:	0e 94       	Address 0x00000000000000e0 is out of bounds.
.word	0xffff	; ????
  e2:	00 00       	Address 0x00000000000000e2 is out of bounds.
.word	0xffff	; ????
  e4:	0e 94       	Address 0x00000000000000e4 is out of bounds.
.word	0xffff	; ????
  e6:	00 00       	Address 0x00000000000000e6 is out of bounds.
.word	0xffff	; ????
  e8:	2a 96       	Address 0x00000000000000e8 is out of bounds.
.word	0xffff	; ????
  ea:	0f b6       	Address 0x00000000000000ea is out of bounds.
.word	0xffff	; ????
  ec:	f8 94       	Address 0x00000000000000ec is out of bounds.
.word	0xffff	; ????
  ee:	de bf       	Address 0x00000000000000ee is out of bounds.
.word	0xffff	; ????
  f0:	0f be       	Address 0x00000000000000f0 is out of bounds.
.word	0xffff	; ????
  f2:	cd bf       	Address 0x00000000000000f2 is out of bounds.
.word	0xffff	; ????
  f4:	df 91       	Address 0x00000000000000f4 is out of bounds.
.word	0xffff	; ????
  f6:	cf 91       	Address 0x00000000000000f6 is out of bounds.
.word	0xffff	; ????
  f8:	1f 91       	Address 0x00000000000000f8 is out of bounds.
.word	0xffff	; ????
  fa:	0f 91       	Address 0x00000000000000fa is out of bounds.
.word	0xffff	; ????
  fc:	08 95       	Address 0x00000000000000fc is out of bounds.
.word	0xffff	; ????

Disassembly of section .text._ZN7WiFiDrv13getRemoteDataEhPhS0_:

0000016e <_ZN7WiFiDrv13getRemoteDataEhPhS0_>:
 16e:	0f 93       	push	r16
 170:	1f 93       	push	r17
 172:	cf 93       	push	r28
 174:	df 93       	push	r29
 176:	cd b7       	in	r28, 0x3d	; 61
 178:	de b7       	in	r29, 0x3e	; 62
 17a:	27 97       	sbiw	r28, 0x07	; 7
 17c:	0f b6       	in	r0, 0x3f	; 63
 17e:	f8 94       	cli
 180:	de bf       	out	0x3e, r29	; 62
 182:	0f be       	out	0x3f, r0	; 63
 184:	cd bf       	out	0x3d, r28	; 61
 186:	8f 83       	std	Y+7, r24	; 0x07
 188:	8e 01       	movw	r16, r28
 18a:	0f 5f       	subi	r16, 0xFF	; 255
 18c:	1f 4f       	sbci	r17, 0xFF	; 255
 18e:	86 e0       	ldi	r24, 0x06	; 6
 190:	f8 01       	movw	r30, r16
 192:	11 92       	st	Z+, r1
 194:	8a 95       	dec	r24
 196:	01 f4       	brne	.+0      	; 0x198 <_ZN7WiFiDrv13getRemoteDataEhPhS0_+0x2a>
 198:	7b 83       	std	Y+3, r23	; 0x03
 19a:	6a 83       	std	Y+2, r22	; 0x02
 19c:	5e 83       	std	Y+6, r21	; 0x06
 19e:	4d 83       	std	Y+5, r20	; 0x05
 1a0:	80 91 00 00 	lds	r24, 0x0000
 1a4:	81 11       	cpse	r24, r1
 1a6:	00 c0       	rjmp	.+0      	; 0x1a8 <_ZN7WiFiDrv13getRemoteDataEhPhS0_+0x3a>
 1a8:	0e 94 00 00 	call	0	; 0x0 <__tmp_reg__>
 1ac:	81 e0       	ldi	r24, 0x01	; 1
 1ae:	80 93 00 00 	sts	0x0000, r24
 1b2:	0e 94 00 00 	call	0	; 0x0 <__tmp_reg__>
 1b6:	0e 94 00 00 	call	0	; 0x0 <__tmp_reg__>
 1ba:	61 e0       	ldi	r22, 0x01	; 1
 1bc:	8a e3       	ldi	r24, 0x3A	; 58
 1be:	0e 94 00 00 	call	0	; 0x0 <__tmp_reg__>
 1c2:	41 e0       	ldi	r20, 0x01	; 1
 1c4:	61 e0       	ldi	r22, 0x01	; 1
 1c6:	ce 01       	movw	r24, r28
 1c8:	07 96       	adiw	r24, 0x07	; 7
 1ca:	0e 94 00 00 	call	0	; 0x0 <__tmp_reg__>
 1ce:	0e 94 00 00 	call	0	; 0x0 <__tmp_reg__>
 1d2:	a8 01       	movw	r20, r16
 1d4:	62 e0       	ldi	r22, 0x02	; 2
 1d6:	8a e3       	ldi	r24, 0x3A	; 58
 1d8:	0e 94 00 00 	call	0	; 0x0 <__tmp_reg__>
 1dc:	0e 94 00 00 	call	0	; 0x0 <__tmp_reg__>
 1e0:	27 96       	adiw	r28, 0x07	; 7
 1e2:	0f b6       	in	r0, 0x3f	; 63
 1e4:	f8 94       	cli
 1e6:	de bf       	out	0x3e, r29	; 62
 1e8:	0f be       	out	0x3f, r0	; 63
 1ea:	cd bf       	out	0x3d, r28	; 61
 1ec:	df 91       	pop	r29
 1ee:	cf 91       	pop	r28
 1f0:	1f 91       	pop	r17
 1f2:	0f 91       	pop	r16
 1f4:	08 95       	ret

Disassembly of section .text._ZN7WiFiDrv14wifiDriverInitEv:

00000364 <_ZN7WiFiDrv14wifiDriverInitEv>:
 364:	0c 94 00 00 	jmp	0	; 0x0 <__tmp_reg__>

Disassembly of section .text._ZN7WiFiDrv14wifiSetNetworkEPch:

000006cc <_ZN7WiFiDrv14wifiSetNetworkEPch>:
 6cc:	ff 92       	push	r15
 6ce:	0f 93       	push	r16
 6d0:	1f 93       	push	r17
 6d2:	cf 93       	push	r28
 6d4:	df 93       	push	r29
 6d6:	00 d0       	rcall	.+0      	; 0x6d8 <_ZN7WiFiDrv14wifiSetNetworkEPch+0xc>
 6d8:	cd b7       	in	r28, 0x3d	; 61
 6da:	de b7       	in	r29, 0x3e	; 62
 6dc:	8c 01       	movw	r16, r24
 6de:	f6 2e       	mov	r15, r22
 6e0:	80 91 00 00 	lds	r24, 0x0000
 6e4:	81 11       	cpse	r24, r1
 6e6:	00 c0       	rjmp	.+0      	; 0x6e8 <_ZN7WiFiDrv14wifiSetNetworkEPch+0x1c>
 6e8:	0e 94 00 00 	call	0	; 0x0 <__tmp_reg__>
 6ec:	81 e0       	ldi	r24, 0x01	; 1
 6ee:	80 93 00 00 	sts	0x0000, r24
 6f2:	0e 94 00 00 	call	0	; 0x0 <__tmp_reg__>
 6f6:	0e 94 00 00 	call	0	; 0x0 <__tmp_reg__>
 6fa:	61 e0       	ldi	r22, 0x01	; 1
 6fc:	80 e1       	ldi	r24, 0x10	; 16
 6fe:	0e 94 00 00 	call	0	; 0x0 <__tmp_reg__>
 702:	41 e0       	ldi	r20, 0x01	; 1
 704:	6f 2d       	mov	r22, r15
 706:	c8 01       	movw	r24, r16
 708:	0e 94 00 00 	call	0	; 0x0 <__tmp_reg__>
 70c:	0e 94 00 00 	call	0	; 0x0 <__tmp_reg__>
 710:	1a 82       	std	Y+2, r1	; 0x02
 712:	19 82       	std	Y+1, r1	; 0x01
 714:	9e 01       	movw	r18, r28
 716:	2f 5f       	subi	r18, 0xFF	; 255
 718:	3f 4f       	sbci	r19, 0xFF	; 255
 71a:	ae 01       	movw	r20, r28
 71c:	4e 5f       	subi	r20, 0xFE	; 254
 71e:	5f 4f       	sbci	r21, 0xFF	; 255
 720:	61 e0       	ldi	r22, 0x01	; 1
 722:	80 e1       	ldi	r24, 0x10	; 16
 724:	0e 94 00 00 	call	0	; 0x0 <__tmp_reg__>
 728:	89 2b       	or	r24, r25
 72a:	01 f4       	brne	.+0      	; 0x72c <_ZN7WiFiDrv14wifiSetNetworkEPch+0x60>
 72c:	8f ef       	ldi	r24, 0xFF	; 255
 72e:	8a 83       	std	Y+2, r24	; 0x02
 730:	0e 94 00 00 	call	0	; 0x0 <__tmp_reg__>
 734:	8a 81       	ldd	r24, Y+2	; 0x02
 736:	81 30       	cpi	r24, 0x01	; 1
 738:	01 f0       	breq	.+0      	; 0x73a <_ZN7WiFiDrv14wifiSetNetworkEPch+0x6e>
 73a:	8f ef       	ldi	r24, 0xFF	; 255
 73c:	0f 90       	pop	r0
 73e:	0f 90       	pop	r0
 740:	df 91       	pop	r29
 742:	cf 91       	pop	r28
 744:	1f 91       	pop	r17
 746:	0f 91       	pop	r16
 748:	ff 90       	pop	r15
 74a:	08 95       	ret

Disassembly of section .text._ZN7WiFiDrv17wifiSetPassphraseEPchPKch:

00000e18 <_ZN7WiFiDrv17wifiSetPassphraseEPchPKch>:
 e18:	cf 92       	push	r12
 e1a:	df 92       	push	r13
 e1c:	ef 92       	push	r14
 e1e:	ff 92       	push	r15
 e20:	0f 93       	push	r16
 e22:	1f 93       	push	r17
 e24:	cf 93       	push	r28
 e26:	df 93       	push	r29
 e28:	00 d0       	rcall	.+0      	; 0xe2a <_ZN7WiFiDrv17wifiSetPassphraseEPchPKch+0x12>
 e2a:	cd b7       	in	r28, 0x3d	; 61
 e2c:	de b7       	in	r29, 0x3e	; 62
 e2e:	8c 01       	movw	r16, r24
 e30:	d6 2e       	mov	r13, r22
 e32:	7a 01       	movw	r14, r20
 e34:	c2 2e       	mov	r12, r18
 e36:	80 91 00 00 	lds	r24, 0x0000
 e3a:	81 11       	cpse	r24, r1
 e3c:	00 c0       	rjmp	.+0      	; 0xe3e <_ZN7WiFiDrv17wifiSetPassphraseEPchPKch+0x26>
 e3e:	0e 94 00 00 	call	0	; 0x0 <__tmp_reg__>
 e42:	81 e0       	ldi	r24, 0x01	; 1
 e44:	80 93 00 00 	sts	0x0000, r24
 e48:	0e 94 00 00 	call	0	; 0x0 <__tmp_reg__>
 e4c:	0e 94 00 00 	call	0	; 0x0 <__tmp_reg__>
 e50:	62 e0       	ldi	r22, 0x02	; 2
 e52:	81 e1       	ldi	r24, 0x11	; 17
 e54:	0e 94 00 00 	call	0	; 0x0 <__tmp_reg__>
 e58:	40 e0       	ldi	r20, 0x00	; 0
 e5a:	6d 2d       	mov	r22, r13
 e5c:	c8 01       	movw	r24, r16
 e5e:	0e 94 00 00 	call	0	; 0x0 <__tmp_reg__>
 e62:	41 e0       	ldi	r20, 0x01	; 1
 e64:	6c 2d       	mov	r22, r12
 e66:	c7 01       	movw	r24, r14
 e68:	0e 94 00 00 	call	0	; 0x0 <__tmp_reg__>
 e6c:	0e 94 00 00 	call	0	; 0x0 <__tmp_reg__>
 e70:	1a 82       	std	Y+2, r1	; 0x02
 e72:	19 82       	std	Y+1, r1	; 0x01
 e74:	9e 01       	movw	r18, r28
 e76:	2f 5f       	subi	r18, 0xFF	; 255
 e78:	3f 4f       	sbci	r19, 0xFF	; 255
 e7a:	ae 01       	movw	r20, r28
 e7c:	4e 5f       	subi	r20, 0xFE	; 254
 e7e:	5f 4f       	sbci	r21, 0xFF	; 255
 e80:	61 e0       	ldi	r22, 0x01	; 1
 e82:	81 e1       	ldi	r24, 0x11	; 17
 e84:	0e 94 00 00 	call	0	; 0x0 <__tmp_reg__>
 e88:	89 2b       	or	r24, r25
 e8a:	01 f4       	brne	.+0      	; 0xe8c <_ZN7WiFiDrv17wifiSetPassphraseEPchPKch+0x74>
 e8c:	8f ef       	ldi	r24, 0xFF	; 255
 e8e:	8a 83       	std	Y+2, r24	; 0x02
 e90:	0e 94 00 00 	call	0	; 0x0 <__tmp_reg__>
 e94:	8a 81       	ldd	r24, Y+2	; 0x02
 e96:	0f 90       	pop	r0
 e98:	0f 90       	pop	r0
 e9a:	df 91       	pop	r29
 e9c:	cf 91       	pop	r28
 e9e:	1f 91       	pop	r17
 ea0:	0f 91       	pop	r16
 ea2:	ff 90       	pop	r15
 ea4:	ef 90       	pop	r14
 ea6:	df 90       	pop	r13
 ea8:	cf 90       	pop	r12
 eaa:	08 95       	ret

Disassembly of section .text._ZN7WiFiDrv10wifiSetKeyEPchhPKvh:

00001cc4 <_ZN7WiFiDrv10wifiSetKeyEPchhPKvh>:
    1cc4:	cf 92       	push	r12
    1cc6:	df 92       	push	r13
    1cc8:	ef 92       	push	r14
    1cca:	ff 92       	push	r15
    1ccc:	0f 93       	push	r16
    1cce:	1f 93       	push	r17
    1cd0:	cf 93       	push	r28
    1cd2:	df 93       	push	r29
    1cd4:	00 d0       	rcall	.+0      	; 0x1cd6 <_ZN7WiFiDrv10wifiSetKeyEPchhPKvh+0x12>
    1cd6:	1f 92       	push	r1
    1cd8:	cd b7       	in	r28, 0x3d	; 61
    1cda:	de b7       	in	r29, 0x3e	; 62
    1cdc:	6c 01       	movw	r12, r24
    1cde:	16 2f       	mov	r17, r22
    1ce0:	4b 83       	std	Y+3, r20	; 0x03
    1ce2:	79 01       	movw	r14, r18
    1ce4:	80 91 00 00 	lds	r24, 0x0000
    1ce8:	81 11       	cpse	r24, r1
    1cea:	00 c0       	rjmp	.+0      	; 0x1cec <_ZN7WiFiDrv10wifiSetKeyEPchhPKvh+0x28>
    1cec:	0e 94 00 00 	call	0	; 0x0 <__tmp_reg__>
    1cf0:	81 e0       	ldi	r24, 0x01	; 1
    1cf2:	80 93 00 00 	sts	0x0000, r24
    1cf6:	0e 94 00 00 	call	0	; 0x0 <__tmp_reg__>
    1cfa:	0e 94 00 00 	call	0	; 0x0 <__tmp_reg__>
    1cfe:	63 e0       	ldi	r22, 0x03	; 3
    1d00:	82 e1       	ldi	r24, 0x12	; 18
    1d02:	0e 94 00 00 	call	0	; 0x0 <__tmp_reg__>
    1d06:	40 e0       	ldi	r20, 0x00	; 0
    1d08:	61 2f       	mov	r22, r17
    1d0a:	c6 01       	movw	r24, r12
    1d0c:	0e 94 00 00 	call	0	; 0x0 <__tmp_reg__>
    1d10:	40 e0       	ldi	r20, 0x00	; 0
    1d12:	61 e0       	ldi	r22, 0x01	; 1
    1d14:	ce 01       	movw	r24, r28
    1d16:	03 96       	adiw	r24, 0x03	; 3
    1d18:	0e 94 00 00 	call	0	; 0x0 <__tmp_reg__>
    1d1c:	41 e0       	ldi	r20, 0x01	; 1
    1d1e:	60 2f       	mov	r22, r16
    1d20:	c7 01       	movw	r24, r14
    1d22:	0e 94 00 00 	call	0	; 0x0 <__tmp_reg__>
    1d26:	0e 94 00 00 	call	0	; 0x0 <__tmp_reg__>
    1d2a:	1a 82       	std	Y+2, r1	; 0x02
    1d2c:	19 82       	std	Y+1, r1	; 0x01
    1d2e:	9e 01       	movw	r18, r28
    1d30:	2f 5f       	subi	r18, 0xFF	; 255
    1d32:	3f 4f       	sbci	r19, 0xFF	; 255
    1d34:	ae 01       	movw	r20, r28
    1d36:	4e 5f       	subi	r20, 0xFE	; 254
    1d38:	5f 4f       	sbci	r21, 0xFF	; 255
    1d3a:	61 e0       	ldi	r22, 0x01	; 1
    1d3c:	82 e1       	ldi	r24, 0x12	; 18
    1d3e:	0e 94 00 00 	call	0	; 0x0 <__tmp_reg__>
    1d42:	89 2b       	or	r24, r25
    1d44:	01 f4       	brne	.+0      	; 0x1d46 <_ZN7WiFiDrv10wifiSetKeyEPchhPKvh+0x82>
    1d46:	8f ef       	ldi	r24, 0xFF	; 255
    1d48:	8a 83       	std	Y+2, r24	; 0x02
    1d4a:	0e 94 00 00 	call	0	; 0x0 <__tmp_reg__>
    1d4e:	8a 81       	ldd	r24, Y+2	; 0x02
    1d50:	0f 90       	pop	r0
    1d52:	0f 90       	pop	r0
    1d54:	0f 90       	pop	r0
    1d56:	df 91       	pop	r29
    1d58:	cf 91       	pop	r28
    1d5a:	1f 91       	pop	r17
    1d5c:	0f 91       	pop	r16
    1d5e:	ff 90       	pop	r15
    1d60:	ef 90       	pop	r14
    1d62:	df 90       	pop	r13
    1d64:	cf 90       	pop	r12
    1d66:	08 95       	ret

Disassembly of section .text._ZN7WiFiDrv6configEhmmm:

00003a2c <_ZN7WiFiDrv6configEhmmm>:
    3a2c:	cf 92       	push	r12
    3a2e:	df 92       	push	r13
    3a30:	ef 92       	push	r14
    3a32:	ff 92       	push	r15
    3a34:	0f 93       	push	r16
    3a36:	1f 93       	push	r17
    3a38:	cf 93       	push	r28
    3a3a:	df 93       	push	r29
    3a3c:	cd b7       	in	r28, 0x3d	; 61
    3a3e:	de b7       	in	r29, 0x3e	; 62
    3a40:	2f 97       	sbiw	r28, 0x0f	; 15
    3a42:	0f b6       	in	r0, 0x3f	; 63
    3a44:	f8 94       	cli
    3a46:	de bf       	out	0x3e, r29	; 62
    3a48:	0f be       	out	0x3f, r0	; 63
    3a4a:	cd bf       	out	0x3d, r28	; 61
    3a4c:	8b 83       	std	Y+3, r24	; 0x03
    3a4e:	4c 83       	std	Y+4, r20	; 0x04
    3a50:	5d 83       	std	Y+5, r21	; 0x05
    3a52:	6e 83       	std	Y+6, r22	; 0x06
    3a54:	7f 83       	std	Y+7, r23	; 0x07
    3a56:	08 87       	std	Y+8, r16	; 0x08
    3a58:	19 87       	std	Y+9, r17	; 0x09
    3a5a:	2a 87       	std	Y+10, r18	; 0x0a
    3a5c:	3b 87       	std	Y+11, r19	; 0x0b
    3a5e:	cc 86       	std	Y+12, r12	; 0x0c
    3a60:	dd 86       	std	Y+13, r13	; 0x0d
    3a62:	ee 86       	std	Y+14, r14	; 0x0e
    3a64:	ff 86       	std	Y+15, r15	; 0x0f
    3a66:	80 91 00 00 	lds	r24, 0x0000
    3a6a:	81 11       	cpse	r24, r1
    3a6c:	00 c0       	rjmp	.+0      	; 0x3a6e <_ZN7WiFiDrv6configEhmmm+0x42>
    3a6e:	0e 94 00 00 	call	0	; 0x0 <__tmp_reg__>
    3a72:	81 e0       	ldi	r24, 0x01	; 1
    3a74:	80 93 00 00 	sts	0x0000, r24
    3a78:	0e 94 00 00 	call	0	; 0x0 <__tmp_reg__>
    3a7c:	0e 94 00 00 	call	0	; 0x0 <__tmp_reg__>
    3a80:	64 e0       	ldi	r22, 0x04	; 4
    3a82:	84 e1       	ldi	r24, 0x14	; 20
    3a84:	0e 94 00 00 	call	0	; 0x0 <__tmp_reg__>
    3a88:	40 e0       	ldi	r20, 0x00	; 0
    3a8a:	61 e0       	ldi	r22, 0x01	; 1
    3a8c:	ce 01       	movw	r24, r28
    3a8e:	03 96       	adiw	r24, 0x03	; 3
    3a90:	0e 94 00 00 	call	0	; 0x0 <__tmp_reg__>
    3a94:	40 e0       	ldi	r20, 0x00	; 0
    3a96:	64 e0       	ldi	r22, 0x04	; 4
    3a98:	ce 01       	movw	r24, r28
    3a9a:	04 96       	adiw	r24, 0x04	; 4
    3a9c:	0e 94 00 00 	call	0	; 0x0 <__tmp_reg__>
    3aa0:	40 e0       	ldi	r20, 0x00	; 0
    3aa2:	64 e0       	ldi	r22, 0x04	; 4
    3aa4:	ce 01       	movw	r24, r28
    3aa6:	08 96       	adiw	r24, 0x08	; 8
    3aa8:	0e 94 00 00 	call	0	; 0x0 <__tmp_reg__>
    3aac:	41 e0       	ldi	r20, 0x01	; 1
    3aae:	64 e0       	ldi	r22, 0x04	; 4
    3ab0:	ce 01       	movw	r24, r28
    3ab2:	0c 96       	adiw	r24, 0x0c	; 12
    3ab4:	0e 94 00 00 	call	0	; 0x0 <__tmp_reg__>
    3ab8:	0e 94 00 00 	call	0	; 0x0 <__tmp_reg__>
    3abc:	1a 82       	std	Y+2, r1	; 0x02
    3abe:	19 82       	std	Y+1, r1	; 0x01
    3ac0:	9e 01       	movw	r18, r28
    3ac2:	2f 5f       	subi	r18, 0xFF	; 255
    3ac4:	3f 4f       	sbci	r19, 0xFF	; 255
    3ac6:	ae 01       	movw	r20, r28
    3ac8:	4e 5f       	subi	r20, 0xFE	; 254
    3aca:	5f 4f       	sbci	r21, 0xFF	; 255
    3acc:	61 e0       	ldi	r22, 0x01	; 1
    3ace:	84 e1       	ldi	r24, 0x14	; 20
    3ad0:	0e 94 00 00 	call	0	; 0x0 <__tmp_reg__>
    3ad4:	89 2b       	or	r24, r25
    3ad6:	01 f4       	brne	.+0      	; 0x3ad8 <_ZN7WiFiDrv6configEhmmm+0xac>
    3ad8:	8f ef       	ldi	r24, 0xFF	; 255
    3ada:	8a 83       	std	Y+2, r24	; 0x02
    3adc:	0e 94 00 00 	call	0	; 0x0 <__tmp_reg__>
    3ae0:	2f 96       	adiw	r28, 0x0f	; 15
    3ae2:	0f b6       	in	r0, 0x3f	; 63
    3ae4:	f8 94       	cli
    3ae6:	de bf       	out	0x3e, r29	; 62
    3ae8:	0f be       	out	0x3f, r0	; 63
    3aea:	cd bf       	out	0x3d, r28	; 61
    3aec:	df 91       	pop	r29
    3aee:	cf 91       	pop	r28
    3af0:	1f 91       	pop	r17
    3af2:	0f 91       	pop	r16
    3af4:	ff 90       	pop	r15
    3af6:	ef 90       	pop	r14
    3af8:	df 90       	pop	r13
    3afa:	cf 90       	pop	r12
    3afc:	08 95       	ret

Disassembly of section .text._ZN7WiFiDrv6setDNSEhmm:

0000752a <_ZN7WiFiDrv6setDNSEhmm>:
    752a:	0f 93       	push	r16
    752c:	1f 93       	push	r17
    752e:	cf 93       	push	r28
    7530:	df 93       	push	r29
    7532:	cd b7       	in	r28, 0x3d	; 61
    7534:	de b7       	in	r29, 0x3e	; 62
    7536:	2b 97       	sbiw	r28, 0x0b	; 11
    7538:	0f b6       	in	r0, 0x3f	; 63
    753a:	f8 94       	cli
    753c:	de bf       	out	0x3e, r29	; 62
    753e:	0f be       	out	0x3f, r0	; 63
    7540:	cd bf       	out	0x3d, r28	; 61
    7542:	8b 83       	std	Y+3, r24	; 0x03
    7544:	4c 83       	std	Y+4, r20	; 0x04
    7546:	5d 83       	std	Y+5, r21	; 0x05
    7548:	6e 83       	std	Y+6, r22	; 0x06
    754a:	7f 83       	std	Y+7, r23	; 0x07
    754c:	08 87       	std	Y+8, r16	; 0x08
    754e:	19 87       	std	Y+9, r17	; 0x09
    7550:	2a 87       	std	Y+10, r18	; 0x0a
    7552:	3b 87       	std	Y+11, r19	; 0x0b
    7554:	80 91 00 00 	lds	r24, 0x0000
    7558:	81 11       	cpse	r24, r1
    755a:	00 c0       	rjmp	.+0      	; 0x755c <_ZN7WiFiDrv6setDNSEhmm+0x32>
    755c:	0e 94 00 00 	call	0	; 0x0 <__tmp_reg__>
    7560:	81 e0       	ldi	r24, 0x01	; 1
    7562:	80 93 00 00 	sts	0x0000, r24
    7566:	0e 94 00 00 	call	0	; 0x0 <__tmp_reg__>
    756a:	0e 94 00 00 	call	0	; 0x0 <__tmp_reg__>
    756e:	63 e0       	ldi	r22, 0x03	; 3
    7570:	85 e1       	ldi	r24, 0x15	; 21
    7572:	0e 94 00 00 	call	0	; 0x0 <__tmp_reg__>
    7576:	40 e0       	ldi	r20, 0x00	; 0
    7578:	61 e0       	ldi	r22, 0x01	; 1
    757a:	ce 01       	movw	r24, r28
    757c:	03 96       	adiw	r24, 0x03	; 3
    757e:	0e 94 00 00 	call	0	; 0x0 <__tmp_reg__>
    7582:	40 e0       	ldi	r20, 0x00	; 0
    7584:	64 e0       	ldi	r22, 0x04	; 4
    7586:	ce 01       	movw	r24, r28
    7588:	04 96       	adiw	r24, 0x04	; 4
    758a:	0e 94 00 00 	call	0	; 0x0 <__tmp_reg__>
    758e:	41 e0       	ldi	r20, 0x01	; 1
    7590:	64 e0       	ldi	r22, 0x04	; 4
    7592:	ce 01       	movw	r24, r28
    7594:	08 96       	adiw	r24, 0x08	; 8
    7596:	0e 94 00 00 	call	0	; 0x0 <__tmp_reg__>
    759a:	0e 94 00 00 	call	0	; 0x0 <__tmp_reg__>
    759e:	1a 82       	std	Y+2, r1	; 0x02
    75a0:	19 82       	std	Y+1, r1	; 0x01
    75a2:	9e 01       	movw	r18, r28
    75a4:	2f 5f       	subi	r18, 0xFF	; 255
    75a6:	3f 4f       	sbci	r19, 0xFF	; 255
    75a8:	ae 01       	movw	r20, r28
    75aa:	4e 5f       	subi	r20, 0xFE	; 254
    75ac:	5f 4f       	sbci	r21, 0xFF	; 255
    75ae:	61 e0       	ldi	r22, 0x01	; 1
    75b0:	85 e1       	ldi	r24, 0x15	; 21
    75b2:	0e 94 00 00 	call	0	; 0x0 <__tmp_reg__>
    75b6:	89 2b       	or	r24, r25
    75b8:	01 f4       	brne	.+0      	; 0x75ba <_ZN7WiFiDrv6setDNSEhmm+0x90>
    75ba:	8f ef       	ldi	r24, 0xFF	; 255
    75bc:	8a 83       	std	Y+2, r24	; 0x02
    75be:	0e 94 00 00 	call	0	; 0x0 <__tmp_reg__>
    75c2:	2b 96       	adiw	r28, 0x0b	; 11
    75c4:	0f b6       	in	r0, 0x3f	; 63
    75c6:	f8 94       	cli
    75c8:	de bf       	out	0x3e, r29	; 62
    75ca:	0f be       	out	0x3f, r0	; 63
    75cc:	cd bf       	out	0x3d, r28	; 61
    75ce:	df 91       	pop	r29
    75d0:	cf 91       	pop	r28
    75d2:	1f 91       	pop	r17
    75d4:	0f 91       	pop	r16
    75d6:	08 95       	ret

Disassembly of section .text._ZN7WiFiDrv10disconnectEv:

0000eb02 <_ZN7WiFiDrv10disconnectEv>:
    eb02:	cf 93       	push	r28
    eb04:	df 93       	push	r29
    eb06:	00 d0       	rcall	.+0      	; 0xeb08 <_ZN7WiFiDrv10disconnectEv+0x6>
    eb08:	00 d0       	rcall	.+0      	; 0xeb0a <_ZN7WiFiDrv10disconnectEv+0x8>
    eb0a:	cd b7       	in	r28, 0x3d	; 61
    eb0c:	de b7       	in	r29, 0x3e	; 62
    eb0e:	80 91 00 00 	lds	r24, 0x0000
    eb12:	81 11       	cpse	r24, r1
    eb14:	00 c0       	rjmp	.+0      	; 0xeb16 <_ZN7WiFiDrv10disconnectEv+0x14>
    eb16:	0e 94 00 00 	call	0	; 0x0 <__tmp_reg__>
    eb1a:	81 e0       	ldi	r24, 0x01	; 1
    eb1c:	80 93 00 00 	sts	0x0000, r24
    eb20:	0e 94 00 00 	call	0	; 0x0 <__tmp_reg__>
    eb24:	0e 94 00 00 	call	0	; 0x0 <__tmp_reg__>
    eb28:	61 e0       	ldi	r22, 0x01	; 1
    eb2a:	80 e3       	ldi	r24, 0x30	; 48
    eb2c:	0e 94 00 00 	call	0	; 0x0 <__tmp_reg__>
    eb30:	8f ef       	ldi	r24, 0xFF	; 255
    eb32:	8b 83       	std	Y+3, r24	; 0x03
    eb34:	41 e0       	ldi	r20, 0x01	; 1
    eb36:	61 e0       	ldi	r22, 0x01	; 1
    eb38:	ce 01       	movw	r24, r28
    eb3a:	03 96       	adiw	r24, 0x03	; 3
    eb3c:	0e 94 00 00 	call	0	; 0x0 <__tmp_reg__>
    eb40:	0e 94 00 00 	call	0	; 0x0 <__tmp_reg__>
    eb44:	1a 82       	std	Y+2, r1	; 0x02
    eb46:	19 82       	std	Y+1, r1	; 0x01
    eb48:	9e 01       	movw	r18, r28
    eb4a:	2f 5f       	subi	r18, 0xFF	; 255
    eb4c:	3f 4f       	sbci	r19, 0xFF	; 255
    eb4e:	ae 01       	movw	r20, r28
    eb50:	4e 5f       	subi	r20, 0xFE	; 254
    eb52:	5f 4f       	sbci	r21, 0xFF	; 255
    eb54:	61 e0       	ldi	r22, 0x01	; 1
    eb56:	80 e3       	ldi	r24, 0x30	; 48
    eb58:	0e 94 00 00 	call	0	; 0x0 <__tmp_reg__>
    eb5c:	8c 83       	std	Y+4, r24	; 0x04
    eb5e:	0e 94 00 00 	call	0	; 0x0 <__tmp_reg__>
    eb62:	8c 81       	ldd	r24, Y+4	; 0x04
    eb64:	0f 90       	pop	r0
    eb66:	0f 90       	pop	r0
    eb68:	0f 90       	pop	r0
    eb6a:	0f 90       	pop	r0
    eb6c:	df 91       	pop	r29
    eb6e:	cf 91       	pop	r28
    eb70:	08 95       	ret

Disassembly of section .text._ZN7WiFiDrv19getConnectionStatusEv:

0001d674 <_ZN7WiFiDrv19getConnectionStatusEv>:
   1d674:	cf 93       	push	r28
   1d676:	df 93       	push	r29
   1d678:	00 d0       	rcall	.+0      	; 0x1d67a <_ZN7WiFiDrv19getConnectionStatusEv+0x6>
   1d67a:	cd b7       	in	r28, 0x3d	; 61
   1d67c:	de b7       	in	r29, 0x3e	; 62
   1d67e:	80 91 00 00 	lds	r24, 0x0000
   1d682:	81 11       	cpse	r24, r1
   1d684:	00 c0       	rjmp	.+0      	; 0x1d686 <_ZN7WiFiDrv19getConnectionStatusEv+0x12>
   1d686:	0e 94 00 00 	call	0	; 0x0 <__tmp_reg__>
   1d68a:	81 e0       	ldi	r24, 0x01	; 1
   1d68c:	80 93 00 00 	sts	0x0000, r24
   1d690:	0e 94 00 00 	call	0	; 0x0 <__tmp_reg__>
   1d694:	0e 94 00 00 	call	0	; 0x0 <__tmp_reg__>
   1d698:	60 e0       	ldi	r22, 0x00	; 0
   1d69a:	80 e2       	ldi	r24, 0x20	; 32
   1d69c:	0e 94 00 00 	call	0	; 0x0 <__tmp_reg__>
   1d6a0:	0e 94 00 00 	call	0	; 0x0 <__tmp_reg__>
   1d6a4:	8f ef       	ldi	r24, 0xFF	; 255
   1d6a6:	8a 83       	std	Y+2, r24	; 0x02
   1d6a8:	19 82       	std	Y+1, r1	; 0x01
   1d6aa:	9e 01       	movw	r18, r28
   1d6ac:	2f 5f       	subi	r18, 0xFF	; 255
   1d6ae:	3f 4f       	sbci	r19, 0xFF	; 255
   1d6b0:	ae 01       	movw	r20, r28
   1d6b2:	4e 5f       	subi	r20, 0xFE	; 254
   1d6b4:	5f 4f       	sbci	r21, 0xFF	; 255
   1d6b6:	61 e0       	ldi	r22, 0x01	; 1
   1d6b8:	80 e2       	ldi	r24, 0x20	; 32
   1d6ba:	0e 94 00 00 	call	0	; 0x0 <__tmp_reg__>
   1d6be:	0e 94 00 00 	call	0	; 0x0 <__tmp_reg__>
   1d6c2:	8a 81       	ldd	r24, Y+2	; 0x02
   1d6c4:	0f 90       	pop	r0
   1d6c6:	0f 90       	pop	r0
   1d6c8:	df 91       	pop	r29
   1d6ca:	cf 91       	pop	r28
   1d6cc:	08 95       	ret

Disassembly of section .text._ZN7WiFiDrv13getMacAddressEv:

0003ad42 <_ZN7WiFiDrv13getMacAddressEv>:
   3ad42:	cf 93       	push	r28
   3ad44:	df 93       	push	r29
   3ad46:	00 d0       	rcall	.+0      	; 0x3ad48 <_ZN7WiFiDrv13getMacAddressEv+0x6>
   3ad48:	cd b7       	in	r28, 0x3d	; 61
   3ad4a:	de b7       	in	r29, 0x3e	; 62
   3ad4c:	80 91 00 00 	lds	r24, 0x0000
   3ad50:	81 11       	cpse	r24, r1
   3ad52:	00 c0       	rjmp	.+0      	; 0x3ad54 <_ZN7WiFiDrv13getMacAddressEv+0x12>
   3ad54:	0e 94 00 00 	call	0	; 0x0 <__tmp_reg__>
   3ad58:	81 e0       	ldi	r24, 0x01	; 1
   3ad5a:	80 93 00 00 	sts	0x0000, r24
   3ad5e:	0e 94 00 00 	call	0	; 0x0 <__tmp_reg__>
   3ad62:	0e 94 00 00 	call	0	; 0x0 <__tmp_reg__>
   3ad66:	61 e0       	ldi	r22, 0x01	; 1
   3ad68:	82 e2       	ldi	r24, 0x22	; 34
   3ad6a:	0e 94 00 00 	call	0	; 0x0 <__tmp_reg__>
   3ad6e:	8f ef       	ldi	r24, 0xFF	; 255
   3ad70:	8a 83       	std	Y+2, r24	; 0x02
   3ad72:	41 e0       	ldi	r20, 0x01	; 1
   3ad74:	61 e0       	ldi	r22, 0x01	; 1
   3ad76:	ce 01       	movw	r24, r28
   3ad78:	02 96       	adiw	r24, 0x02	; 2
   3ad7a:	0e 94 00 00 	call	0	; 0x0 <__tmp_reg__>
   3ad7e:	0e 94 00 00 	call	0	; 0x0 <__tmp_reg__>
   3ad82:	19 82       	std	Y+1, r1	; 0x01
   3ad84:	9e 01       	movw	r18, r28
   3ad86:	2f 5f       	subi	r18, 0xFF	; 255
   3ad88:	3f 4f       	sbci	r19, 0xFF	; 255
   3ad8a:	40 e0       	ldi	r20, 0x00	; 0
   3ad8c:	50 e0       	ldi	r21, 0x00	; 0
   3ad8e:	61 e0       	ldi	r22, 0x01	; 1
   3ad90:	82 e2       	ldi	r24, 0x22	; 34
   3ad92:	0e 94 00 00 	call	0	; 0x0 <__tmp_reg__>
   3ad96:	0e 94 00 00 	call	0	; 0x0 <__tmp_reg__>
   3ad9a:	80 e0       	ldi	r24, 0x00	; 0
   3ad9c:	90 e0       	ldi	r25, 0x00	; 0
   3ad9e:	0f 90       	pop	r0
   3ada0:	0f 90       	pop	r0
   3ada2:	df 91       	pop	r29
   3ada4:	cf 91       	pop	r28
   3ada6:	08 95       	ret

Disassembly of section .text._ZN7WiFiDrv12getIpAddressER9IPAddress:

00075aea <_ZN7WiFiDrv12getIpAddressER9IPAddress>:
   75aea:	cf 93       	push	r28
   75aec:	df 93       	push	r29
   75aee:	ec 01       	movw	r28, r24
   75af0:	40 e0       	ldi	r20, 0x00	; 0
   75af2:	50 e0       	ldi	r21, 0x00	; 0
   75af4:	60 e0       	ldi	r22, 0x00	; 0
   75af6:	70 e0       	ldi	r23, 0x00	; 0
   75af8:	80 e0       	ldi	r24, 0x00	; 0
   75afa:	90 e0       	ldi	r25, 0x00	; 0
   75afc:	0e 94 00 00 	call	0	; 0x0 <__tmp_reg__>
   75b00:	60 e0       	ldi	r22, 0x00	; 0
   75b02:	70 e0       	ldi	r23, 0x00	; 0
   75b04:	ce 01       	movw	r24, r28
   75b06:	df 91       	pop	r29
   75b08:	cf 91       	pop	r28
   75b0a:	0c 94 00 00 	jmp	0	; 0x0 <__tmp_reg__>

Disassembly of section .text._ZN7WiFiDrv13getSubnetMaskER9IPAddress:

000eb5f8 <_ZN7WiFiDrv13getSubnetMaskER9IPAddress>:
   eb5f8:	cf 93       	push	r28
   eb5fa:	df 93       	push	r29
   eb5fc:	ec 01       	movw	r28, r24
   eb5fe:	40 e0       	ldi	r20, 0x00	; 0
   eb600:	50 e0       	ldi	r21, 0x00	; 0
   eb602:	60 e0       	ldi	r22, 0x00	; 0
   eb604:	70 e0       	ldi	r23, 0x00	; 0
   eb606:	80 e0       	ldi	r24, 0x00	; 0
   eb608:	90 e0       	ldi	r25, 0x00	; 0
   eb60a:	0e 94 00 00 	call	0	; 0x0 <__tmp_reg__>
   eb60e:	60 e0       	ldi	r22, 0x00	; 0
   eb610:	70 e0       	ldi	r23, 0x00	; 0
   eb612:	ce 01       	movw	r24, r28
   eb614:	df 91       	pop	r29
   eb616:	cf 91       	pop	r28
   eb618:	0c 94 00 00 	jmp	0	; 0x0 <__tmp_reg__>

Disassembly of section .text._ZN7WiFiDrv12getGatewayIPER9IPAddress:

001d6c14 <_ZN7WiFiDrv12getGatewayIPER9IPAddress>:
  1d6c14:	cf 93       	push	r28
  1d6c16:	df 93       	push	r29
  1d6c18:	ec 01       	movw	r28, r24
  1d6c1a:	40 e0       	ldi	r20, 0x00	; 0
  1d6c1c:	50 e0       	ldi	r21, 0x00	; 0
  1d6c1e:	60 e0       	ldi	r22, 0x00	; 0
  1d6c20:	70 e0       	ldi	r23, 0x00	; 0
  1d6c22:	80 e0       	ldi	r24, 0x00	; 0
  1d6c24:	90 e0       	ldi	r25, 0x00	; 0
  1d6c26:	0e 94 00 00 	call	0	; 0x0 <__tmp_reg__>
  1d6c2a:	60 e0       	ldi	r22, 0x00	; 0
  1d6c2c:	70 e0       	ldi	r23, 0x00	; 0
  1d6c2e:	ce 01       	movw	r24, r28
  1d6c30:	df 91       	pop	r29
  1d6c32:	cf 91       	pop	r28
  1d6c34:	0c 94 00 00 	jmp	0	; 0x0 <__tmp_reg__>

Disassembly of section .text._ZN7WiFiDrv14getCurrentSSIDEv:

003ad84c <_ZN7WiFiDrv14getCurrentSSIDEv>:
  3ad84c:	cf 93       	push	r28
  3ad84e:	df 93       	push	r29
  3ad850:	00 d0       	rcall	.+0      	; 0x3ad852 <_ZN7WiFiDrv14getCurrentSSIDEv+0x6>
  3ad852:	cd b7       	in	r28, 0x3d	; 61
  3ad854:	de b7       	in	r29, 0x3e	; 62
  3ad856:	80 91 00 00 	lds	r24, 0x0000
  3ad85a:	81 11       	cpse	r24, r1
  3ad85c:	00 c0       	rjmp	.+0      	; 0x3ad85e <_ZN7WiFiDrv14getCurrentSSIDEv+0x12>
  3ad85e:	0e 94 00 00 	call	0	; 0x0 <__tmp_reg__>
  3ad862:	81 e0       	ldi	r24, 0x01	; 1
  3ad864:	80 93 00 00 	sts	0x0000, r24
  3ad868:	0e 94 00 00 	call	0	; 0x0 <__tmp_reg__>
  3ad86c:	0e 94 00 00 	call	0	; 0x0 <__tmp_reg__>
  3ad870:	61 e0       	ldi	r22, 0x01	; 1
  3ad872:	83 e2       	ldi	r24, 0x23	; 35
  3ad874:	0e 94 00 00 	call	0	; 0x0 <__tmp_reg__>
  3ad878:	8f ef       	ldi	r24, 0xFF	; 255
  3ad87a:	8a 83       	std	Y+2, r24	; 0x02
  3ad87c:	41 e0       	ldi	r20, 0x01	; 1
  3ad87e:	61 e0       	ldi	r22, 0x01	; 1
  3ad880:	ce 01       	movw	r24, r28
  3ad882:	02 96       	adiw	r24, 0x02	; 2
  3ad884:	0e 94 00 00 	call	0	; 0x0 <__tmp_reg__>
  3ad888:	0e 94 00 00 	call	0	; 0x0 <__tmp_reg__>
  3ad88c:	19 82       	std	Y+1, r1	; 0x01
  3ad88e:	9e 01       	movw	r18, r28
  3ad890:	2f 5f       	subi	r18, 0xFF	; 255
  3ad892:	3f 4f       	sbci	r19, 0xFF	; 255
  3ad894:	40 e0       	ldi	r20, 0x00	; 0
  3ad896:	50 e0       	ldi	r21, 0x00	; 0
  3ad898:	61 e0       	ldi	r22, 0x01	; 1
  3ad89a:	83 e2       	ldi	r24, 0x23	; 35
  3ad89c:	0e 94 00 00 	call	0	; 0x0 <__tmp_reg__>
  3ad8a0:	0e 94 00 00 	call	0	; 0x0 <__tmp_reg__>
  3ad8a4:	80 e0       	ldi	r24, 0x00	; 0
  3ad8a6:	90 e0       	ldi	r25, 0x00	; 0
  3ad8a8:	0f 90       	pop	r0
  3ad8aa:	0f 90       	pop	r0
  3ad8ac:	df 91       	pop	r29
  3ad8ae:	cf 91       	pop	r28
  3ad8b0:	08 95       	ret

Disassembly of section .text._ZN7WiFiDrv15getCurrentBSSIDEv:

0075b0fe <_ZN7WiFiDrv15getCurrentBSSIDEv>:
  75b0fe:	cf 93       	push	r28
  75b100:	df 93       	push	r29
  75b102:	00 d0       	rcall	.+0      	; 0x75b104 <_ZN7WiFiDrv15getCurrentBSSIDEv+0x6>
  75b104:	cd b7       	in	r28, 0x3d	; 61
  75b106:	de b7       	in	r29, 0x3e	; 62
  75b108:	80 91 00 00 	lds	r24, 0x0000
  75b10c:	81 11       	cpse	r24, r1
  75b10e:	00 c0       	rjmp	.+0      	; 0x75b110 <_ZN7WiFiDrv15getCurrentBSSIDEv+0x12>
  75b110:	0e 94 00 00 	call	0	; 0x0 <__tmp_reg__>
  75b114:	81 e0       	ldi	r24, 0x01	; 1
  75b116:	80 93 00 00 	sts	0x0000, r24
  75b11a:	0e 94 00 00 	call	0	; 0x0 <__tmp_reg__>
  75b11e:	0e 94 00 00 	call	0	; 0x0 <__tmp_reg__>
  75b122:	61 e0       	ldi	r22, 0x01	; 1
  75b124:	84 e2       	ldi	r24, 0x24	; 36
  75b126:	0e 94 00 00 	call	0	; 0x0 <__tmp_reg__>
  75b12a:	8f ef       	ldi	r24, 0xFF	; 255
  75b12c:	8a 83       	std	Y+2, r24	; 0x02
  75b12e:	41 e0       	ldi	r20, 0x01	; 1
  75b130:	61 e0       	ldi	r22, 0x01	; 1
  75b132:	ce 01       	movw	r24, r28
  75b134:	02 96       	adiw	r24, 0x02	; 2
  75b136:	0e 94 00 00 	call	0	; 0x0 <__tmp_reg__>
  75b13a:	0e 94 00 00 	call	0	; 0x0 <__tmp_reg__>
  75b13e:	19 82       	std	Y+1, r1	; 0x01
  75b140:	9e 01       	movw	r18, r28
  75b142:	2f 5f       	subi	r18, 0xFF	; 255
  75b144:	3f 4f       	sbci	r19, 0xFF	; 255
  75b146:	40 e0       	ldi	r20, 0x00	; 0
  75b148:	50 e0       	ldi	r21, 0x00	; 0
  75b14a:	61 e0       	ldi	r22, 0x01	; 1
  75b14c:	84 e2       	ldi	r24, 0x24	; 36
  75b14e:	0e 94 00 00 	call	0	; 0x0 <__tmp_reg__>
  75b152:	0e 94 00 00 	call	0	; 0x0 <__tmp_reg__>
  75b156:	80 e0       	ldi	r24, 0x00	; 0
  75b158:	90 e0       	ldi	r25, 0x00	; 0
  75b15a:	0f 90       	pop	r0
  75b15c:	0f 90       	pop	r0
  75b15e:	df 91       	pop	r29
  75b160:	cf 91       	pop	r28
  75b162:	08 95       	ret

Disassembly of section .text._ZN7WiFiDrv14getCurrentRSSIEv:

00eb6262 <_ZN7WiFiDrv14getCurrentRSSIEv>:
  eb6262:	cf 93       	push	r28
  eb6264:	df 93       	push	r29
  eb6266:	00 d0       	rcall	.+0      	; 0xeb6268 <_ZN7WiFiDrv14getCurrentRSSIEv+0x6>
  eb6268:	00 d0       	rcall	.+0      	; 0xeb626a <_ZN7WiFiDrv14getCurrentRSSIEv+0x8>
  eb626a:	00 d0       	rcall	.+0      	; 0xeb626c <_ZN7WiFiDrv14getCurrentRSSIEv+0xa>
  eb626c:	cd b7       	in	r28, 0x3d	; 61
  eb626e:	de b7       	in	r29, 0x3e	; 62
  eb6270:	80 91 00 00 	lds	r24, 0x0000
  eb6274:	81 11       	cpse	r24, r1
  eb6276:	00 c0       	rjmp	.+0      	; 0xeb6278 <_ZN7WiFiDrv14getCurrentRSSIEv+0x16>
  eb6278:	0e 94 00 00 	call	0	; 0x0 <__tmp_reg__>
  eb627c:	81 e0       	ldi	r24, 0x01	; 1
  eb627e:	80 93 00 00 	sts	0x0000, r24
  eb6282:	0e 94 00 00 	call	0	; 0x0 <__tmp_reg__>
  eb6286:	0e 94 00 00 	call	0	; 0x0 <__tmp_reg__>
  eb628a:	61 e0       	ldi	r22, 0x01	; 1
  eb628c:	85 e2       	ldi	r24, 0x25	; 37
  eb628e:	0e 94 00 00 	call	0	; 0x0 <__tmp_reg__>
  eb6292:	8f ef       	ldi	r24, 0xFF	; 255
  eb6294:	8e 83       	std	Y+6, r24	; 0x06
  eb6296:	41 e0       	ldi	r20, 0x01	; 1
  eb6298:	61 e0       	ldi	r22, 0x01	; 1
  eb629a:	ce 01       	movw	r24, r28
  eb629c:	06 96       	adiw	r24, 0x06	; 6
  eb629e:	0e 94 00 00 	call	0	; 0x0 <__tmp_reg__>
  eb62a2:	0e 94 00 00 	call	0	; 0x0 <__tmp_reg__>
  eb62a6:	1d 82       	std	Y+5, r1	; 0x05
  eb62a8:	19 82       	std	Y+1, r1	; 0x01
  eb62aa:	1a 82       	std	Y+2, r1	; 0x02
  eb62ac:	1b 82       	std	Y+3, r1	; 0x03
  eb62ae:	1c 82       	std	Y+4, r1	; 0x04
  eb62b0:	9e 01       	movw	r18, r28
  eb62b2:	2b 5f       	subi	r18, 0xFB	; 251
  eb62b4:	3f 4f       	sbci	r19, 0xFF	; 255
  eb62b6:	ae 01       	movw	r20, r28
  eb62b8:	4f 5f       	subi	r20, 0xFF	; 255
  eb62ba:	5f 4f       	sbci	r21, 0xFF	; 255
  eb62bc:	61 e0       	ldi	r22, 0x01	; 1
  eb62be:	85 e2       	ldi	r24, 0x25	; 37
  eb62c0:	0e 94 00 00 	call	0	; 0x0 <__tmp_reg__>
  eb62c4:	0e 94 00 00 	call	0	; 0x0 <__tmp_reg__>
  eb62c8:	69 81       	ldd	r22, Y+1	; 0x01
  eb62ca:	7a 81       	ldd	r23, Y+2	; 0x02
  eb62cc:	8b 81       	ldd	r24, Y+3	; 0x03
  eb62ce:	9c 81       	ldd	r25, Y+4	; 0x04
  eb62d0:	26 96       	adiw	r28, 0x06	; 6
  eb62d2:	0f b6       	in	r0, 0x3f	; 63
  eb62d4:	f8 94       	cli
  eb62d6:	de bf       	out	0x3e, r29	; 62
  eb62d8:	0f be       	out	0x3f, r0	; 63
  eb62da:	cd bf       	out	0x3d, r28	; 61
  eb62dc:	df 91       	pop	r29
  eb62de:	cf 91       	pop	r28
  eb62e0:	08 95       	ret

Disassembly of section .text._ZN7WiFiDrv24getCurrentEncryptionTypeEv:

01d6c544 <_ZN7WiFiDrv24getCurrentEncryptionTypeEv>:
 1d6c544:	cf 93       	push	r28
 1d6c546:	df 93       	push	r29
 1d6c548:	00 d0       	rcall	.+0      	; 0x1d6c54a <_ZN7WiFiDrv24getCurrentEncryptionTypeEv+0x6>
 1d6c54a:	1f 92       	push	r1
 1d6c54c:	cd b7       	in	r28, 0x3d	; 61
 1d6c54e:	de b7       	in	r29, 0x3e	; 62
 1d6c550:	80 91 00 00 	lds	r24, 0x0000
 1d6c554:	81 11       	cpse	r24, r1
 1d6c556:	00 c0       	rjmp	.+0      	; 0x1d6c558 <_ZN7WiFiDrv24getCurrentEncryptionTypeEv+0x14>
 1d6c558:	0e 94 00 00 	call	0	; 0x0 <__tmp_reg__>
 1d6c55c:	81 e0       	ldi	r24, 0x01	; 1
 1d6c55e:	80 93 00 00 	sts	0x0000, r24
 1d6c562:	0e 94 00 00 	call	0	; 0x0 <__tmp_reg__>
 1d6c566:	0e 94 00 00 	call	0	; 0x0 <__tmp_reg__>
 1d6c56a:	61 e0       	ldi	r22, 0x01	; 1
 1d6c56c:	86 e2       	ldi	r24, 0x26	; 38
 1d6c56e:	0e 94 00 00 	call	0	; 0x0 <__tmp_reg__>
 1d6c572:	8f ef       	ldi	r24, 0xFF	; 255
 1d6c574:	8b 83       	std	Y+3, r24	; 0x03
 1d6c576:	41 e0       	ldi	r20, 0x01	; 1
 1d6c578:	61 e0       	ldi	r22, 0x01	; 1
 1d6c57a:	ce 01       	movw	r24, r28
 1d6c57c:	03 96       	adiw	r24, 0x03	; 3
 1d6c57e:	0e 94 00 00 	call	0	; 0x0 <__tmp_reg__>
 1d6c582:	0e 94 00 00 	call	0	; 0x0 <__tmp_reg__>
 1d6c586:	1a 82       	std	Y+2, r1	; 0x02
 1d6c588:	19 82       	std	Y+1, r1	; 0x01
 1d6c58a:	9e 01       	movw	r18, r28
 1d6c58c:	2e 5f       	subi	r18, 0xFE	; 254
 1d6c58e:	3f 4f       	sbci	r19, 0xFF	; 255
 1d6c590:	ae 01       	movw	r20, r28
 1d6c592:	4f 5f       	subi	r20, 0xFF	; 255
 1d6c594:	5f 4f       	sbci	r21, 0xFF	; 255
 1d6c596:	61 e0       	ldi	r22, 0x01	; 1
 1d6c598:	86 e2       	ldi	r24, 0x26	; 38
 1d6c59a:	0e 94 00 00 	call	0	; 0x0 <__tmp_reg__>
 1d6c59e:	0e 94 00 00 	call	0	; 0x0 <__tmp_reg__>
 1d6c5a2:	89 81       	ldd	r24, Y+1	; 0x01
 1d6c5a4:	0f 90       	pop	r0
 1d6c5a6:	0f 90       	pop	r0
 1d6c5a8:	0f 90       	pop	r0
 1d6c5aa:	df 91       	pop	r29
 1d6c5ac:	cf 91       	pop	r28
 1d6c5ae:	08 95       	ret

Disassembly of section .text._ZN7WiFiDrv17startScanNetworksEv:

03ad8af4 <_ZN7WiFiDrv17startScanNetworksEv>:
 3ad8af4:	cf 93       	push	r28
 3ad8af6:	df 93       	push	r29
 3ad8af8:	00 d0       	rcall	.+0      	; 0x3ad8afa <_ZN7WiFiDrv17startScanNetworksEv+0x6>
 3ad8afa:	cd b7       	in	r28, 0x3d	; 61
 3ad8afc:	de b7       	in	r29, 0x3e	; 62
 3ad8afe:	80 91 00 00 	lds	r24, 0x0000
 3ad8b02:	81 11       	cpse	r24, r1
 3ad8b04:	00 c0       	rjmp	.+0      	; 0x3ad8b06 <_ZN7WiFiDrv17startScanNetworksEv+0x12>
 3ad8b06:	0e 94 00 00 	call	0	; 0x0 <__tmp_reg__>
 3ad8b0a:	81 e0       	ldi	r24, 0x01	; 1
 3ad8b0c:	80 93 00 00 	sts	0x0000, r24
 3ad8b10:	0e 94 00 00 	call	0	; 0x0 <__tmp_reg__>
 3ad8b14:	0e 94 00 00 	call	0	; 0x0 <__tmp_reg__>
 3ad8b18:	60 e0       	ldi	r22, 0x00	; 0
 3ad8b1a:	86 e3       	ldi	r24, 0x36	; 54
 3ad8b1c:	0e 94 00 00 	call	0	; 0x0 <__tmp_reg__>
 3ad8b20:	0e 94 00 00 	call	0	; 0x0 <__tmp_reg__>
 3ad8b24:	1a 82       	std	Y+2, r1	; 0x02
 3ad8b26:	19 82       	std	Y+1, r1	; 0x01
 3ad8b28:	9e 01       	movw	r18, r28
 3ad8b2a:	2f 5f       	subi	r18, 0xFF	; 255
 3ad8b2c:	3f 4f       	sbci	r19, 0xFF	; 255
 3ad8b2e:	ae 01       	movw	r20, r28
 3ad8b30:	4e 5f       	subi	r20, 0xFE	; 254
 3ad8b32:	5f 4f       	sbci	r21, 0xFF	; 255
 3ad8b34:	61 e0       	ldi	r22, 0x01	; 1
 3ad8b36:	86 e3       	ldi	r24, 0x36	; 54
 3ad8b38:	0e 94 00 00 	call	0	; 0x0 <__tmp_reg__>
 3ad8b3c:	89 2b       	or	r24, r25
 3ad8b3e:	01 f4       	brne	.+0      	; 0x3ad8b40 <_ZN7WiFiDrv17startScanNetworksEv+0x4c>
 3ad8b40:	8f ef       	ldi	r24, 0xFF	; 255
 3ad8b42:	8a 83       	std	Y+2, r24	; 0x02
 3ad8b44:	0e 94 00 00 	call	0	; 0x0 <__tmp_reg__>
 3ad8b48:	81 e0       	ldi	r24, 0x01	; 1
 3ad8b4a:	0f 90       	pop	r0
 3ad8b4c:	0f 90       	pop	r0
 3ad8b4e:	df 91       	pop	r29
 3ad8b50:	cf 91       	pop	r28
 3ad8b52:	08 95       	ret

Disassembly of section .text._ZN7WiFiDrv15getScanNetworksEv:

075b1648 <_ZN7WiFiDrv15getScanNetworksEv>:
 75b1648:	cf 93       	push	r28
 75b164a:	df 93       	push	r29
 75b164c:	1f 92       	push	r1
 75b164e:	cd b7       	in	r28, 0x3d	; 61
 75b1650:	de b7       	in	r29, 0x3e	; 62
 75b1652:	80 91 00 00 	lds	r24, 0x0000
 75b1656:	81 11       	cpse	r24, r1
 75b1658:	00 c0       	rjmp	.+0      	; 0x75b165a <_ZN7WiFiDrv15getScanNetworksEv+0x12>
 75b165a:	0e 94 00 00 	call	0	; 0x0 <__tmp_reg__>
 75b165e:	81 e0       	ldi	r24, 0x01	; 1
 75b1660:	80 93 00 00 	sts	0x0000, r24
 75b1664:	0e 94 00 00 	call	0	; 0x0 <__tmp_reg__>
 75b1668:	0e 94 00 00 	call	0	; 0x0 <__tmp_reg__>
 75b166c:	60 e0       	ldi	r22, 0x00	; 0
 75b166e:	87 e2       	ldi	r24, 0x27	; 39
 75b1670:	0e 94 00 00 	call	0	; 0x0 <__tmp_reg__>
 75b1674:	0e 94 00 00 	call	0	; 0x0 <__tmp_reg__>
 75b1678:	19 82       	std	Y+1, r1	; 0x01
 75b167a:	2a e0       	ldi	r18, 0x0A	; 10
 75b167c:	40 e0       	ldi	r20, 0x00	; 0
 75b167e:	50 e0       	ldi	r21, 0x00	; 0
 75b1680:	be 01       	movw	r22, r28
 75b1682:	6f 5f       	subi	r22, 0xFF	; 255
 75b1684:	7f 4f       	sbci	r23, 0xFF	; 255
 75b1686:	87 e2       	ldi	r24, 0x27	; 39
 75b1688:	0e 94 00 00 	call	0	; 0x0 <__tmp_reg__>
 75b168c:	0e 94 00 00 	call	0	; 0x0 <__tmp_reg__>
 75b1690:	89 81       	ldd	r24, Y+1	; 0x01
 75b1692:	0f 90       	pop	r0
 75b1694:	df 91       	pop	r29
 75b1696:	cf 91       	pop	r28
 75b1698:	08 95       	ret

Disassembly of section .text._ZN7WiFiDrv16getSSIDNetoworksEh:

0eb62ce2 <_ZN7WiFiDrv16getSSIDNetoworksEh>:
 eb62ce2:	8a 30       	cpi	r24, 0x0A	; 10
 eb62ce4:	00 f4       	brcc	.+0      	; 0xeb62ce6 <_ZN7WiFiDrv16getSSIDNetoworksEh+0x4>
 eb62ce6:	20 e2       	ldi	r18, 0x20	; 32
 eb62ce8:	82 9f       	mul	r24, r18
 eb62cea:	c0 01       	movw	r24, r0
 eb62cec:	11 24       	eor	r1, r1
 eb62cee:	80 50       	subi	r24, 0x00	; 0
 eb62cf0:	90 40       	sbci	r25, 0x00	; 0
 eb62cf2:	08 95       	ret
 eb62cf4:	80 e0       	ldi	r24, 0x00	; 0
 eb62cf6:	90 e0       	ldi	r25, 0x00	; 0
 eb62cf8:	08 95       	ret

Disassembly of section .text._ZN7WiFiDrv18getEncTypeNetowrksEh:

1d6c59dc <_ZN7WiFiDrv18getEncTypeNetowrksEh>:
1d6c59dc:	cf 93       	push	r28
1d6c59de:	df 93       	push	r29
1d6c59e0:	00 d0       	rcall	.+0      	; 0x1d6c59e2 <_ZN7WiFiDrv18getEncTypeNetowrksEh+0x6>
1d6c59e2:	1f 92       	push	r1
1d6c59e4:	cd b7       	in	r28, 0x3d	; 61
1d6c59e6:	de b7       	in	r29, 0x3e	; 62
1d6c59e8:	8b 83       	std	Y+3, r24	; 0x03
1d6c59ea:	8a 30       	cpi	r24, 0x0A	; 10
1d6c59ec:	00 f4       	brcc	.+0      	; 0x1d6c59ee <_ZN7WiFiDrv18getEncTypeNetowrksEh+0x12>
1d6c59ee:	80 91 00 00 	lds	r24, 0x0000
1d6c59f2:	81 11       	cpse	r24, r1
1d6c59f4:	00 c0       	rjmp	.+0      	; 0x1d6c59f6 <_ZN7WiFiDrv18getEncTypeNetowrksEh+0x1a>
1d6c59f6:	0e 94 00 00 	call	0	; 0x0 <__tmp_reg__>
1d6c59fa:	81 e0       	ldi	r24, 0x01	; 1
1d6c59fc:	80 93 00 00 	sts	0x0000, r24
1d6c5a00:	0e 94 00 00 	call	0	; 0x0 <__tmp_reg__>
1d6c5a04:	0e 94 00 00 	call	0	; 0x0 <__tmp_reg__>
1d6c5a08:	61 e0       	ldi	r22, 0x01	; 1
1d6c5a0a:	83 e3       	ldi	r24, 0x33	; 51
1d6c5a0c:	0e 94 00 00 	call	0	; 0x0 <__tmp_reg__>
1d6c5a10:	41 e0       	ldi	r20, 0x01	; 1
1d6c5a12:	61 e0       	ldi	r22, 0x01	; 1
1d6c5a14:	ce 01       	movw	r24, r28
1d6c5a16:	03 96       	adiw	r24, 0x03	; 3
1d6c5a18:	0e 94 00 00 	call	0	; 0x0 <__tmp_reg__>
1d6c5a1c:	0e 94 00 00 	call	0	; 0x0 <__tmp_reg__>
1d6c5a20:	1a 82       	std	Y+2, r1	; 0x02
1d6c5a22:	19 82       	std	Y+1, r1	; 0x01
1d6c5a24:	9e 01       	movw	r18, r28
1d6c5a26:	2e 5f       	subi	r18, 0xFE	; 254
1d6c5a28:	3f 4f       	sbci	r19, 0xFF	; 255
1d6c5a2a:	ae 01       	movw	r20, r28
1d6c5a2c:	4f 5f       	subi	r20, 0xFF	; 255
1d6c5a2e:	5f 4f       	sbci	r21, 0xFF	; 255
1d6c5a30:	61 e0       	ldi	r22, 0x01	; 1
1d6c5a32:	83 e3       	ldi	r24, 0x33	; 51
1d6c5a34:	0e 94 00 00 	call	0	; 0x0 <__tmp_reg__>
1d6c5a38:	0e 94 00 00 	call	0	; 0x0 <__tmp_reg__>
1d6c5a3c:	89 81       	ldd	r24, Y+1	; 0x01
1d6c5a3e:	00 c0       	rjmp	.+0      	; 0x1d6c5a40 <_ZN7WiFiDrv18getEncTypeNetowrksEh+0x64>
1d6c5a40:	80 e0       	ldi	r24, 0x00	; 0
1d6c5a42:	0f 90       	pop	r0
1d6c5a44:	0f 90       	pop	r0
1d6c5a46:	0f 90       	pop	r0
1d6c5a48:	df 91       	pop	r29
1d6c5a4a:	cf 91       	pop	r28
1d6c5a4c:	08 95       	ret

Disassembly of section .text._ZN7WiFiDrv16getRSSINetoworksEh:

3ad8b42a <_ZN7WiFiDrv16getRSSINetoworksEh>:
3ad8b42a:	cf 93       	push	r28
3ad8b42c:	df 93       	push	r29
3ad8b42e:	00 d0       	rcall	.+0      	; 0x3ad8b430 <_ZN7WiFiDrv16getRSSINetoworksEh+0x6>
3ad8b430:	00 d0       	rcall	.+0      	; 0x3ad8b432 <_ZN7WiFiDrv16getRSSINetoworksEh+0x8>
3ad8b432:	00 d0       	rcall	.+0      	; 0x3ad8b434 <_ZN7WiFiDrv16getRSSINetoworksEh+0xa>
3ad8b434:	cd b7       	in	r28, 0x3d	; 61
3ad8b436:	de b7       	in	r29, 0x3e	; 62
3ad8b438:	8e 83       	std	Y+6, r24	; 0x06
3ad8b43a:	8a 30       	cpi	r24, 0x0A	; 10
3ad8b43c:	00 f4       	brcc	.+0      	; 0x3ad8b43e <_ZN7WiFiDrv16getRSSINetoworksEh+0x14>
3ad8b43e:	19 82       	std	Y+1, r1	; 0x01
3ad8b440:	1a 82       	std	Y+2, r1	; 0x02
3ad8b442:	1b 82       	std	Y+3, r1	; 0x03
3ad8b444:	1c 82       	std	Y+4, r1	; 0x04
3ad8b446:	80 91 00 00 	lds	r24, 0x0000
3ad8b44a:	81 11       	cpse	r24, r1
3ad8b44c:	00 c0       	rjmp	.+0      	; 0x3ad8b44e <_ZN7WiFiDrv16getRSSINetoworksEh+0x24>
3ad8b44e:	0e 94 00 00 	call	0	; 0x0 <__tmp_reg__>
3ad8b452:	81 e0       	ldi	r24, 0x01	; 1
3ad8b454:	80 93 00 00 	sts	0x0000, r24
3ad8b458:	0e 94 00 00 	call	0	; 0x0 <__tmp_reg__>
3ad8b45c:	0e 94 00 00 	call	0	; 0x0 <__tmp_reg__>
3ad8b460:	61 e0       	ldi	r22, 0x01	; 1
3ad8b462:	82 e3       	ldi	r24, 0x32	; 50
3ad8b464:	0e 94 00 00 	call	0	; 0x0 <__tmp_reg__>
3ad8b468:	41 e0       	ldi	r20, 0x01	; 1
3ad8b46a:	61 e0       	ldi	r22, 0x01	; 1
3ad8b46c:	ce 01       	movw	r24, r28
3ad8b46e:	06 96       	adiw	r24, 0x06	; 6
3ad8b470:	0e 94 00 00 	call	0	; 0x0 <__tmp_reg__>
3ad8b474:	0e 94 00 00 	call	0	; 0x0 <__tmp_reg__>
3ad8b478:	1d 82       	std	Y+5, r1	; 0x05
3ad8b47a:	9e 01       	movw	r18, r28
3ad8b47c:	2b 5f       	subi	r18, 0xFB	; 251
3ad8b47e:	3f 4f       	sbci	r19, 0xFF	; 255
3ad8b480:	ae 01       	movw	r20, r28
3ad8b482:	4f 5f       	subi	r20, 0xFF	; 255
3ad8b484:	5f 4f       	sbci	r21, 0xFF	; 255
3ad8b486:	61 e0       	ldi	r22, 0x01	; 1
3ad8b488:	82 e3       	ldi	r24, 0x32	; 50
3ad8b48a:	0e 94 00 00 	call	0	; 0x0 <__tmp_reg__>
3ad8b48e:	0e 94 00 00 	call	0	; 0x0 <__tmp_reg__>
3ad8b492:	69 81       	ldd	r22, Y+1	; 0x01
3ad8b494:	7a 81       	ldd	r23, Y+2	; 0x02
3ad8b496:	8b 81       	ldd	r24, Y+3	; 0x03
3ad8b498:	9c 81       	ldd	r25, Y+4	; 0x04
3ad8b49a:	00 c0       	rjmp	.+0      	; 0x3ad8b49c <_ZN7WiFiDrv16getRSSINetoworksEh+0x72>
3ad8b49c:	60 e0       	ldi	r22, 0x00	; 0
3ad8b49e:	70 e0       	ldi	r23, 0x00	; 0
3ad8b4a0:	cb 01       	movw	r24, r22
3ad8b4a2:	26 96       	adiw	r28, 0x06	; 6
3ad8b4a4:	0f b6       	in	r0, 0x3f	; 63
3ad8b4a6:	f8 94       	cli
3ad8b4a8:	de bf       	out	0x3e, r29	; 62
3ad8b4aa:	0f be       	out	0x3f, r0	; 63
3ad8b4ac:	cd bf       	out	0x3d, r28	; 61
3ad8b4ae:	df 91       	pop	r29
3ad8b4b0:	cf 91       	pop	r28
3ad8b4b2:	08 95       	ret

Disassembly of section .text._ZN7WiFiDrv13reqHostByNameEPKc:

75b168de <_ZN7WiFiDrv13reqHostByNameEPKc>:
75b168de:	0f 93       	push	r16
75b168e0:	1f 93       	push	r17
75b168e2:	cf 93       	push	r28
75b168e4:	df 93       	push	r29
75b168e6:	00 d0       	rcall	.+0      	; 0x75b168e8 <_ZN7WiFiDrv13reqHostByNameEPKc+0xa>
75b168e8:	1f 92       	push	r1
75b168ea:	cd b7       	in	r28, 0x3d	; 61
75b168ec:	de b7       	in	r29, 0x3e	; 62
75b168ee:	8c 01       	movw	r16, r24
75b168f0:	80 91 00 00 	lds	r24, 0x0000
75b168f4:	81 11       	cpse	r24, r1
75b168f6:	00 c0       	rjmp	.+0      	; 0x75b168f8 <_ZN7WiFiDrv13reqHostByNameEPKc+0x1a>
75b168f8:	0e 94 00 00 	call	0	; 0x0 <__tmp_reg__>
75b168fc:	81 e0       	ldi	r24, 0x01	; 1
75b168fe:	80 93 00 00 	sts	0x0000, r24
75b16902:	0e 94 00 00 	call	0	; 0x0 <__tmp_reg__>
75b16906:	0e 94 00 00 	call	0	; 0x0 <__tmp_reg__>
75b1690a:	61 e0       	ldi	r22, 0x01	; 1
75b1690c:	84 e3       	ldi	r24, 0x34	; 52
75b1690e:	0e 94 00 00 	call	0	; 0x0 <__tmp_reg__>
75b16912:	f8 01       	movw	r30, r16
75b16914:	01 90       	ld	r0, Z+
75b16916:	00 20       	and	r0, r0
75b16918:	01 f4       	brne	.+0      	; 0x75b1691a <_ZN7WiFiDrv13reqHostByNameEPKc+0x3c>
75b1691a:	bf 01       	movw	r22, r30
75b1691c:	61 50       	subi	r22, 0x01	; 1
75b1691e:	71 09       	sbc	r23, r1
75b16920:	60 1b       	sub	r22, r16
75b16922:	71 0b       	sbc	r23, r17
75b16924:	41 e0       	ldi	r20, 0x01	; 1
75b16926:	c8 01       	movw	r24, r16
75b16928:	0e 94 00 00 	call	0	; 0x0 <__tmp_reg__>
75b1692c:	0e 94 00 00 	call	0	; 0x0 <__tmp_reg__>
75b16930:	1a 82       	std	Y+2, r1	; 0x02
75b16932:	19 82       	std	Y+1, r1	; 0x01
75b16934:	9e 01       	movw	r18, r28
75b16936:	2f 5f       	subi	r18, 0xFF	; 255
75b16938:	3f 4f       	sbci	r19, 0xFF	; 255
75b1693a:	ae 01       	movw	r20, r28
75b1693c:	4e 5f       	subi	r20, 0xFE	; 254
75b1693e:	5f 4f       	sbci	r21, 0xFF	; 255
75b16940:	61 e0       	ldi	r22, 0x01	; 1
75b16942:	84 e3       	ldi	r24, 0x34	; 52
75b16944:	0e 94 00 00 	call	0	; 0x0 <__tmp_reg__>
75b16948:	8b 83       	std	Y+3, r24	; 0x03
75b1694a:	0e 94 00 00 	call	0	; 0x0 <__tmp_reg__>
75b1694e:	8b 81       	ldd	r24, Y+3	; 0x03
75b16950:	0f 90       	pop	r0
75b16952:	0f 90       	pop	r0
75b16954:	0f 90       	pop	r0
75b16956:	df 91       	pop	r29
75b16958:	cf 91       	pop	r28
75b1695a:	1f 91       	pop	r17
75b1695c:	0f 91       	pop	r16
75b1695e:	08 95       	ret

Disassembly of section .text._ZN7WiFiDrv13getHostByNameER9IPAddress:

eb62d23e <_ZN7WiFiDrv13getHostByNameER9IPAddress>:
eb62d23e:	ef 92       	push	r14
eb62d240:	ff 92       	push	r15
eb62d242:	0f 93       	push	r16
eb62d244:	1f 93       	push	r17
eb62d246:	cf 93       	push	r28
eb62d248:	df 93       	push	r29
eb62d24a:	cd b7       	in	r28, 0x3d	; 61
eb62d24c:	de b7       	in	r29, 0x3e	; 62
eb62d24e:	2d 97       	sbiw	r28, 0x0d	; 13
eb62d250:	0f b6       	in	r0, 0x3f	; 63
eb62d252:	f8 94       	cli
eb62d254:	de bf       	out	0x3e, r29	; 62
eb62d256:	0f be       	out	0x3f, r0	; 63
eb62d258:	cd bf       	out	0x3d, r28	; 61
eb62d25a:	7c 01       	movw	r14, r24
eb62d25c:	0f ef       	ldi	r16, 0xFF	; 255
eb62d25e:	2f ef       	ldi	r18, 0xFF	; 255
eb62d260:	4f ef       	ldi	r20, 0xFF	; 255
eb62d262:	6f ef       	ldi	r22, 0xFF	; 255
eb62d264:	ce 01       	movw	r24, r28
eb62d266:	01 96       	adiw	r24, 0x01	; 1
eb62d268:	0e 94 00 00 	call	0	; 0x0 <__tmp_reg__>
eb62d26c:	80 91 00 00 	lds	r24, 0x0000
eb62d270:	81 11       	cpse	r24, r1
eb62d272:	00 c0       	rjmp	.+0      	; 0xeb62d274 <_ZN7WiFiDrv13getHostByNameER9IPAddress+0x36>
eb62d274:	0e 94 00 00 	call	0	; 0x0 <__tmp_reg__>
eb62d278:	81 e0       	ldi	r24, 0x01	; 1
eb62d27a:	80 93 00 00 	sts	0x0000, r24
eb62d27e:	0e 94 00 00 	call	0	; 0x0 <__tmp_reg__>
eb62d282:	0e 94 00 00 	call	0	; 0x0 <__tmp_reg__>
eb62d286:	60 e0       	ldi	r22, 0x00	; 0
eb62d288:	85 e3       	ldi	r24, 0x35	; 53
eb62d28a:	0e 94 00 00 	call	0	; 0x0 <__tmp_reg__>
eb62d28e:	0e 94 00 00 	call	0	; 0x0 <__tmp_reg__>
eb62d292:	1b 86       	std	Y+11, r1	; 0x0b
eb62d294:	9e 01       	movw	r18, r28
eb62d296:	25 5f       	subi	r18, 0xF5	; 245
eb62d298:	3f 4f       	sbci	r19, 0xFF	; 255
eb62d29a:	ae 01       	movw	r20, r28
eb62d29c:	49 5f       	subi	r20, 0xF9	; 249
eb62d29e:	5f 4f       	sbci	r21, 0xFF	; 255
eb62d2a0:	61 e0       	ldi	r22, 0x01	; 1
eb62d2a2:	85 e3       	ldi	r24, 0x35	; 53
eb62d2a4:	0e 94 00 00 	call	0	; 0x0 <__tmp_reg__>
eb62d2a8:	89 2b       	or	r24, r25
eb62d2aa:	01 f0       	breq	.+0      	; 0xeb62d2ac <_ZN7WiFiDrv13getHostByNameER9IPAddress+0x6e>
eb62d2ac:	be 01       	movw	r22, r28
eb62d2ae:	69 5f       	subi	r22, 0xF9	; 249
eb62d2b0:	7f 4f       	sbci	r23, 0xFF	; 255
eb62d2b2:	c7 01       	movw	r24, r14
eb62d2b4:	0e 94 00 00 	call	0	; 0x0 <__tmp_reg__>
eb62d2b8:	81 e0       	ldi	r24, 0x01	; 1
eb62d2ba:	90 e0       	ldi	r25, 0x00	; 0
eb62d2bc:	f7 01       	movw	r30, r14
eb62d2be:	02 81       	ldd	r16, Z+2	; 0x02
eb62d2c0:	13 81       	ldd	r17, Z+3	; 0x03
eb62d2c2:	24 81       	ldd	r18, Z+4	; 0x04
eb62d2c4:	35 81       	ldd	r19, Z+5	; 0x05
eb62d2c6:	4b 81       	ldd	r20, Y+3	; 0x03
eb62d2c8:	5c 81       	ldd	r21, Y+4	; 0x04
eb62d2ca:	6d 81       	ldd	r22, Y+5	; 0x05
eb62d2cc:	7e 81       	ldd	r23, Y+6	; 0x06
eb62d2ce:	04 17       	cp	r16, r20
eb62d2d0:	15 07       	cpc	r17, r21
eb62d2d2:	26 07       	cpc	r18, r22
eb62d2d4:	37 07       	cpc	r19, r23
eb62d2d6:	01 f4       	brne	.+0      	; 0xeb62d2d8 <_ZN7WiFiDrv13getHostByNameER9IPAddress+0x9a>
eb62d2d8:	80 e0       	ldi	r24, 0x00	; 0
eb62d2da:	00 c0       	rjmp	.+0      	; 0xeb62d2dc <_ZN7WiFiDrv13getHostByNameER9IPAddress+0x9e>
eb62d2dc:	80 e0       	ldi	r24, 0x00	; 0
eb62d2de:	90 e0       	ldi	r25, 0x00	; 0
eb62d2e0:	8c 87       	std	Y+12, r24	; 0x0c
eb62d2e2:	9d 87       	std	Y+13, r25	; 0x0d
eb62d2e4:	0e 94 00 00 	call	0	; 0x0 <__tmp_reg__>
eb62d2e8:	8c 85       	ldd	r24, Y+12	; 0x0c
eb62d2ea:	9d 85       	ldd	r25, Y+13	; 0x0d
eb62d2ec:	2d 96       	adiw	r28, 0x0d	; 13
eb62d2ee:	0f b6       	in	r0, 0x3f	; 63
eb62d2f0:	f8 94       	cli
eb62d2f2:	de bf       	out	0x3e, r29	; 62
eb62d2f4:	0f be       	out	0x3f, r0	; 63
eb62d2f6:	cd bf       	out	0x3d, r28	; 61
eb62d2f8:	df 91       	pop	r29
eb62d2fa:	cf 91       	pop	r28
eb62d2fc:	1f 91       	pop	r17
eb62d2fe:	0f 91       	pop	r16
eb62d300:	ff 90       	pop	r15
eb62d302:	ef 90       	pop	r14
eb62d304:	08 95       	ret

Disassembly of section .text._ZN7WiFiDrv13getHostByNameEPKcR9IPAddress:

d6c5a544 <_ZN7WiFiDrv13getHostByNameEPKcR9IPAddress>:
d6c5a544:	1f 93       	push	r17
d6c5a546:	cf 93       	push	r28
d6c5a548:	df 93       	push	r29
d6c5a54a:	eb 01       	movw	r28, r22
d6c5a54c:	0e 94 00 00 	call	0	; 0x0 <__tmp_reg__>
d6c5a550:	88 23       	and	r24, r24
d6c5a552:	01 f0       	breq	.+0      	; 0xd6c5a554 <__SREG__+0xd6c5a515>
d6c5a554:	1a e0       	ldi	r17, 0x0A	; 10
d6c5a556:	ce 01       	movw	r24, r28
d6c5a558:	0e 94 00 00 	call	0	; 0x0 <__tmp_reg__>
d6c5a55c:	89 2b       	or	r24, r25
d6c5a55e:	01 f4       	brne	.+0      	; 0xd6c5a560 <__SREG__+0xd6c5a521>
d6c5a560:	11 50       	subi	r17, 0x01	; 1
d6c5a562:	01 f4       	brne	.+0      	; 0xd6c5a564 <__SREG__+0xd6c5a525>
d6c5a564:	00 c0       	rjmp	.+0      	; 0xd6c5a566 <__SREG__+0xd6c5a527>
d6c5a566:	80 e0       	ldi	r24, 0x00	; 0
d6c5a568:	90 e0       	ldi	r25, 0x00	; 0
d6c5a56a:	00 c0       	rjmp	.+0      	; 0xd6c5a56c <__SREG__+0xd6c5a52d>
d6c5a56c:	81 e0       	ldi	r24, 0x01	; 1
d6c5a56e:	90 e0       	ldi	r25, 0x00	; 0
d6c5a570:	11 11       	cpse	r17, r1
d6c5a572:	00 c0       	rjmp	.+0      	; 0xd6c5a574 <__SREG__+0xd6c5a535>
d6c5a574:	80 e0       	ldi	r24, 0x00	; 0
d6c5a576:	00 c0       	rjmp	.+0      	; 0xd6c5a578 <__SREG__+0xd6c5a539>
d6c5a578:	68 ee       	ldi	r22, 0xE8	; 232
d6c5a57a:	73 e0       	ldi	r23, 0x03	; 3
d6c5a57c:	80 e0       	ldi	r24, 0x00	; 0
d6c5a57e:	90 e0       	ldi	r25, 0x00	; 0
d6c5a580:	0e 94 00 00 	call	0	; 0x0 <__tmp_reg__>
d6c5a584:	00 c0       	rjmp	.+0      	; 0xd6c5a586 <__SREG__+0xd6c5a547>
d6c5a586:	df 91       	pop	r29
d6c5a588:	cf 91       	pop	r28
d6c5a58a:	1f 91       	pop	r17
d6c5a58c:	08 95       	ret

Disassembly of section .text._ZN7WiFiDrv12getFwVersionEv:

ad8b4ad2 <_ZN7WiFiDrv12getFwVersionEv>:
ad8b4ad2:	cf 93       	push	r28
ad8b4ad4:	df 93       	push	r29
ad8b4ad6:	1f 92       	push	r1
ad8b4ad8:	cd b7       	in	r28, 0x3d	; 61
ad8b4ada:	de b7       	in	r29, 0x3e	; 62
ad8b4adc:	80 91 00 00 	lds	r24, 0x0000
ad8b4ae0:	81 11       	cpse	r24, r1
ad8b4ae2:	00 c0       	rjmp	.+0      	; 0xad8b4ae4 <__SREG__+0xad8b4aa5>
ad8b4ae4:	0e 94 00 00 	call	0	; 0x0 <__tmp_reg__>
ad8b4ae8:	81 e0       	ldi	r24, 0x01	; 1
ad8b4aea:	80 93 00 00 	sts	0x0000, r24
ad8b4aee:	0e 94 00 00 	call	0	; 0x0 <__tmp_reg__>
ad8b4af2:	0e 94 00 00 	call	0	; 0x0 <__tmp_reg__>
ad8b4af6:	60 e0       	ldi	r22, 0x00	; 0
ad8b4af8:	87 e3       	ldi	r24, 0x37	; 55
ad8b4afa:	0e 94 00 00 	call	0	; 0x0 <__tmp_reg__>
ad8b4afe:	0e 94 00 00 	call	0	; 0x0 <__tmp_reg__>
ad8b4b02:	19 82       	std	Y+1, r1	; 0x01
ad8b4b04:	9e 01       	movw	r18, r28
ad8b4b06:	2f 5f       	subi	r18, 0xFF	; 255
ad8b4b08:	3f 4f       	sbci	r19, 0xFF	; 255
ad8b4b0a:	40 e0       	ldi	r20, 0x00	; 0
ad8b4b0c:	50 e0       	ldi	r21, 0x00	; 0
ad8b4b0e:	61 e0       	ldi	r22, 0x01	; 1
ad8b4b10:	87 e3       	ldi	r24, 0x37	; 55
ad8b4b12:	0e 94 00 00 	call	0	; 0x0 <__tmp_reg__>
ad8b4b16:	0e 94 00 00 	call	0	; 0x0 <__tmp_reg__>
ad8b4b1a:	80 e0       	ldi	r24, 0x00	; 0
ad8b4b1c:	90 e0       	ldi	r25, 0x00	; 0
ad8b4b1e:	0f 90       	pop	r0
ad8b4b20:	df 91       	pop	r29
ad8b4b22:	cf 91       	pop	r28
ad8b4b24:	08 95       	ret

Disassembly of section .text.startup._GLOBAL__sub_I__ZN7WiFiDrv12_networkSsidE:

5b1695f8 <_GLOBAL__sub_I__ZN7WiFiDrv12_networkSsidE>:
5b1695f8:	0f 93       	push	r16
5b1695fa:	00 e0       	ldi	r16, 0x00	; 0
5b1695fc:	20 e0       	ldi	r18, 0x00	; 0
5b1695fe:	40 e0       	ldi	r20, 0x00	; 0
5b169600:	60 e0       	ldi	r22, 0x00	; 0
5b169602:	80 e0       	ldi	r24, 0x00	; 0
5b169604:	90 e0       	ldi	r25, 0x00	; 0
5b169606:	0e 94 00 00 	call	0	; 0x0 <__tmp_reg__>
5b16960a:	0f 91       	pop	r16
5b16960c:	08 95       	ret

WiFi.o:     file format elf32-avr

Sections:
Idx Name          Size      VMA       LMA       File off  Algn
  0 .text         00000000  00000000  00000000  00000034  2**0
                  CONTENTS, ALLOC, LOAD, READONLY, CODE
  1 .data         00000074  00000000  00000000  00000034  2**0
                  CONTENTS, ALLOC, LOAD, DATA
  2 .bss          00000000  00000000  00000000  000000a8  2**0
                  ALLOC
  3 .stab         00001290  00000000  00000000  000000a8  2**2
                  CONTENTS, RELOC, READONLY, DEBUGGING
  4 .stabstr      00002660  00000000  00000000  00001338  2**0
                  CONTENTS, READONLY, DEBUGGING
  5 .text._ZN9WiFiClassC2Ev 00000002  00000000  00000000  00003998  2**0
                  CONTENTS, ALLOC, LOAD, READONLY, CODE
  6 .text._ZN9WiFiClass4initEv 00000004  00000000  00000000  0000399a  2**0
                  CONTENTS, ALLOC, LOAD, RELOC, READONLY, CODE
  7 .text._ZN9WiFiClass9getSocketEv 00000018  00000000  00000000  0000399e  2**0
                  CONTENTS, ALLOC, LOAD, RELOC, READONLY, CODE
  8 .text._ZN9WiFiClass15firmwareVersionEv 00000004  00000000  00000000  000039b6  2**0
                  CONTENTS, ALLOC, LOAD, RELOC, READONLY, CODE
  9 .text._ZN9WiFiClass5beginEPc 00000042  00000000  00000000  000039ba  2**0
                  CONTENTS, ALLOC, LOAD, RELOC, READONLY, CODE
 10 .text._ZN9WiFiClass5beginEPchPKc 00000056  00000000  00000000  000039fc  2**0
                  CONTENTS, ALLOC, LOAD, RELOC, READONLY, CODE
 11 .text._ZN9WiFiClass5beginEPcPKc 00000054  00000000  00000000  00003a52  2**0
                  CONTENTS, ALLOC, LOAD, RELOC, READONLY, CODE
 12 .text._ZN9WiFiClass6configE9IPAddress 00000036  00000000  00000000  00003aa6  2**0
                  CONTENTS, ALLOC, LOAD, RELOC, READONLY, CODE
 13 .text._ZN9WiFiClass6configE9IPAddressS0_ 00000054  00000000  00000000  00003adc  2**0
                  CONTENTS, ALLOC, LOAD, RELOC, READONLY, CODE
 14 .text._ZN9WiFiClass6configE9IPAddressS0_S0_ 00000058  00000000  00000000  00003b30  2**0
                  CONTENTS, ALLOC, LOAD, RELOC, READONLY, CODE
 15 .text._ZN9WiFiClass6configE9IPAddressS0_S0_S0_ 0000005c  00000000  00000000  00003b88  2**0
                  CONTENTS, ALLOC, LOAD, RELOC, READONLY, CODE
 16 .text._ZN9WiFiClass6setDNSE9IPAddress 00000020  00000000  00000000  00003be4  2**0
                  CONTENTS, ALLOC, LOAD, RELOC, READONLY, CODE
 17 .text._ZN9WiFiClass6setDNSE9IPAddressS0_ 00000024  00000000  00000000  00003c04  2**0
                  CONTENTS, ALLOC, LOAD, RELOC, READONLY, CODE
 18 .text._ZN9WiFiClass10disconnectEv 0000000c  00000000  00000000  00003c28  2**0
                  CONTENTS, ALLOC, LOAD, RELOC, READONLY, CODE
 19 .text._ZN9WiFiClass10macAddressEPh 00000020  00000000  00000000  00003c34  2**0
                  CONTENTS, ALLOC, LOAD, RELOC, READONLY, CODE
 20 .text._ZN9WiFiClass7localIPEv 00000018  00000000  00000000  00003c54  2**0
                  CONTENTS, ALLOC, LOAD, RELOC, READONLY, CODE
 21 .text._ZN9WiFiClass10subnetMaskEv 00000018  00000000  00000000  00003c6c  2**0
                  CONTENTS, ALLOC, LOAD, RELOC, READONLY, CODE
 22 .text._ZN9WiFiClass9gatewayIPEv 00000018  00000000  00000000  00003c84  2**0
                  CONTENTS, ALLOC, LOAD, RELOC, READONLY, CODE
 23 .text._ZN9WiFiClass4SSIDEv 00000004  00000000  00000000  00003c9c  2**0
                  CONTENTS, ALLOC, LOAD, RELOC, READONLY, CODE
 24 .text._ZN9WiFiClass5BSSIDEPh 00000020  00000000  00000000  00003ca0  2**0
                  CONTENTS, ALLOC, LOAD, RELOC, READONLY, CODE
 25 .text._ZN9WiFiClass4RSSIEv 00000004  00000000  00000000  00003cc0  2**0
                  CONTENTS, ALLOC, LOAD, RELOC, READONLY, CODE
 26 .text._ZN9WiFiClass14encryptionTypeEv 00000004  00000000  00000000  00003cc4  2**0
                  CONTENTS, ALLOC, LOAD, RELOC, READONLY, CODE
 27 .text._ZN9WiFiClass12scanNetworksEv 0000002c  00000000  00000000  00003cc8  2**0
                  CONTENTS, ALLOC, LOAD, RELOC, READONLY, CODE
 28 .text._ZN9WiFiClass4SSIDEh 00000006  00000000  00000000  00003cf4  2**0
                  CONTENTS, ALLOC, LOAD, RELOC, READONLY, CODE
 29 .text._ZN9WiFiClass4RSSIEh 00000006  00000000  00000000  00003cfa  2**0
                  CONTENTS, ALLOC, LOAD, RELOC, READONLY, CODE
 30 .text._ZN9WiFiClass14encryptionTypeEh 00000006  00000000  00000000  00003d00  2**0
                  CONTENTS, ALLOC, LOAD, RELOC, READONLY, CODE
 31 .text._ZN9WiFiClass6statusEv 00000004  00000000  00000000  00003d06  2**0
                  CONTENTS, ALLOC, LOAD, RELOC, READONLY, CODE
 32 .text._ZN9WiFiClass10hostByNameEPKcR9IPAddress 00000008  00000000  00000000  00003d0a  2**0
                  CONTENTS, ALLOC, LOAD, RELOC, READONLY, CODE
 33 .text.startup._GLOBAL__sub_I__ZN9WiFiClass6_stateE 00000016  00000000  00000000  00003d12  2**0
                  CONTENTS, ALLOC, LOAD, RELOC, READONLY, CODE
 34 .ctors        00000002  00000000  00000000  00003d28  2**1
                  CONTENTS, ALLOC, LOAD, RELOC, READONLY, DATA
 35 .bss.WiFi     00000001  00000000  00000000  00003d2a  2**0
                  ALLOC
 36 .bss._ZN9WiFiClass12_server_portE 00000008  00000000  00000000  00003d2a  2**0
                  ALLOC
 37 .data._ZN9WiFiClass6_stateE 00000008  00000000  00000000  00003d2a  2**0
                  CONTENTS, ALLOC, LOAD, DATA
 38 .bss._ZL11INADDR_NONE 00000006  00000000  00000000  00003d32  2**0
                  ALLOC
 39 .comment      00000012  00000000  00000000  00003d32  2**0
                  CONTENTS, READONLY

Disassembly of section .text._ZN9WiFiClassC2Ev:

00000000 <_ZN9WiFiClassC1Ev>:
int WiFiClass::hostByName(const char* aHostname, IPAddress& aResult)
{
	return WiFiDrv::getHostByName(aHostname, aResult);
}

WiFiClass WiFi;
   0:	08 95       	ret

Disassembly of section .text._ZN9WiFiClass4initEv:

00000000 <_ZN9WiFiClass4initEv>:
  ea:	0c 94       	Address 0x00000000000000ea is out of bounds.
.word	0xffff	; ????
	...

Disassembly of section .text._ZN9WiFiClass9getSocketEv:

000001d8 <_ZN9WiFiClass9getSocketEv>:
 1d8:	e0 e0       	ldi	r30, 0x00	; 0
 1da:	f0 e0       	ldi	r31, 0x00	; 0
 1dc:	80 e0       	ldi	r24, 0x00	; 0
 1de:	21 91       	ld	r18, Z+
 1e0:	31 91       	ld	r19, Z+
 1e2:	23 2b       	or	r18, r19
 1e4:	01 f0       	breq	.+0      	; 0x1e6 <_ZN9WiFiClass9getSocketEv+0xe>
 1e6:	8f 5f       	subi	r24, 0xFF	; 255
 1e8:	84 30       	cpi	r24, 0x04	; 4
 1ea:	01 f4       	brne	.+0      	; 0x1ec <_ZN9WiFiClass9getSocketEv+0x14>
 1ec:	8f ef       	ldi	r24, 0xFF	; 255
 1ee:	08 95       	ret

Disassembly of section .text._ZN9WiFiClass15firmwareVersionEv:

000003c8 <_ZN9WiFiClass15firmwareVersionEv>:
 3c8:	0c 94 00 00 	jmp	0	; 0x0 <__tmp_reg__>

Disassembly of section .text._ZN9WiFiClass5beginEPc:

00000794 <_ZN9WiFiClass5beginEPc>:
 794:	cf 93       	push	r28
 796:	cb 01       	movw	r24, r22
 798:	fb 01       	movw	r30, r22
 79a:	01 90       	ld	r0, Z+
 79c:	00 20       	and	r0, r0
 79e:	01 f4       	brne	.+0      	; 0x7a0 <_ZN9WiFiClass5beginEPc+0xc>
 7a0:	31 97       	sbiw	r30, 0x01	; 1
 7a2:	e6 1b       	sub	r30, r22
 7a4:	f7 0b       	sbc	r31, r23
 7a6:	6e 2f       	mov	r22, r30
 7a8:	0e 94 00 00 	call	0	; 0x0 <__tmp_reg__>
 7ac:	8f 3f       	cpi	r24, 0xFF	; 255
 7ae:	01 f0       	breq	.+0      	; 0x7b0 <_ZN9WiFiClass5beginEPc+0x1c>
 7b0:	ca e0       	ldi	r28, 0x0A	; 10
 7b2:	68 e8       	ldi	r22, 0x88	; 136
 7b4:	73 e1       	ldi	r23, 0x13	; 19
 7b6:	80 e0       	ldi	r24, 0x00	; 0
 7b8:	90 e0       	ldi	r25, 0x00	; 0
 7ba:	0e 94 00 00 	call	0	; 0x0 <__tmp_reg__>
 7be:	0e 94 00 00 	call	0	; 0x0 <__tmp_reg__>
 7c2:	98 2f       	mov	r25, r24
 7c4:	9d 7f       	andi	r25, 0xFD	; 253
 7c6:	01 f4       	brne	.+0      	; 0x7c8 <_ZN9WiFiClass5beginEPc+0x34>
 7c8:	c1 50       	subi	r28, 0x01	; 1
 7ca:	01 f0       	breq	.+0      	; 0x7cc <_ZN9WiFiClass5beginEPc+0x38>
 7cc:	00 c0       	rjmp	.+0      	; 0x7ce <_ZN9WiFiClass5beginEPc+0x3a>
 7ce:	84 e0       	ldi	r24, 0x04	; 4
 7d0:	90 e0       	ldi	r25, 0x00	; 0
 7d2:	cf 91       	pop	r28
 7d4:	08 95       	ret

Disassembly of section .text._ZN9WiFiClass5beginEPchPKc:

00000f6a <_ZN9WiFiClass5beginEPchPKc>:
 f6a:	0f 93       	push	r16
 f6c:	cf 93       	push	r28
 f6e:	cb 01       	movw	r24, r22
 f70:	d9 01       	movw	r26, r18
 f72:	0d 90       	ld	r0, X+
 f74:	00 20       	and	r0, r0
 f76:	01 f4       	brne	.+0      	; 0xf78 <_ZN9WiFiClass5beginEPchPKc+0xe>
 f78:	11 97       	sbiw	r26, 0x01	; 1
 f7a:	a2 1b       	sub	r26, r18
 f7c:	b3 0b       	sbc	r27, r19
 f7e:	fb 01       	movw	r30, r22
 f80:	01 90       	ld	r0, Z+
 f82:	00 20       	and	r0, r0
 f84:	01 f4       	brne	.+0      	; 0xf86 <_ZN9WiFiClass5beginEPchPKc+0x1c>
 f86:	31 97       	sbiw	r30, 0x01	; 1
 f88:	e6 1b       	sub	r30, r22
 f8a:	f7 0b       	sbc	r31, r23
 f8c:	0a 2f       	mov	r16, r26
 f8e:	6e 2f       	mov	r22, r30
 f90:	0e 94 00 00 	call	0	; 0x0 <__tmp_reg__>
 f94:	8f 3f       	cpi	r24, 0xFF	; 255
 f96:	01 f0       	breq	.+0      	; 0xf98 <_ZN9WiFiClass5beginEPchPKc+0x2e>
 f98:	ca e0       	ldi	r28, 0x0A	; 10
 f9a:	68 e8       	ldi	r22, 0x88	; 136
 f9c:	73 e1       	ldi	r23, 0x13	; 19
 f9e:	80 e0       	ldi	r24, 0x00	; 0
 fa0:	90 e0       	ldi	r25, 0x00	; 0
 fa2:	0e 94 00 00 	call	0	; 0x0 <__tmp_reg__>
 fa6:	0e 94 00 00 	call	0	; 0x0 <__tmp_reg__>
 faa:	98 2f       	mov	r25, r24
 fac:	9d 7f       	andi	r25, 0xFD	; 253
 fae:	01 f4       	brne	.+0      	; 0xfb0 <_ZN9WiFiClass5beginEPchPKc+0x46>
 fb0:	c1 50       	subi	r28, 0x01	; 1
 fb2:	01 f0       	breq	.+0      	; 0xfb4 <_ZN9WiFiClass5beginEPchPKc+0x4a>
 fb4:	00 c0       	rjmp	.+0      	; 0xfb6 <_ZN9WiFiClass5beginEPchPKc+0x4c>
 fb6:	84 e0       	ldi	r24, 0x04	; 4
 fb8:	90 e0       	ldi	r25, 0x00	; 0
 fba:	cf 91       	pop	r28
 fbc:	0f 91       	pop	r16
 fbe:	08 95       	ret

Disassembly of section .text._ZN9WiFiClass5beginEPcPKc:

00001f2a <_ZN9WiFiClass5beginEPcPKc>:
    1f2a:	cf 93       	push	r28
    1f2c:	cb 01       	movw	r24, r22
    1f2e:	fa 01       	movw	r30, r20
    1f30:	01 90       	ld	r0, Z+
    1f32:	00 20       	and	r0, r0
    1f34:	01 f4       	brne	.+0      	; 0x1f36 <_ZN9WiFiClass5beginEPcPKc+0xc>
    1f36:	9f 01       	movw	r18, r30
    1f38:	21 50       	subi	r18, 0x01	; 1
    1f3a:	31 09       	sbc	r19, r1
    1f3c:	24 1b       	sub	r18, r20
    1f3e:	35 0b       	sbc	r19, r21
    1f40:	fb 01       	movw	r30, r22
    1f42:	01 90       	ld	r0, Z+
    1f44:	00 20       	and	r0, r0
    1f46:	01 f4       	brne	.+0      	; 0x1f48 <_ZN9WiFiClass5beginEPcPKc+0x1e>
    1f48:	31 97       	sbiw	r30, 0x01	; 1
    1f4a:	e6 1b       	sub	r30, r22
    1f4c:	f7 0b       	sbc	r31, r23
    1f4e:	6e 2f       	mov	r22, r30
    1f50:	0e 94 00 00 	call	0	; 0x0 <__tmp_reg__>
    1f54:	8f 3f       	cpi	r24, 0xFF	; 255
    1f56:	01 f0       	breq	.+0      	; 0x1f58 <_ZN9WiFiClass5beginEPcPKc+0x2e>
    1f58:	ca e0       	ldi	r28, 0x0A	; 10
    1f5a:	68 e8       	ldi	r22, 0x88	; 136
    1f5c:	73 e1       	ldi	r23, 0x13	; 19
    1f5e:	80 e0       	ldi	r24, 0x00	; 0
    1f60:	90 e0       	ldi	r25, 0x00	; 0
    1f62:	0e 94 00 00 	call	0	; 0x0 <__tmp_reg__>
    1f66:	0e 94 00 00 	call	0	; 0x0 <__tmp_reg__>
    1f6a:	98 2f       	mov	r25, r24
    1f6c:	9d 7f       	andi	r25, 0xFD	; 253
    1f6e:	01 f4       	brne	.+0      	; 0x1f70 <_ZN9WiFiClass5beginEPcPKc+0x46>
    1f70:	c1 50       	subi	r28, 0x01	; 1
    1f72:	01 f0       	breq	.+0      	; 0x1f74 <_ZN9WiFiClass5beginEPcPKc+0x4a>
    1f74:	00 c0       	rjmp	.+0      	; 0x1f76 <_ZN9WiFiClass5beginEPcPKc+0x4c>
    1f76:	84 e0       	ldi	r24, 0x04	; 4
    1f78:	90 e0       	ldi	r25, 0x00	; 0
    1f7a:	cf 91       	pop	r28
    1f7c:	08 95       	ret

Disassembly of section .text._ZN9WiFiClass6configE9IPAddress:

00003ea8 <_ZN9WiFiClass6configE9IPAddress>:
    3ea8:	cf 92       	push	r12
    3eaa:	df 92       	push	r13
    3eac:	ef 92       	push	r14
    3eae:	ff 92       	push	r15
    3eb0:	0f 93       	push	r16
    3eb2:	1f 93       	push	r17
    3eb4:	fb 01       	movw	r30, r22
    3eb6:	42 81       	ldd	r20, Z+2	; 0x02
    3eb8:	53 81       	ldd	r21, Z+3	; 0x03
    3eba:	64 81       	ldd	r22, Z+4	; 0x04
    3ebc:	75 81       	ldd	r23, Z+5	; 0x05
    3ebe:	c1 2c       	mov	r12, r1
    3ec0:	d1 2c       	mov	r13, r1
    3ec2:	76 01       	movw	r14, r12
    3ec4:	00 e0       	ldi	r16, 0x00	; 0
    3ec6:	10 e0       	ldi	r17, 0x00	; 0
    3ec8:	98 01       	movw	r18, r16
    3eca:	81 e0       	ldi	r24, 0x01	; 1
    3ecc:	0e 94 00 00 	call	0	; 0x0 <__tmp_reg__>
    3ed0:	1f 91       	pop	r17
    3ed2:	0f 91       	pop	r16
    3ed4:	ff 90       	pop	r15
    3ed6:	ef 90       	pop	r14
    3ed8:	df 90       	pop	r13
    3eda:	cf 90       	pop	r12
    3edc:	08 95       	ret

Disassembly of section .text._ZN9WiFiClass6configE9IPAddressS0_:

00007d86 <_ZN9WiFiClass6configE9IPAddressS0_>:
    7d86:	cf 92       	push	r12
    7d88:	df 92       	push	r13
    7d8a:	ef 92       	push	r14
    7d8c:	ff 92       	push	r15
    7d8e:	0f 93       	push	r16
    7d90:	1f 93       	push	r17
    7d92:	cf 93       	push	r28
    7d94:	df 93       	push	r29
    7d96:	ea 01       	movw	r28, r20
    7d98:	fb 01       	movw	r30, r22
    7d9a:	42 81       	ldd	r20, Z+2	; 0x02
    7d9c:	53 81       	ldd	r21, Z+3	; 0x03
    7d9e:	64 81       	ldd	r22, Z+4	; 0x04
    7da0:	75 81       	ldd	r23, Z+5	; 0x05
    7da2:	c1 2c       	mov	r12, r1
    7da4:	d1 2c       	mov	r13, r1
    7da6:	76 01       	movw	r14, r12
    7da8:	00 e0       	ldi	r16, 0x00	; 0
    7daa:	10 e0       	ldi	r17, 0x00	; 0
    7dac:	98 01       	movw	r18, r16
    7dae:	81 e0       	ldi	r24, 0x01	; 1
    7db0:	0e 94 00 00 	call	0	; 0x0 <__tmp_reg__>
    7db4:	4a 81       	ldd	r20, Y+2	; 0x02
    7db6:	5b 81       	ldd	r21, Y+3	; 0x03
    7db8:	6c 81       	ldd	r22, Y+4	; 0x04
    7dba:	7d 81       	ldd	r23, Y+5	; 0x05
    7dbc:	00 e0       	ldi	r16, 0x00	; 0
    7dbe:	10 e0       	ldi	r17, 0x00	; 0
    7dc0:	98 01       	movw	r18, r16
    7dc2:	81 e0       	ldi	r24, 0x01	; 1
    7dc4:	0e 94 00 00 	call	0	; 0x0 <__tmp_reg__>
    7dc8:	df 91       	pop	r29
    7dca:	cf 91       	pop	r28
    7dcc:	1f 91       	pop	r17
    7dce:	0f 91       	pop	r16
    7dd0:	ff 90       	pop	r15
    7dd2:	ef 90       	pop	r14
    7dd4:	df 90       	pop	r13
    7dd6:	cf 90       	pop	r12
    7dd8:	08 95       	ret

Disassembly of section .text._ZN9WiFiClass6configE9IPAddressS0_S0_:

0000fb60 <_ZN9WiFiClass6configE9IPAddressS0_S0_>:
    fb60:	cf 92       	push	r12
    fb62:	df 92       	push	r13
    fb64:	ef 92       	push	r14
    fb66:	ff 92       	push	r15
    fb68:	0f 93       	push	r16
    fb6a:	1f 93       	push	r17
    fb6c:	cf 93       	push	r28
    fb6e:	df 93       	push	r29
    fb70:	ea 01       	movw	r28, r20
    fb72:	f9 01       	movw	r30, r18
    fb74:	02 81       	ldd	r16, Z+2	; 0x02
    fb76:	13 81       	ldd	r17, Z+3	; 0x03
    fb78:	24 81       	ldd	r18, Z+4	; 0x04
    fb7a:	35 81       	ldd	r19, Z+5	; 0x05
    fb7c:	fb 01       	movw	r30, r22
    fb7e:	42 81       	ldd	r20, Z+2	; 0x02
    fb80:	53 81       	ldd	r21, Z+3	; 0x03
    fb82:	64 81       	ldd	r22, Z+4	; 0x04
    fb84:	75 81       	ldd	r23, Z+5	; 0x05
    fb86:	c1 2c       	mov	r12, r1
    fb88:	d1 2c       	mov	r13, r1
    fb8a:	76 01       	movw	r14, r12
    fb8c:	82 e0       	ldi	r24, 0x02	; 2
    fb8e:	0e 94 00 00 	call	0	; 0x0 <__tmp_reg__>
    fb92:	4a 81       	ldd	r20, Y+2	; 0x02
    fb94:	5b 81       	ldd	r21, Y+3	; 0x03
    fb96:	6c 81       	ldd	r22, Y+4	; 0x04
    fb98:	7d 81       	ldd	r23, Y+5	; 0x05
    fb9a:	00 e0       	ldi	r16, 0x00	; 0
    fb9c:	10 e0       	ldi	r17, 0x00	; 0
    fb9e:	98 01       	movw	r18, r16
    fba0:	81 e0       	ldi	r24, 0x01	; 1
    fba2:	0e 94 00 00 	call	0	; 0x0 <__tmp_reg__>
    fba6:	df 91       	pop	r29
    fba8:	cf 91       	pop	r28
    fbaa:	1f 91       	pop	r17
    fbac:	0f 91       	pop	r16
    fbae:	ff 90       	pop	r15
    fbb0:	ef 90       	pop	r14
    fbb2:	df 90       	pop	r13
    fbb4:	cf 90       	pop	r12
    fbb6:	08 95       	ret

Disassembly of section .text._ZN9WiFiClass6configE9IPAddressS0_S0_S0_:

0001f718 <_ZN9WiFiClass6configE9IPAddressS0_S0_S0_>:
   1f718:	cf 92       	push	r12
   1f71a:	df 92       	push	r13
   1f71c:	ef 92       	push	r14
   1f71e:	ff 92       	push	r15
   1f720:	0f 93       	push	r16
   1f722:	1f 93       	push	r17
   1f724:	cf 93       	push	r28
   1f726:	df 93       	push	r29
   1f728:	ea 01       	movw	r28, r20
   1f72a:	f8 01       	movw	r30, r16
   1f72c:	c2 80       	ldd	r12, Z+2	; 0x02
   1f72e:	d3 80       	ldd	r13, Z+3	; 0x03
   1f730:	e4 80       	ldd	r14, Z+4	; 0x04
   1f732:	f5 80       	ldd	r15, Z+5	; 0x05
   1f734:	f9 01       	movw	r30, r18
   1f736:	02 81       	ldd	r16, Z+2	; 0x02
   1f738:	13 81       	ldd	r17, Z+3	; 0x03
   1f73a:	24 81       	ldd	r18, Z+4	; 0x04
   1f73c:	35 81       	ldd	r19, Z+5	; 0x05
   1f73e:	fb 01       	movw	r30, r22
   1f740:	42 81       	ldd	r20, Z+2	; 0x02
   1f742:	53 81       	ldd	r21, Z+3	; 0x03
   1f744:	64 81       	ldd	r22, Z+4	; 0x04
   1f746:	75 81       	ldd	r23, Z+5	; 0x05
   1f748:	83 e0       	ldi	r24, 0x03	; 3
   1f74a:	0e 94 00 00 	call	0	; 0x0 <__tmp_reg__>
   1f74e:	4a 81       	ldd	r20, Y+2	; 0x02
   1f750:	5b 81       	ldd	r21, Y+3	; 0x03
   1f752:	6c 81       	ldd	r22, Y+4	; 0x04
   1f754:	7d 81       	ldd	r23, Y+5	; 0x05
   1f756:	00 e0       	ldi	r16, 0x00	; 0
   1f758:	10 e0       	ldi	r17, 0x00	; 0
   1f75a:	98 01       	movw	r18, r16
   1f75c:	81 e0       	ldi	r24, 0x01	; 1
   1f75e:	0e 94 00 00 	call	0	; 0x0 <__tmp_reg__>
   1f762:	df 91       	pop	r29
   1f764:	cf 91       	pop	r28
   1f766:	1f 91       	pop	r17
   1f768:	0f 91       	pop	r16
   1f76a:	ff 90       	pop	r15
   1f76c:	ef 90       	pop	r14
   1f76e:	df 90       	pop	r13
   1f770:	cf 90       	pop	r12
   1f772:	08 95       	ret

Disassembly of section .text._ZN9WiFiClass6setDNSE9IPAddress:

0003ee8c <_ZN9WiFiClass6setDNSE9IPAddress>:
   3ee8c:	0f 93       	push	r16
   3ee8e:	1f 93       	push	r17
   3ee90:	fb 01       	movw	r30, r22
   3ee92:	42 81       	ldd	r20, Z+2	; 0x02
   3ee94:	53 81       	ldd	r21, Z+3	; 0x03
   3ee96:	64 81       	ldd	r22, Z+4	; 0x04
   3ee98:	75 81       	ldd	r23, Z+5	; 0x05
   3ee9a:	00 e0       	ldi	r16, 0x00	; 0
   3ee9c:	10 e0       	ldi	r17, 0x00	; 0
   3ee9e:	98 01       	movw	r18, r16
   3eea0:	81 e0       	ldi	r24, 0x01	; 1
   3eea2:	0e 94 00 00 	call	0	; 0x0 <__tmp_reg__>
   3eea6:	1f 91       	pop	r17
   3eea8:	0f 91       	pop	r16
   3eeaa:	08 95       	ret

Disassembly of section .text._ZN9WiFiClass6setDNSE9IPAddressS0_:

0007dd38 <_ZN9WiFiClass6setDNSE9IPAddressS0_>:
   7dd38:	0f 93       	push	r16
   7dd3a:	1f 93       	push	r17
   7dd3c:	fa 01       	movw	r30, r20
   7dd3e:	02 81       	ldd	r16, Z+2	; 0x02
   7dd40:	13 81       	ldd	r17, Z+3	; 0x03
   7dd42:	24 81       	ldd	r18, Z+4	; 0x04
   7dd44:	35 81       	ldd	r19, Z+5	; 0x05
   7dd46:	fb 01       	movw	r30, r22
   7dd48:	42 81       	ldd	r20, Z+2	; 0x02
   7dd4a:	53 81       	ldd	r21, Z+3	; 0x03
   7dd4c:	64 81       	ldd	r22, Z+4	; 0x04
   7dd4e:	75 81       	ldd	r23, Z+5	; 0x05
   7dd50:	82 e0       	ldi	r24, 0x02	; 2
   7dd52:	0e 94 00 00 	call	0	; 0x0 <__tmp_reg__>
   7dd56:	1f 91       	pop	r17
   7dd58:	0f 91       	pop	r16
   7dd5a:	08 95       	ret

Disassembly of section .text._ZN9WiFiClass10disconnectEv:

000fba94 <_ZN9WiFiClass10disconnectEv>:
   fba94:	0e 94 00 00 	call	0	; 0x0 <__tmp_reg__>
   fba98:	99 27       	eor	r25, r25
   fba9a:	87 fd       	sbrc	r24, 7
   fba9c:	90 95       	com	r25
   fba9e:	08 95       	ret

Disassembly of section .text._ZN9WiFiClass10macAddressEPh:

001f7534 <_ZN9WiFiClass10macAddressEPh>:
  1f7534:	cf 93       	push	r28
  1f7536:	df 93       	push	r29
  1f7538:	eb 01       	movw	r28, r22
  1f753a:	0e 94 00 00 	call	0	; 0x0 <__tmp_reg__>
  1f753e:	26 e0       	ldi	r18, 0x06	; 6
  1f7540:	fc 01       	movw	r30, r24
  1f7542:	de 01       	movw	r26, r28
  1f7544:	01 90       	ld	r0, Z+
  1f7546:	0d 92       	st	X+, r0
  1f7548:	2a 95       	dec	r18
  1f754a:	01 f4       	brne	.+0      	; 0x1f754c <_ZN9WiFiClass10macAddressEPh+0x18>
  1f754c:	ce 01       	movw	r24, r28
  1f754e:	df 91       	pop	r29
  1f7550:	cf 91       	pop	r28
  1f7552:	08 95       	ret

Disassembly of section .text._ZN9WiFiClass7localIPEv:

003eea88 <_ZN9WiFiClass7localIPEv>:
  3eea88:	cf 93       	push	r28
  3eea8a:	df 93       	push	r29
  3eea8c:	ec 01       	movw	r28, r24
  3eea8e:	0e 94 00 00 	call	0	; 0x0 <__tmp_reg__>
  3eea92:	ce 01       	movw	r24, r28
  3eea94:	0e 94 00 00 	call	0	; 0x0 <__tmp_reg__>
  3eea98:	ce 01       	movw	r24, r28
  3eea9a:	df 91       	pop	r29
  3eea9c:	cf 91       	pop	r28
  3eea9e:	08 95       	ret

Disassembly of section .text._ZN9WiFiClass10subnetMaskEv:

007dd528 <_ZN9WiFiClass10subnetMaskEv>:
  7dd528:	cf 93       	push	r28
  7dd52a:	df 93       	push	r29
  7dd52c:	ec 01       	movw	r28, r24
  7dd52e:	0e 94 00 00 	call	0	; 0x0 <__tmp_reg__>
  7dd532:	ce 01       	movw	r24, r28
  7dd534:	0e 94 00 00 	call	0	; 0x0 <__tmp_reg__>
  7dd538:	ce 01       	movw	r24, r28
  7dd53a:	df 91       	pop	r29
  7dd53c:	cf 91       	pop	r28
  7dd53e:	08 95       	ret

Disassembly of section .text._ZN9WiFiClass9gatewayIPEv:

00fbaa68 <_ZN9WiFiClass9gatewayIPEv>:
  fbaa68:	cf 93       	push	r28
  fbaa6a:	df 93       	push	r29
  fbaa6c:	ec 01       	movw	r28, r24
  fbaa6e:	0e 94 00 00 	call	0	; 0x0 <__tmp_reg__>
  fbaa72:	ce 01       	movw	r24, r28
  fbaa74:	0e 94 00 00 	call	0	; 0x0 <__tmp_reg__>
  fbaa78:	ce 01       	movw	r24, r28
  fbaa7a:	df 91       	pop	r29
  fbaa7c:	cf 91       	pop	r28
  fbaa7e:	08 95       	ret

Disassembly of section .text._ZN9WiFiClass4SSIDEv:

01f754e8 <_ZN9WiFiClass4SSIDEv>:
 1f754e8:	0c 94 00 00 	jmp	0	; 0x0 <__tmp_reg__>

Disassembly of section .text._ZN9WiFiClass5BSSIDEPh:

03eea9d4 <_ZN9WiFiClass5BSSIDEPh>:
 3eea9d4:	cf 93       	push	r28
 3eea9d6:	df 93       	push	r29
 3eea9d8:	eb 01       	movw	r28, r22
 3eea9da:	0e 94 00 00 	call	0	; 0x0 <__tmp_reg__>
 3eea9de:	26 e0       	ldi	r18, 0x06	; 6
 3eea9e0:	fc 01       	movw	r30, r24
 3eea9e2:	de 01       	movw	r26, r28
 3eea9e4:	01 90       	ld	r0, Z+
 3eea9e6:	0d 92       	st	X+, r0
 3eea9e8:	2a 95       	dec	r18
 3eea9ea:	01 f4       	brne	.+0      	; 0x3eea9ec <_ZN9WiFiClass5BSSIDEPh+0x18>
 3eea9ec:	ce 01       	movw	r24, r28
 3eea9ee:	df 91       	pop	r29
 3eea9f0:	cf 91       	pop	r28
 3eea9f2:	08 95       	ret

Disassembly of section .text._ZN9WiFiClass4RSSIEv:

07dd53c8 <_ZN9WiFiClass4RSSIEv>:
 7dd53c8:	0c 94 00 00 	jmp	0	; 0x0 <__tmp_reg__>

Disassembly of section .text._ZN9WiFiClass14encryptionTypeEv:

0fbaa794 <_ZN9WiFiClass14encryptionTypeEv>:
 fbaa794:	0c 94 00 00 	jmp	0	; 0x0 <__tmp_reg__>

Disassembly of section .text._ZN9WiFiClass12scanNetworksEv:

1f754f2c <_ZN9WiFiClass12scanNetworksEv>:
1f754f2c:	cf 93       	push	r28
1f754f2e:	0e 94 00 00 	call	0	; 0x0 <__tmp_reg__>
1f754f32:	8f 3f       	cpi	r24, 0xFF	; 255
1f754f34:	01 f0       	breq	.+0      	; 0x1f754f36 <_ZN9WiFiClass12scanNetworksEv+0xa>
1f754f36:	ca e0       	ldi	r28, 0x0A	; 10
1f754f38:	60 ed       	ldi	r22, 0xD0	; 208
1f754f3a:	77 e0       	ldi	r23, 0x07	; 7
1f754f3c:	80 e0       	ldi	r24, 0x00	; 0
1f754f3e:	90 e0       	ldi	r25, 0x00	; 0
1f754f40:	0e 94 00 00 	call	0	; 0x0 <__tmp_reg__>
1f754f44:	0e 94 00 00 	call	0	; 0x0 <__tmp_reg__>
1f754f48:	81 11       	cpse	r24, r1
1f754f4a:	00 c0       	rjmp	.+0      	; 0x1f754f4c <_ZN9WiFiClass12scanNetworksEv+0x20>
1f754f4c:	c1 50       	subi	r28, 0x01	; 1
1f754f4e:	01 f0       	breq	.+0      	; 0x1f754f50 <_ZN9WiFiClass12scanNetworksEv+0x24>
1f754f50:	00 c0       	rjmp	.+0      	; 0x1f754f52 <_ZN9WiFiClass12scanNetworksEv+0x26>
1f754f52:	8f ef       	ldi	r24, 0xFF	; 255
1f754f54:	cf 91       	pop	r28
1f754f56:	08 95       	ret

Disassembly of section .text._ZN9WiFiClass4SSIDEh:

3eea9e84 <_ZN9WiFiClass4SSIDEh>:
3eea9e84:	86 2f       	mov	r24, r22
3eea9e86:	0c 94 00 00 	jmp	0	; 0x0 <__tmp_reg__>

Disassembly of section .text._ZN9WiFiClass4RSSIEh:

7dd53d0e <_ZN9WiFiClass4RSSIEh>:
7dd53d0e:	86 2f       	mov	r24, r22
7dd53d10:	0c 94 00 00 	jmp	0	; 0x0 <__tmp_reg__>

Disassembly of section .text._ZN9WiFiClass14encryptionTypeEh:

fbaa7a22 <_ZN9WiFiClass14encryptionTypeEh>:
fbaa7a22:	86 2f       	mov	r24, r22
fbaa7a24:	0c 94 00 00 	jmp	0	; 0x0 <__tmp_reg__>

Disassembly of section .text._ZN9WiFiClass6statusEv:

f754f44a <_ZN9WiFiClass6statusEv>:
f754f44a:	0c 94 00 00 	jmp	0	; 0x0 <__tmp_reg__>

Disassembly of section .text._ZN9WiFiClass10hostByNameEPKcR9IPAddress:

eea9e898 <_ZN9WiFiClass10hostByNameEPKcR9IPAddress>:
eea9e898:	cb 01       	movw	r24, r22
eea9e89a:	ba 01       	movw	r22, r20
eea9e89c:	0c 94 00 00 	jmp	0	; 0x0 <__tmp_reg__>

Disassembly of section .text.startup._GLOBAL__sub_I__ZN9WiFiClass6_stateE:

dd53d138 <_GLOBAL__sub_I__ZN9WiFiClass6_stateE>:
dd53d138:	0f 93       	push	r16
dd53d13a:	00 e0       	ldi	r16, 0x00	; 0
dd53d13c:	20 e0       	ldi	r18, 0x00	; 0
dd53d13e:	40 e0       	ldi	r20, 0x00	; 0
dd53d140:	60 e0       	ldi	r22, 0x00	; 0
dd53d142:	80 e0       	ldi	r24, 0x00	; 0
dd53d144:	90 e0       	ldi	r25, 0x00	; 0
dd53d146:	0e 94 00 00 	call	0	; 0x0 <__tmp_reg__>
dd53d14a:	0f 91       	pop	r16
dd53d14c:	08 95       	ret

WiFiClient.o:     file format elf32-avr

Sections:
Idx Name          Size      VMA       LMA       File off  Algn
  0 .group        00000008  00000000  00000000  00000034  2**2
                  CONTENTS, READONLY, EXCLUDE, GROUP, LINK_ONCE_DISCARD
  1 .group        00000008  00000000  00000000  0000003c  2**2
                  CONTENTS, READONLY, EXCLUDE, GROUP, LINK_ONCE_DISCARD
  2 .group        00000008  00000000  00000000  00000044  2**2
                  CONTENTS, READONLY, EXCLUDE, GROUP, LINK_ONCE_DISCARD
  3 .text         00000000  00000000  00000000  0000004c  2**0
                  CONTENTS, ALLOC, LOAD, READONLY, CODE
  4 .data         00000044  00000000  00000000  0000004c  2**0
                  CONTENTS, ALLOC, LOAD, DATA
  5 .bss          00000000  00000000  00000000  00000090  2**0
                  ALLOC
  6 .stab         00001110  00000000  00000000  00000090  2**2
                  CONTENTS, RELOC, READONLY, DEBUGGING
  7 .stabstr      000024f8  00000000  00000000  000011a0  2**0
                  CONTENTS, READONLY, DEBUGGING
  8 .text._ZN10WiFiClient5writeEh 0000002c  00000000  00000000  00003698  2**0
                  CONTENTS, ALLOC, LOAD, READONLY, CODE
  9 .text._ZN10WiFiClient5flushEv 00000002  00000000  00000000  000036c4  2**0
                  CONTENTS, ALLOC, LOAD, READONLY, CODE
 10 .text._ZN10WiFiClientcvbEv 00000010  00000000  00000000  000036c6  2**0
                  CONTENTS, ALLOC, LOAD, RELOC, READONLY, CODE
 11 .text._ZN10WiFiClient7connectEPKcj 00000094  00000000  00000000  000036d6  2**0
                  CONTENTS, ALLOC, LOAD, RELOC, READONLY, CODE
 12 .text._ZN10WiFiClient9availableEv 00000012  00000000  00000000  0000376a  2**0
                  CONTENTS, ALLOC, LOAD, RELOC, READONLY, CODE
 13 .text._ZN10WiFiClient4readEv 00000048  00000000  00000000  0000377c  2**0
                  CONTENTS, ALLOC, LOAD, RELOC, READONLY, CODE
 14 .text._ZN10WiFiClient4peekEv 00000048  00000000  00000000  000037c4  2**0
                  CONTENTS, ALLOC, LOAD, RELOC, READONLY, CODE
 15 .text._ZN10WiFiClient4readEPhj 00000034  00000000  00000000  0000380c  2**0
                  CONTENTS, ALLOC, LOAD, RELOC, READONLY, CODE
 16 .text._ZN10WiFiClient5writeEPKhj 00000044  00000000  00000000  00003840  2**0
                  CONTENTS, ALLOC, LOAD, RELOC, READONLY, CODE
 17 .text._ZN10WiFiClientC2Ev 00000024  00000000  00000000  00003884  2**0
                  CONTENTS, ALLOC, LOAD, RELOC, READONLY, CODE
 18 .text._ZN10WiFiClientC2Eh 00000024  00000000  00000000  000038a8  2**0
                  CONTENTS, ALLOC, LOAD, RELOC, READONLY, CODE
 19 .text._ZN10WiFiClient6statusEv 00000010  00000000  00000000  000038cc  2**0
                  CONTENTS, ALLOC, LOAD, RELOC, READONLY, CODE
 20 .text._ZN10WiFiClient4stopEv 0000005e  00000000  00000000  000038dc  2**0
                  CONTENTS, ALLOC, LOAD, RELOC, READONLY, CODE
 21 .text._ZN10WiFiClient9connectedEv 00000028  00000000  00000000  0000393a  2**0
                  CONTENTS, ALLOC, LOAD, RELOC, READONLY, CODE
 22 .text._ZN10WiFiClient14getFirstSocketEv 0000001e  00000000  00000000  00003962  2**0
                  CONTENTS, ALLOC, LOAD, RELOC, READONLY, CODE
 23 .rodata.str1.1 00000014  00000000  00000000  00003980  2**0
                  CONTENTS, ALLOC, LOAD, READONLY, DATA
 24 .text._ZN10WiFiClient7connectE9IPAddressj 000000e4  00000000  00000000  00003994  2**0
                  CONTENTS, ALLOC, LOAD, RELOC, READONLY, CODE
 25 .text.startup._GLOBAL__sub_I__ZN10WiFiClient8_srcportE 00000016  00000000  00000000  00003a78  2**0
                  CONTENTS, ALLOC, LOAD, RELOC, READONLY, CODE
 26 .ctors        00000002  00000000  00000000  00003a8e  2**1
                  CONTENTS, ALLOC, LOAD, RELOC, READONLY, DATA
 27 .rodata._ZTV6Stream 00000010  00000000  00000000  00003a90  2**0
                  CONTENTS, ALLOC, LOAD, RELOC, READONLY, DATA
 28 .rodata._ZTV6Client 0000001c  00000000  00000000  00003aa0  2**0
                  CONTENTS, ALLOC, LOAD, RELOC, READONLY, DATA
 29 .rodata._ZTV10WiFiClient 0000001c  00000000  00000000  00003abc  2**0
                  CONTENTS, ALLOC, LOAD, RELOC, READONLY, DATA
 30 .data._ZN10WiFiClient8_srcportE 00000002  00000000  00000000  00003ad8  2**0
                  CONTENTS, ALLOC, LOAD, DATA
 31 .bss._ZL11INADDR_NONE 00000006  00000000  00000000  00003ada  2**0
                  ALLOC
 32 .comment      00000012  00000000  00000000  00003ada  2**0
                  CONTENTS, READONLY

Disassembly of section .text._ZN10WiFiClient5writeEh:

00000000 <_ZN10WiFiClient5writeEh>:
      {
          return i;
      }
    }
    return SOCK_NOT_AVAIL;
}
   0:	cf 93       	push	r28
  46:	df 93       	Address 0x0000000000000046 is out of bounds.
.word	0xffff	; ????
  48:	1f 92       	Address 0x0000000000000048 is out of bounds.
.word	0xffff	; ????
  4a:	cd b7       	Address 0x000000000000004a is out of bounds.
.word	0xffff	; ????
  4c:	de b7       	Address 0x000000000000004c is out of bounds.
.word	0xffff	; ????
  4e:	69 83       	Address 0x000000000000004e is out of bounds.
.word	0xffff	; ????
  50:	dc 01       	Address 0x0000000000000050 is out of bounds.
.word	0xffff	; ????
  52:	ed 91       	Address 0x0000000000000052 is out of bounds.
.word	0xffff	; ????
  54:	fc 91       	Address 0x0000000000000054 is out of bounds.
.word	0xffff	; ????
  56:	02 80       	Address 0x0000000000000056 is out of bounds.
.word	0xffff	; ????
  58:	f3 81       	Address 0x0000000000000058 is out of bounds.
.word	0xffff	; ????
  5a:	e0 2d       	Address 0x000000000000005a is out of bounds.
.word	0xffff	; ????
  5c:	41 e0       	Address 0x000000000000005c is out of bounds.
.word	0xffff	; ????
  5e:	50 e0       	Address 0x000000000000005e is out of bounds.
.word	0xffff	; ????
  60:	be 01       	Address 0x0000000000000060 is out of bounds.
.word	0xffff	; ????
  62:	6f 5f       	Address 0x0000000000000062 is out of bounds.
.word	0xffff	; ????
  64:	7f 4f       	Address 0x0000000000000064 is out of bounds.
.word	0xffff	; ????
  66:	09 95       	Address 0x0000000000000066 is out of bounds.
.word	0xffff	; ????
  68:	0f 90       	Address 0x0000000000000068 is out of bounds.
.word	0xffff	; ????
  6a:	df 91       	Address 0x000000000000006a is out of bounds.
.word	0xffff	; ????
  6c:	cf 91       	Address 0x000000000000006c is out of bounds.
.word	0xffff	; ????
  6e:	08 95       	Address 0x000000000000006e is out of bounds.
.word	0xffff	; ????

Disassembly of section .text._ZN10WiFiClient5flushEv:

000000b4 <_ZN10WiFiClient5flushEv>:
  b4:	08 95       	ret

Disassembly of section .text._ZN10WiFiClientcvbEv:

0000016a <_ZN10WiFiClientcvbEv>:
 16a:	21 e0       	ldi	r18, 0x01	; 1
 16c:	fc 01       	movw	r30, r24
 16e:	84 85       	ldd	r24, Z+12	; 0x0c
 170:	8f 3f       	cpi	r24, 0xFF	; 255
 172:	01 f4       	brne	.+0      	; 0x174 <_ZN10WiFiClientcvbEv+0xa>
 174:	20 e0       	ldi	r18, 0x00	; 0
 176:	82 2f       	mov	r24, r18
 178:	08 95       	ret

Disassembly of section .text._ZN10WiFiClient7connectEPKcj:

000002e4 <_ZN10WiFiClient7connectEPKcj>:
 2e4:	cf 92       	push	r12
 2e6:	df 92       	push	r13
 2e8:	ef 92       	push	r14
 2ea:	ff 92       	push	r15
 2ec:	0f 93       	push	r16
 2ee:	1f 93       	push	r17
 2f0:	cf 93       	push	r28
 2f2:	df 93       	push	r29
 2f4:	cd b7       	in	r28, 0x3d	; 61
 2f6:	de b7       	in	r29, 0x3e	; 62
 2f8:	2e 97       	sbiw	r28, 0x0e	; 14
 2fa:	0f b6       	in	r0, 0x3f	; 63
 2fc:	f8 94       	cli
 2fe:	de bf       	out	0x3e, r29	; 62
 300:	0f be       	out	0x3f, r0	; 63
 302:	cd bf       	out	0x3d, r28	; 61
 304:	7c 01       	movw	r14, r24
 306:	6a 01       	movw	r12, r20
 308:	ce 01       	movw	r24, r28
 30a:	07 96       	adiw	r24, 0x07	; 7
 30c:	6d 87       	std	Y+13, r22	; 0x0d
 30e:	7e 87       	std	Y+14, r23	; 0x0e
 310:	0e 94 00 00 	call	0	; 0x0 <__tmp_reg__>
 314:	ae 01       	movw	r20, r28
 316:	49 5f       	subi	r20, 0xF9	; 249
 318:	5f 4f       	sbci	r21, 0xFF	; 255
 31a:	6d 85       	ldd	r22, Y+13	; 0x0d
 31c:	7e 85       	ldd	r23, Y+14	; 0x0e
 31e:	80 e0       	ldi	r24, 0x00	; 0
 320:	90 e0       	ldi	r25, 0x00	; 0
 322:	0e 94 00 00 	call	0	; 0x0 <__tmp_reg__>
 326:	00 97       	sbiw	r24, 0x00	; 0
 328:	01 f0       	breq	.+0      	; 0x32a <_ZN10WiFiClient7connectEPKcj+0x46>
 32a:	d7 01       	movw	r26, r14
 32c:	ed 91       	ld	r30, X+
 32e:	fc 91       	ld	r31, X
 330:	04 84       	ldd	r0, Z+12	; 0x0c
 332:	f5 85       	ldd	r31, Z+13	; 0x0d
 334:	e0 2d       	mov	r30, r0
 336:	80 e0       	ldi	r24, 0x00	; 0
 338:	90 e0       	ldi	r25, 0x00	; 0
 33a:	9a 83       	std	Y+2, r25	; 0x02
 33c:	89 83       	std	Y+1, r24	; 0x01
 33e:	09 85       	ldd	r16, Y+9	; 0x09
 340:	1a 85       	ldd	r17, Y+10	; 0x0a
 342:	2b 85       	ldd	r18, Y+11	; 0x0b
 344:	3c 85       	ldd	r19, Y+12	; 0x0c
 346:	0b 83       	std	Y+3, r16	; 0x03
 348:	1c 83       	std	Y+4, r17	; 0x04
 34a:	2d 83       	std	Y+5, r18	; 0x05
 34c:	3e 83       	std	Y+6, r19	; 0x06
 34e:	a6 01       	movw	r20, r12
 350:	be 01       	movw	r22, r28
 352:	6f 5f       	subi	r22, 0xFF	; 255
 354:	7f 4f       	sbci	r23, 0xFF	; 255
 356:	c7 01       	movw	r24, r14
 358:	09 95       	icall
 35a:	2e 96       	adiw	r28, 0x0e	; 14
 35c:	0f b6       	in	r0, 0x3f	; 63
 35e:	f8 94       	cli
 360:	de bf       	out	0x3e, r29	; 62
 362:	0f be       	out	0x3f, r0	; 63
 364:	cd bf       	out	0x3d, r28	; 61
 366:	df 91       	pop	r29
 368:	cf 91       	pop	r28
 36a:	1f 91       	pop	r17
 36c:	0f 91       	pop	r16
 36e:	ff 90       	pop	r15
 370:	ef 90       	pop	r14
 372:	df 90       	pop	r13
 374:	cf 90       	pop	r12
 376:	08 95       	ret

Disassembly of section .text._ZN10WiFiClient9availableEv:

0000065c <_ZN10WiFiClient9availableEv>:
 65c:	fc 01       	movw	r30, r24
 65e:	84 85       	ldd	r24, Z+12	; 0x0c
 660:	8f 3f       	cpi	r24, 0xFF	; 255
 662:	01 f0       	breq	.+0      	; 0x664 <_ZN10WiFiClient9availableEv+0x8>
 664:	0c 94 00 00 	jmp	0	; 0x0 <__tmp_reg__>
 668:	80 e0       	ldi	r24, 0x00	; 0
 66a:	90 e0       	ldi	r25, 0x00	; 0
 66c:	08 95       	ret

Disassembly of section .text._ZN10WiFiClient4readEv:

00000cca <_ZN10WiFiClient4readEv>:
 cca:	0f 93       	push	r16
 ccc:	1f 93       	push	r17
 cce:	cf 93       	push	r28
 cd0:	df 93       	push	r29
 cd2:	1f 92       	push	r1
 cd4:	cd b7       	in	r28, 0x3d	; 61
 cd6:	de b7       	in	r29, 0x3e	; 62
 cd8:	8c 01       	movw	r16, r24
 cda:	dc 01       	movw	r26, r24
 cdc:	ed 91       	ld	r30, X+
 cde:	fc 91       	ld	r31, X
 ce0:	04 80       	ldd	r0, Z+4	; 0x04
 ce2:	f5 81       	ldd	r31, Z+5	; 0x05
 ce4:	e0 2d       	mov	r30, r0
 ce6:	09 95       	icall
 ce8:	89 2b       	or	r24, r25
 cea:	01 f0       	breq	.+0      	; 0xcec <_ZN10WiFiClient4readEv+0x22>
 cec:	40 e0       	ldi	r20, 0x00	; 0
 cee:	be 01       	movw	r22, r28
 cf0:	6f 5f       	subi	r22, 0xFF	; 255
 cf2:	7f 4f       	sbci	r23, 0xFF	; 255
 cf4:	f8 01       	movw	r30, r16
 cf6:	84 85       	ldd	r24, Z+12	; 0x0c
 cf8:	0e 94 00 00 	call	0	; 0x0 <__tmp_reg__>
 cfc:	89 81       	ldd	r24, Y+1	; 0x01
 cfe:	90 e0       	ldi	r25, 0x00	; 0
 d00:	00 c0       	rjmp	.+0      	; 0xd02 <_ZN10WiFiClient4readEv+0x38>
 d02:	8f ef       	ldi	r24, 0xFF	; 255
 d04:	9f ef       	ldi	r25, 0xFF	; 255
 d06:	0f 90       	pop	r0
 d08:	df 91       	pop	r29
 d0a:	cf 91       	pop	r28
 d0c:	1f 91       	pop	r17
 d0e:	0f 91       	pop	r16
 d10:	08 95       	ret

Disassembly of section .text._ZN10WiFiClient4peekEv:

000019dc <_ZN10WiFiClient4peekEv>:
    19dc:	0f 93       	push	r16
    19de:	1f 93       	push	r17
    19e0:	cf 93       	push	r28
    19e2:	df 93       	push	r29
    19e4:	1f 92       	push	r1
    19e6:	cd b7       	in	r28, 0x3d	; 61
    19e8:	de b7       	in	r29, 0x3e	; 62
    19ea:	8c 01       	movw	r16, r24
    19ec:	dc 01       	movw	r26, r24
    19ee:	ed 91       	ld	r30, X+
    19f0:	fc 91       	ld	r31, X
    19f2:	04 80       	ldd	r0, Z+4	; 0x04
    19f4:	f5 81       	ldd	r31, Z+5	; 0x05
    19f6:	e0 2d       	mov	r30, r0
    19f8:	09 95       	icall
    19fa:	89 2b       	or	r24, r25
    19fc:	01 f0       	breq	.+0      	; 0x19fe <_ZN10WiFiClient4peekEv+0x22>
    19fe:	41 e0       	ldi	r20, 0x01	; 1
    1a00:	be 01       	movw	r22, r28
    1a02:	6f 5f       	subi	r22, 0xFF	; 255
    1a04:	7f 4f       	sbci	r23, 0xFF	; 255
    1a06:	f8 01       	movw	r30, r16
    1a08:	84 85       	ldd	r24, Z+12	; 0x0c
    1a0a:	0e 94 00 00 	call	0	; 0x0 <__tmp_reg__>
    1a0e:	89 81       	ldd	r24, Y+1	; 0x01
    1a10:	90 e0       	ldi	r25, 0x00	; 0
    1a12:	00 c0       	rjmp	.+0      	; 0x1a14 <_ZN10WiFiClient4peekEv+0x38>
    1a14:	8f ef       	ldi	r24, 0xFF	; 255
    1a16:	9f ef       	ldi	r25, 0xFF	; 255
    1a18:	0f 90       	pop	r0
    1a1a:	df 91       	pop	r29
    1a1c:	cf 91       	pop	r28
    1a1e:	1f 91       	pop	r17
    1a20:	0f 91       	pop	r16
    1a22:	08 95       	ret

Disassembly of section .text._ZN10WiFiClient4readEPhj:

00003400 <_ZN10WiFiClient4readEPhj>:
    3400:	cf 93       	push	r28
    3402:	df 93       	push	r29
    3404:	00 d0       	rcall	.+0      	; 0x3406 <_ZN10WiFiClient4readEPhj+0x6>
    3406:	cd b7       	in	r28, 0x3d	; 61
    3408:	de b7       	in	r29, 0x3e	; 62
    340a:	5a 83       	std	Y+2, r21	; 0x02
    340c:	49 83       	std	Y+1, r20	; 0x01
    340e:	ae 01       	movw	r20, r28
    3410:	4f 5f       	subi	r20, 0xFF	; 255
    3412:	5f 4f       	sbci	r21, 0xFF	; 255
    3414:	fc 01       	movw	r30, r24
    3416:	84 85       	ldd	r24, Z+12	; 0x0c
    3418:	0e 94 00 00 	call	0	; 0x0 <__tmp_reg__>
    341c:	91 e0       	ldi	r25, 0x01	; 1
    341e:	98 27       	eor	r25, r24
    3420:	89 2f       	mov	r24, r25
    3422:	90 e0       	ldi	r25, 0x00	; 0
    3424:	91 95       	neg	r25
    3426:	81 95       	neg	r24
    3428:	91 09       	sbc	r25, r1
    342a:	0f 90       	pop	r0
    342c:	0f 90       	pop	r0
    342e:	df 91       	pop	r29
    3430:	cf 91       	pop	r28
    3432:	08 95       	ret

Disassembly of section .text._ZN10WiFiClient5writeEPKhj:

00006834 <_ZN10WiFiClient5writeEPKhj>:
    6834:	0f 93       	push	r16
    6836:	1f 93       	push	r17
    6838:	cf 93       	push	r28
    683a:	df 93       	push	r29
    683c:	ec 01       	movw	r28, r24
    683e:	8a 01       	movw	r16, r20
    6840:	8c 85       	ldd	r24, Y+12	; 0x0c
    6842:	84 30       	cpi	r24, 0x04	; 4
    6844:	00 f4       	brcc	.+0      	; 0x6846 <_ZN10WiFiClient5writeEPKhj+0x12>
    6846:	41 15       	cp	r20, r1
    6848:	51 05       	cpc	r21, r1
    684a:	01 f0       	breq	.+0      	; 0x684c <_ZN10WiFiClient5writeEPKhj+0x18>
    684c:	0e 94 00 00 	call	0	; 0x0 <__tmp_reg__>
    6850:	88 23       	and	r24, r24
    6852:	01 f0       	breq	.+0      	; 0x6854 <_ZN10WiFiClient5writeEPKhj+0x20>
    6854:	8c 85       	ldd	r24, Y+12	; 0x0c
    6856:	0e 94 00 00 	call	0	; 0x0 <__tmp_reg__>
    685a:	81 11       	cpse	r24, r1
    685c:	00 c0       	rjmp	.+0      	; 0x685e <_ZN10WiFiClient5writeEPKhj+0x2a>
    685e:	81 e0       	ldi	r24, 0x01	; 1
    6860:	90 e0       	ldi	r25, 0x00	; 0
    6862:	9b 83       	std	Y+3, r25	; 0x03
    6864:	8a 83       	std	Y+2, r24	; 0x02
    6866:	80 e0       	ldi	r24, 0x00	; 0
    6868:	90 e0       	ldi	r25, 0x00	; 0
    686a:	00 c0       	rjmp	.+0      	; 0x686c <_ZN10WiFiClient5writeEPKhj+0x38>
    686c:	c8 01       	movw	r24, r16
    686e:	df 91       	pop	r29
    6870:	cf 91       	pop	r28
    6872:	1f 91       	pop	r17
    6874:	0f 91       	pop	r16
    6876:	08 95       	ret

Disassembly of section .text._ZN10WiFiClientC2Ev:

0000d0ac <_ZN10WiFiClientC1Ev>:
    d0ac:	fc 01       	movw	r30, r24
    d0ae:	13 82       	std	Z+3, r1	; 0x03
    d0b0:	12 82       	std	Z+2, r1	; 0x02
    d0b2:	48 ee       	ldi	r20, 0xE8	; 232
    d0b4:	53 e0       	ldi	r21, 0x03	; 3
    d0b6:	60 e0       	ldi	r22, 0x00	; 0
    d0b8:	70 e0       	ldi	r23, 0x00	; 0
    d0ba:	44 83       	std	Z+4, r20	; 0x04
    d0bc:	55 83       	std	Z+5, r21	; 0x05
    d0be:	66 83       	std	Z+6, r22	; 0x06
    d0c0:	77 83       	std	Z+7, r23	; 0x07
    d0c2:	80 e0       	ldi	r24, 0x00	; 0
    d0c4:	90 e0       	ldi	r25, 0x00	; 0
    d0c6:	91 83       	std	Z+1, r25	; 0x01
    d0c8:	80 83       	st	Z, r24
    d0ca:	84 e0       	ldi	r24, 0x04	; 4
    d0cc:	84 87       	std	Z+12, r24	; 0x0c
    d0ce:	08 95       	ret

Disassembly of section .text._ZN10WiFiClientC2Eh:

0001a17c <_ZN10WiFiClientC1Eh>:
   1a17c:	fc 01       	movw	r30, r24
   1a17e:	26 2f       	mov	r18, r22
   1a180:	13 82       	std	Z+3, r1	; 0x03
   1a182:	12 82       	std	Z+2, r1	; 0x02
   1a184:	48 ee       	ldi	r20, 0xE8	; 232
   1a186:	53 e0       	ldi	r21, 0x03	; 3
   1a188:	60 e0       	ldi	r22, 0x00	; 0
   1a18a:	70 e0       	ldi	r23, 0x00	; 0
   1a18c:	44 83       	std	Z+4, r20	; 0x04
   1a18e:	55 83       	std	Z+5, r21	; 0x05
   1a190:	66 83       	std	Z+6, r22	; 0x06
   1a192:	77 83       	std	Z+7, r23	; 0x07
   1a194:	80 e0       	ldi	r24, 0x00	; 0
   1a196:	90 e0       	ldi	r25, 0x00	; 0
   1a198:	91 83       	std	Z+1, r25	; 0x01
   1a19a:	80 83       	st	Z, r24
   1a19c:	24 87       	std	Z+12, r18	; 0x0c
   1a19e:	08 95       	ret

Disassembly of section .text._ZN10WiFiClient6statusEv:

0003431c <_ZN10WiFiClient6statusEv>:
   3431c:	fc 01       	movw	r30, r24
   3431e:	84 85       	ldd	r24, Z+12	; 0x0c
   34320:	8f 3f       	cpi	r24, 0xFF	; 255
   34322:	01 f0       	breq	.+0      	; 0x34324 <_ZN10WiFiClient6statusEv+0x8>
   34324:	0c 94 00 00 	jmp	0	; 0x0 <__tmp_reg__>
   34328:	80 e0       	ldi	r24, 0x00	; 0
   3432a:	08 95       	ret

Disassembly of section .text._ZN10WiFiClient4stopEv:

00068648 <_ZN10WiFiClient4stopEv>:
   68648:	0f 93       	push	r16
   6864a:	1f 93       	push	r17
   6864c:	cf 93       	push	r28
   6864e:	df 93       	push	r29
   68650:	ec 01       	movw	r28, r24
   68652:	8c 85       	ldd	r24, Y+12	; 0x0c
   68654:	8f 3f       	cpi	r24, 0xFF	; 255
   68656:	01 f0       	breq	.+0      	; 0x68658 <_ZN10WiFiClient4stopEv+0x10>
   68658:	0e 94 00 00 	call	0	; 0x0 <__tmp_reg__>
   6865c:	ec 85       	ldd	r30, Y+12	; 0x0c
   6865e:	f0 e0       	ldi	r31, 0x00	; 0
   68660:	ee 0f       	add	r30, r30
   68662:	ff 1f       	adc	r31, r31
   68664:	e0 50       	subi	r30, 0x00	; 0
   68666:	f0 40       	sbci	r31, 0x00	; 0
   68668:	8f ef       	ldi	r24, 0xFF	; 255
   6866a:	9f ef       	ldi	r25, 0xFF	; 255
   6866c:	91 83       	std	Z+1, r25	; 0x01
   6866e:	80 83       	st	Z, r24
   68670:	02 e3       	ldi	r16, 0x32	; 50
   68672:	10 e0       	ldi	r17, 0x00	; 0
   68674:	ce 01       	movw	r24, r28
   68676:	0e 94 00 00 	call	0	; 0x0 <__tmp_reg__>
   6867a:	88 23       	and	r24, r24
   6867c:	01 f0       	breq	.+0      	; 0x6867e <_ZN10WiFiClient4stopEv+0x36>
   6867e:	01 50       	subi	r16, 0x01	; 1
   68680:	11 09       	sbc	r17, r1
   68682:	01 15       	cp	r16, r1
   68684:	11 05       	cpc	r17, r1
   68686:	01 f4       	brne	.+0      	; 0x68688 <_ZN10WiFiClient4stopEv+0x40>
   68688:	8f ef       	ldi	r24, 0xFF	; 255
   6868a:	8c 87       	std	Y+12, r24	; 0x0c
   6868c:	00 c0       	rjmp	.+0      	; 0x6868e <_ZN10WiFiClient4stopEv+0x46>
   6868e:	64 e6       	ldi	r22, 0x64	; 100
   68690:	70 e0       	ldi	r23, 0x00	; 0
   68692:	80 e0       	ldi	r24, 0x00	; 0
   68694:	90 e0       	ldi	r25, 0x00	; 0
   68696:	0e 94 00 00 	call	0	; 0x0 <__tmp_reg__>
   6869a:	00 c0       	rjmp	.+0      	; 0x6869c <_ZN10WiFiClient4stopEv+0x54>
   6869c:	df 91       	pop	r29
   6869e:	cf 91       	pop	r28
   686a0:	1f 91       	pop	r17
   686a2:	0f 91       	pop	r16
   686a4:	08 95       	ret

Disassembly of section .text._ZN10WiFiClient9connectedEv:

000d0cee <_ZN10WiFiClient9connectedEv>:
   d0cee:	fc 01       	movw	r30, r24
   d0cf0:	24 85       	ldd	r18, Z+12	; 0x0c
   d0cf2:	2f 3f       	cpi	r18, 0xFF	; 255
   d0cf4:	01 f0       	breq	.+0      	; 0xd0cf6 <_ZN10WiFiClient9connectedEv+0x8>
   d0cf6:	0e 94 00 00 	call	0	; 0x0 <__tmp_reg__>
   d0cfa:	84 30       	cpi	r24, 0x04	; 4
   d0cfc:	00 f0       	brcs	.+0      	; 0xd0cfe <_ZN10WiFiClient9connectedEv+0x10>
   d0cfe:	9b ef       	ldi	r25, 0xFB	; 251
   d0d00:	98 0f       	add	r25, r24
   d0d02:	93 30       	cpi	r25, 0x03	; 3
   d0d04:	00 f0       	brcs	.+0      	; 0xd0d06 <_ZN10WiFiClient9connectedEv+0x18>
   d0d06:	91 e0       	ldi	r25, 0x01	; 1
   d0d08:	8a 30       	cpi	r24, 0x0A	; 10
   d0d0a:	01 f4       	brne	.+0      	; 0xd0d0c <_ZN10WiFiClient9connectedEv+0x1e>
   d0d0c:	90 e0       	ldi	r25, 0x00	; 0
   d0d0e:	89 2f       	mov	r24, r25
   d0d10:	08 95       	ret
   d0d12:	80 e0       	ldi	r24, 0x00	; 0
   d0d14:	08 95       	ret

Disassembly of section .text._ZN10WiFiClient14getFirstSocketEv:

001a1a04 <_ZN10WiFiClient14getFirstSocketEv>:
  1a1a04:	e0 e0       	ldi	r30, 0x00	; 0
  1a1a06:	f0 e0       	ldi	r31, 0x00	; 0
  1a1a08:	80 e0       	ldi	r24, 0x00	; 0
  1a1a0a:	90 e0       	ldi	r25, 0x00	; 0
  1a1a0c:	21 91       	ld	r18, Z+
  1a1a0e:	31 91       	ld	r19, Z+
  1a1a10:	2f 3f       	cpi	r18, 0xFF	; 255
  1a1a12:	3f 4f       	sbci	r19, 0xFF	; 255
  1a1a14:	01 f0       	breq	.+0      	; 0x1a1a16 <_ZN10WiFiClient14getFirstSocketEv+0x12>
  1a1a16:	01 96       	adiw	r24, 0x01	; 1
  1a1a18:	84 30       	cpi	r24, 0x04	; 4
  1a1a1a:	91 05       	cpc	r25, r1
  1a1a1c:	01 f4       	brne	.+0      	; 0x1a1a1e <_ZN10WiFiClient14getFirstSocketEv+0x1a>
  1a1a1e:	8f ef       	ldi	r24, 0xFF	; 255
  1a1a20:	08 95       	ret

Disassembly of section .text._ZN10WiFiClient7connectE9IPAddressj:

00686860 <_ZN10WiFiClient7connectE9IPAddressj>:
  686860:	af 92       	push	r10
  686862:	bf 92       	push	r11
  686864:	cf 92       	push	r12
  686866:	df 92       	push	r13
  686868:	ef 92       	push	r14
  68686a:	ff 92       	push	r15
  68686c:	0f 93       	push	r16
  68686e:	cf 93       	push	r28
  686870:	df 93       	push	r29
  686872:	00 d0       	rcall	.+0      	; 0x686874 <_ZN10WiFiClient7connectE9IPAddressj+0x14>
  686874:	cd b7       	in	r28, 0x3d	; 61
  686876:	de b7       	in	r29, 0x3e	; 62
  686878:	5c 01       	movw	r10, r24
  68687a:	7b 01       	movw	r14, r22
  68687c:	49 83       	std	Y+1, r20	; 0x01
  68687e:	5a 83       	std	Y+2, r21	; 0x02
  686880:	0e 94 00 00 	call	0	; 0x0 <__tmp_reg__>
  686884:	28 2f       	mov	r18, r24
  686886:	d5 01       	movw	r26, r10
  686888:	1c 96       	adiw	r26, 0x0c	; 12
  68688a:	8c 93       	st	X, r24
  68688c:	49 81       	ldd	r20, Y+1	; 0x01
  68688e:	5a 81       	ldd	r21, Y+2	; 0x02
  686890:	8f 3f       	cpi	r24, 0xFF	; 255
  686892:	01 f0       	breq	.+0      	; 0x686894 <_ZN10WiFiClient7connectE9IPAddressj+0x34>
  686894:	f7 01       	movw	r30, r14
  686896:	62 81       	ldd	r22, Z+2	; 0x02
  686898:	73 81       	ldd	r23, Z+3	; 0x03
  68689a:	84 81       	ldd	r24, Z+4	; 0x04
  68689c:	95 81       	ldd	r25, Z+5	; 0x05
  68689e:	00 e0       	ldi	r16, 0x00	; 0
  6868a0:	0e 94 00 00 	call	0	; 0x0 <__tmp_reg__>
  6868a4:	d5 01       	movw	r26, r10
  6868a6:	1c 96       	adiw	r26, 0x0c	; 12
  6868a8:	8c 91       	ld	r24, X
  6868aa:	90 e0       	ldi	r25, 0x00	; 0
  6868ac:	fc 01       	movw	r30, r24
  6868ae:	ee 0f       	add	r30, r30
  6868b0:	ff 1f       	adc	r31, r31
  6868b2:	e0 50       	subi	r30, 0x00	; 0
  6868b4:	f0 40       	sbci	r31, 0x00	; 0
  6868b6:	91 83       	std	Z+1, r25	; 0x01
  6868b8:	80 83       	st	Z, r24
  6868ba:	0e 94 00 00 	call	0	; 0x0 <__tmp_reg__>
  6868be:	6b 01       	movw	r12, r22
  6868c0:	7c 01       	movw	r14, r24
  6868c2:	d5 01       	movw	r26, r10
  6868c4:	ed 91       	ld	r30, X+
  6868c6:	fc 91       	ld	r31, X
  6868c8:	04 88       	ldd	r0, Z+20	; 0x14
  6868ca:	f5 89       	ldd	r31, Z+21	; 0x15
  6868cc:	e0 2d       	mov	r30, r0
  6868ce:	c5 01       	movw	r24, r10
  6868d0:	09 95       	icall
  6868d2:	81 11       	cpse	r24, r1
  6868d4:	00 c0       	rjmp	.+0      	; 0x6868d6 <_ZN10WiFiClient7connectE9IPAddressj+0x76>
  6868d6:	0e 94 00 00 	call	0	; 0x0 <__tmp_reg__>
  6868da:	6c 19       	sub	r22, r12
  6868dc:	7d 09       	sbc	r23, r13
  6868de:	8e 09       	sbc	r24, r14
  6868e0:	9f 09       	sbc	r25, r15
  6868e2:	60 31       	cpi	r22, 0x10	; 16
  6868e4:	77 42       	sbci	r23, 0x27	; 39
  6868e6:	81 05       	cpc	r24, r1
  6868e8:	91 05       	cpc	r25, r1
  6868ea:	00 f0       	brcs	.+0      	; 0x6868ec <_ZN10WiFiClient7connectE9IPAddressj+0x8c>
  6868ec:	00 c0       	rjmp	.+0      	; 0x6868ee <_ZN10WiFiClient7connectE9IPAddressj+0x8e>
  6868ee:	60 e0       	ldi	r22, 0x00	; 0
  6868f0:	70 e0       	ldi	r23, 0x00	; 0
  6868f2:	80 e0       	ldi	r24, 0x00	; 0
  6868f4:	90 e0       	ldi	r25, 0x00	; 0
  6868f6:	0e 94 00 00 	call	0	; 0x0 <__tmp_reg__>
  6868fa:	80 e0       	ldi	r24, 0x00	; 0
  6868fc:	90 e0       	ldi	r25, 0x00	; 0
  6868fe:	00 c0       	rjmp	.+0      	; 0x686900 <_ZN10WiFiClient7connectE9IPAddressj+0xa0>
  686900:	d5 01       	movw	r26, r10
  686902:	ed 91       	ld	r30, X+
  686904:	fc 91       	ld	r31, X
  686906:	04 88       	ldd	r0, Z+20	; 0x14
  686908:	f5 89       	ldd	r31, Z+21	; 0x15
  68690a:	e0 2d       	mov	r30, r0
  68690c:	c5 01       	movw	r24, r10
  68690e:	09 95       	icall
  686910:	21 e0       	ldi	r18, 0x01	; 1
  686912:	90 e0       	ldi	r25, 0x00	; 0
  686914:	81 11       	cpse	r24, r1
  686916:	00 c0       	rjmp	.+0      	; 0x686918 <_ZN10WiFiClient7connectE9IPAddressj+0xb8>
  686918:	20 e0       	ldi	r18, 0x00	; 0
  68691a:	82 2f       	mov	r24, r18
  68691c:	00 c0       	rjmp	.+0      	; 0x68691e <_ZN10WiFiClient7connectE9IPAddressj+0xbe>
  68691e:	61 e0       	ldi	r22, 0x01	; 1
  686920:	70 e0       	ldi	r23, 0x00	; 0
  686922:	80 e0       	ldi	r24, 0x00	; 0
  686924:	90 e0       	ldi	r25, 0x00	; 0
  686926:	0e 94 00 00 	call	0	; 0x0 <__tmp_reg__>
  68692a:	00 c0       	rjmp	.+0      	; 0x68692c <_ZN10WiFiClient7connectE9IPAddressj+0xcc>
  68692c:	0f 90       	pop	r0
  68692e:	0f 90       	pop	r0
  686930:	df 91       	pop	r29
  686932:	cf 91       	pop	r28
  686934:	0f 91       	pop	r16
  686936:	ff 90       	pop	r15
  686938:	ef 90       	pop	r14
  68693a:	df 90       	pop	r13
  68693c:	cf 90       	pop	r12
  68693e:	bf 90       	pop	r11
  686940:	af 90       	pop	r10
  686942:	08 95       	ret

Disassembly of section .text.startup._GLOBAL__sub_I__ZN10WiFiClient8_srcportE:

00d0d1a4 <_GLOBAL__sub_I__ZN10WiFiClient8_srcportE>:
  d0d1a4:	0f 93       	push	r16
  d0d1a6:	00 e0       	ldi	r16, 0x00	; 0
  d0d1a8:	20 e0       	ldi	r18, 0x00	; 0
  d0d1aa:	40 e0       	ldi	r20, 0x00	; 0
  d0d1ac:	60 e0       	ldi	r22, 0x00	; 0
  d0d1ae:	80 e0       	ldi	r24, 0x00	; 0
  d0d1b0:	90 e0       	ldi	r25, 0x00	; 0
  d0d1b2:	0e 94 00 00 	call	0	; 0x0 <__tmp_reg__>
  d0d1b6:	0f 91       	pop	r16
  d0d1b8:	08 95       	ret

WiFiServer.o:     file format elf32-avr

Sections:
Idx Name          Size      VMA       LMA       File off  Algn
  0 .group        00000008  00000000  00000000  00000034  2**2
                  CONTENTS, READONLY, EXCLUDE, GROUP, LINK_ONCE_DISCARD
  1 .group        00000008  00000000  00000000  0000003c  2**2
                  CONTENTS, READONLY, EXCLUDE, GROUP, LINK_ONCE_DISCARD
  2 .group        00000008  00000000  00000000  00000044  2**2
                  CONTENTS, READONLY, EXCLUDE, GROUP, LINK_ONCE_DISCARD
  3 .group        00000008  00000000  00000000  0000004c  2**2
                  CONTENTS, READONLY, EXCLUDE, GROUP, LINK_ONCE_DISCARD
  4 .text         00000000  00000000  00000000  00000054  2**0
                  CONTENTS, ALLOC, LOAD, READONLY, CODE
  5 .data         0000001c  00000000  00000000  00000054  2**0
                  CONTENTS, ALLOC, LOAD, DATA
  6 .bss          00000000  00000000  00000000  00000070  2**0
                  ALLOC
  7 .stab         00000d98  00000000  00000000  00000070  2**2
                  CONTENTS, RELOC, READONLY, DEBUGGING
  8 .stabstr      000021ae  00000000  00000000  00000e08  2**0
                  CONTENTS, READONLY, DEBUGGING
  9 .text._ZN10WiFiServer5writeEh 0000002c  00000000  00000000  00002fb6  2**0
                  CONTENTS, ALLOC, LOAD, READONLY, CODE
 10 .text._ZN10WiFiServer5beginEv 00000048  00000000  00000000  00002fe2  2**0
                  CONTENTS, ALLOC, LOAD, RELOC, READONLY, CODE
 11 .text._ZN10WiFiServer5writeEPKhj 000000b4  00000000  00000000  0000302a  2**0
                  CONTENTS, ALLOC, LOAD, RELOC, READONLY, CODE
 12 .text._ZN10WiFiServerC2Ej 00000014  00000000  00000000  000030de  2**0
                  CONTENTS, ALLOC, LOAD, RELOC, READONLY, CODE
 13 .text._ZN10WiFiServer9availableEPh 0000012a  00000000  00000000  000030f2  2**0
                  CONTENTS, ALLOC, LOAD, RELOC, READONLY, CODE
 14 .text._ZN10WiFiServer6statusEv 00000006  00000000  00000000  0000321c  2**0
                  CONTENTS, ALLOC, LOAD, RELOC, READONLY, CODE
 15 .text.startup._GLOBAL__sub_I__ZN10WiFiServerC2Ej 00000016  00000000  00000000  00003222  2**0
                  CONTENTS, ALLOC, LOAD, RELOC, READONLY, CODE
 16 .ctors        00000002  00000000  00000000  00003238  2**1
                  CONTENTS, ALLOC, LOAD, RELOC, READONLY, DATA
 17 .bss._ZZN10WiFiServer9availableEPhE17cycle_server_down 00000002  00000000  00000000  0000323a  2**0
                  ALLOC
 18 .rodata._ZTV6Stream 00000010  00000000  00000000  0000323a  2**0
                  CONTENTS, ALLOC, LOAD, RELOC, READONLY, DATA
 19 .rodata._ZTV6Client 0000001c  00000000  00000000  0000324a  2**0
                  CONTENTS, ALLOC, LOAD, RELOC, READONLY, DATA
 20 .rodata._ZTV6Server 0000000a  00000000  00000000  00003266  2**0
                  CONTENTS, ALLOC, LOAD, RELOC, READONLY, DATA
 21 .rodata._ZTV10WiFiServer 0000000a  00000000  00000000  00003270  2**0
                  CONTENTS, ALLOC, LOAD, RELOC, READONLY, DATA
 22 .bss._ZL11INADDR_NONE 00000006  00000000  00000000  0000327a  2**0
                  ALLOC
 23 .comment      00000012  00000000  00000000  0000327a  2**0
                  CONTENTS, READONLY

Disassembly of section .text._ZN10WiFiServer5writeEh:

00000000 <_ZN10WiFiServer5writeEh>:
                n+=client.write(buffer, size);
            }
        }
    }
    return n;
}
   0:	cf 93       	push	r28
  1e:	df 93       	subi	r22, 0xFF	; 255
  20:	1f 92       	sbci	r23, 0xFF	; 255
  22:	cd b7       	icall
  24:	de b7       	pop	r0
  26:	69 83       	pop	r29
  28:	dc 01       	pop	r28
  2a:	ed 91       	ret
  2c:	fc 91       	Address 0x000000000000002c is out of bounds.
.word	0xffff	; ????
  2e:	02 80       	Address 0x000000000000002e is out of bounds.
.word	0xffff	; ????
  30:	f3 81       	Address 0x0000000000000030 is out of bounds.
.word	0xffff	; ????
  32:	e0 2d       	Address 0x0000000000000032 is out of bounds.
.word	0xffff	; ????
  34:	41 e0       	Address 0x0000000000000034 is out of bounds.
.word	0xffff	; ????
  36:	50 e0       	Address 0x0000000000000036 is out of bounds.
.word	0xffff	; ????
  38:	be 01       	Address 0x0000000000000038 is out of bounds.
.word	0xffff	; ????
  3a:	6f 5f       	Address 0x000000000000003a is out of bounds.
.word	0xffff	; ????
  3c:	7f 4f       	Address 0x000000000000003c is out of bounds.
.word	0xffff	; ????
  3e:	09 95       	Address 0x000000000000003e is out of bounds.
.word	0xffff	; ????
  40:	0f 90       	Address 0x0000000000000040 is out of bounds.
.word	0xffff	; ????
  42:	df 91       	Address 0x0000000000000042 is out of bounds.
.word	0xffff	; ????
  44:	cf 91       	Address 0x0000000000000044 is out of bounds.
.word	0xffff	; ????
  46:	08 95       	Address 0x0000000000000046 is out of bounds.
.word	0xffff	; ????

Disassembly of section .text._ZN10WiFiServer5beginEv:

00000064 <_ZN10WiFiServer5beginEv>:
  64:	1f 93       	push	r17
  66:	cf 93       	push	r28
  68:	df 93       	push	r29
  6a:	ec 01       	movw	r28, r24
  6c:	0e 94 00 00 	call	0	; 0x0 <_ZZN10WiFiServer9availableEPhE17cycle_server_down>
  70:	18 2f       	mov	r17, r24
  72:	8f 3f       	cpi	r24, 0xFF	; 255
  74:	01 f0       	breq	.+0      	; 0x76 <_ZN10WiFiServer5beginEv+0x12>
  76:	40 e0       	ldi	r20, 0x00	; 0
  78:	68 2f       	mov	r22, r24
  7a:	8c 81       	ldd	r24, Y+4	; 0x04
  7c:	9d 81       	ldd	r25, Y+5	; 0x05
  7e:	0e 94 00 00 	call	0	; 0x0 <_ZZN10WiFiServer9availableEPhE17cycle_server_down>
  82:	81 2f       	mov	r24, r17
  84:	90 e0       	ldi	r25, 0x00	; 0
  86:	4c 81       	ldd	r20, Y+4	; 0x04
  88:	5d 81       	ldd	r21, Y+5	; 0x05
  8a:	9c 01       	movw	r18, r24
  8c:	22 0f       	add	r18, r18
  8e:	33 1f       	adc	r19, r19
  90:	f9 01       	movw	r30, r18
  92:	e0 50       	subi	r30, 0x00	; 0
  94:	f0 40       	sbci	r31, 0x00	; 0
  96:	51 83       	std	Z+1, r21	; 0x01
  98:	40 83       	st	Z, r20
  9a:	f9 01       	movw	r30, r18
  9c:	e0 50       	subi	r30, 0x00	; 0
  9e:	f0 40       	sbci	r31, 0x00	; 0
  a0:	91 83       	std	Z+1, r25	; 0x01
  a2:	80 83       	st	Z, r24
  a4:	df 91       	pop	r29
  a6:	cf 91       	pop	r28
  a8:	1f 91       	pop	r17
  aa:	08 95       	ret

Disassembly of section .text._ZN10WiFiServer5writeEPKhj:

00000110 <_ZN10WiFiServer5writeEPKhj>:
 110:	7f 92       	push	r7
 112:	8f 92       	push	r8
 114:	9f 92       	push	r9
 116:	af 92       	push	r10
 118:	bf 92       	push	r11
 11a:	cf 92       	push	r12
 11c:	df 92       	push	r13
 11e:	ef 92       	push	r14
 120:	ff 92       	push	r15
 122:	0f 93       	push	r16
 124:	1f 93       	push	r17
 126:	cf 93       	push	r28
 128:	df 93       	push	r29
 12a:	cd b7       	in	r28, 0x3d	; 61
 12c:	de b7       	in	r29, 0x3e	; 62
 12e:	2f 97       	sbiw	r28, 0x0f	; 15
 130:	0f b6       	in	r0, 0x3f	; 63
 132:	f8 94       	cli
 134:	de bf       	out	0x3e, r29	; 62
 136:	0f be       	out	0x3f, r0	; 63
 138:	cd bf       	out	0x3d, r28	; 61
 13a:	4c 01       	movw	r8, r24
 13c:	6b 01       	movw	r12, r22
 13e:	5a 01       	movw	r10, r20
 140:	00 e0       	ldi	r16, 0x00	; 0
 142:	10 e0       	ldi	r17, 0x00	; 0
 144:	71 2c       	mov	r7, r1
 146:	e1 2c       	mov	r14, r1
 148:	f1 2c       	mov	r15, r1
 14a:	f8 01       	movw	r30, r16
 14c:	80 81       	ld	r24, Z
 14e:	91 81       	ldd	r25, Z+1	; 0x01
 150:	89 2b       	or	r24, r25
 152:	01 f0       	breq	.+0      	; 0x154 <_ZN10WiFiServer5writeEPKhj+0x44>
 154:	67 2d       	mov	r22, r7
 156:	ce 01       	movw	r24, r28
 158:	01 96       	adiw	r24, 0x01	; 1
 15a:	0e 94 00 00 	call	0	; 0x0 <_ZZN10WiFiServer9availableEPhE17cycle_server_down>
 15e:	f8 01       	movw	r30, r16
 160:	20 81       	ld	r18, Z
 162:	31 81       	ldd	r19, Z+1	; 0x01
 164:	f4 01       	movw	r30, r8
 166:	84 81       	ldd	r24, Z+4	; 0x04
 168:	95 81       	ldd	r25, Z+5	; 0x05
 16a:	28 17       	cp	r18, r24
 16c:	39 07       	cpc	r19, r25
 16e:	01 f4       	brne	.+0      	; 0x170 <_ZN10WiFiServer5writeEPKhj+0x60>
 170:	ce 01       	movw	r24, r28
 172:	01 96       	adiw	r24, 0x01	; 1
 174:	0e 94 00 00 	call	0	; 0x0 <_ZZN10WiFiServer9availableEPhE17cycle_server_down>
 178:	84 30       	cpi	r24, 0x04	; 4
 17a:	01 f0       	breq	.+0      	; 0x17c <_ZN10WiFiServer5writeEPKhj+0x6c>
 17c:	0e 5f       	subi	r16, 0xFE	; 254
 17e:	1f 4f       	sbci	r17, 0xFF	; 255
 180:	73 94       	inc	r7
 182:	f4 e0       	ldi	r31, 0x04	; 4
 184:	7f 12       	cpse	r7, r31
 186:	00 c0       	rjmp	.+0      	; 0x188 <_ZN10WiFiServer5writeEPKhj+0x78>
 188:	c7 01       	movw	r24, r14
 18a:	2f 96       	adiw	r28, 0x0f	; 15
 18c:	0f b6       	in	r0, 0x3f	; 63
 18e:	f8 94       	cli
 190:	de bf       	out	0x3e, r29	; 62
 192:	0f be       	out	0x3f, r0	; 63
 194:	cd bf       	out	0x3d, r28	; 61
 196:	df 91       	pop	r29
 198:	cf 91       	pop	r28
 19a:	1f 91       	pop	r17
 19c:	0f 91       	pop	r16
 19e:	ff 90       	pop	r15
 1a0:	ef 90       	pop	r14
 1a2:	df 90       	pop	r13
 1a4:	cf 90       	pop	r12
 1a6:	bf 90       	pop	r11
 1a8:	af 90       	pop	r10
 1aa:	9f 90       	pop	r9
 1ac:	8f 90       	pop	r8
 1ae:	7f 90       	pop	r7
 1b0:	08 95       	ret
 1b2:	a5 01       	movw	r20, r10
 1b4:	b6 01       	movw	r22, r12
 1b6:	ce 01       	movw	r24, r28
 1b8:	01 96       	adiw	r24, 0x01	; 1
 1ba:	0e 94 00 00 	call	0	; 0x0 <_ZZN10WiFiServer9availableEPhE17cycle_server_down>
 1be:	e8 0e       	add	r14, r24
 1c0:	f9 1e       	adc	r15, r25
 1c2:	00 c0       	rjmp	.+0      	; 0x1c4 <__SREG__+0x185>

Disassembly of section .text._ZN10WiFiServerC2Ej:

000002d4 <_ZN10WiFiServerC1Ej>:
 2d4:	fc 01       	movw	r30, r24
 2d6:	13 82       	std	Z+3, r1	; 0x03
 2d8:	12 82       	std	Z+2, r1	; 0x02
 2da:	80 e0       	ldi	r24, 0x00	; 0
 2dc:	90 e0       	ldi	r25, 0x00	; 0
 2de:	91 83       	std	Z+1, r25	; 0x01
 2e0:	80 83       	st	Z, r24
 2e2:	75 83       	std	Z+5, r23	; 0x05
 2e4:	64 83       	std	Z+4, r22	; 0x04
 2e6:	08 95       	ret

Disassembly of section .text._ZN10WiFiServer9availableEPh:

000005bc <_ZN10WiFiServer9availableEPh>:
 5bc:	8f 92       	push	r8
 5be:	9f 92       	push	r9
 5c0:	af 92       	push	r10
 5c2:	bf 92       	push	r11
 5c4:	cf 92       	push	r12
 5c6:	df 92       	push	r13
 5c8:	ef 92       	push	r14
 5ca:	ff 92       	push	r15
 5cc:	0f 93       	push	r16
 5ce:	1f 93       	push	r17
 5d0:	cf 93       	push	r28
 5d2:	df 93       	push	r29
 5d4:	cd b7       	in	r28, 0x3d	; 61
 5d6:	de b7       	in	r29, 0x3e	; 62
 5d8:	2f 97       	sbiw	r28, 0x0f	; 15
 5da:	0f b6       	in	r0, 0x3f	; 63
 5dc:	f8 94       	cli
 5de:	de bf       	out	0x3e, r29	; 62
 5e0:	0f be       	out	0x3f, r0	; 63
 5e2:	cd bf       	out	0x3d, r28	; 61
 5e4:	8c 01       	movw	r16, r24
 5e6:	7b 01       	movw	r14, r22
 5e8:	5a 01       	movw	r10, r20
 5ea:	70 e0       	ldi	r23, 0x00	; 0
 5ec:	c7 2e       	mov	r12, r23
 5ee:	70 e0       	ldi	r23, 0x00	; 0
 5f0:	d7 2e       	mov	r13, r23
 5f2:	91 2c       	mov	r9, r1
 5f4:	f6 01       	movw	r30, r12
 5f6:	21 91       	ld	r18, Z+
 5f8:	31 91       	ld	r19, Z+
 5fa:	6f 01       	movw	r12, r30
 5fc:	f7 01       	movw	r30, r14
 5fe:	84 81       	ldd	r24, Z+4	; 0x04
 600:	95 81       	ldd	r25, Z+5	; 0x05
 602:	28 17       	cp	r18, r24
 604:	39 07       	cpc	r19, r25
 606:	01 f0       	breq	.+0      	; 0x608 <_ZN10WiFiServer9availableEPh+0x4c>
 608:	00 c0       	rjmp	.+0      	; 0x60a <_ZN10WiFiServer9availableEPh+0x4e>
 60a:	69 2d       	mov	r22, r9
 60c:	ce 01       	movw	r24, r28
 60e:	01 96       	adiw	r24, 0x01	; 1
 610:	0e 94 00 00 	call	0	; 0x0 <_ZZN10WiFiServer9availableEPhE17cycle_server_down>
 614:	ce 01       	movw	r24, r28
 616:	01 96       	adiw	r24, 0x01	; 1
 618:	0e 94 00 00 	call	0	; 0x0 <_ZZN10WiFiServer9availableEPhE17cycle_server_down>
 61c:	88 2e       	mov	r8, r24
 61e:	80 e0       	ldi	r24, 0x00	; 0
 620:	0e 94 00 00 	call	0	; 0x0 <_ZZN10WiFiServer9availableEPhE17cycle_server_down>
 624:	a1 14       	cp	r10, r1
 626:	b1 04       	cpc	r11, r1
 628:	01 f0       	breq	.+0      	; 0x62a <_ZN10WiFiServer9availableEPh+0x6e>
 62a:	f5 01       	movw	r30, r10
 62c:	80 82       	st	Z, r8
 62e:	81 11       	cpse	r24, r1
 630:	00 c0       	rjmp	.+0      	; 0x632 <_ZN10WiFiServer9availableEPh+0x76>
 632:	20 91 00 00 	lds	r18, 0x0000
 636:	30 91 00 00 	lds	r19, 0x0000
 63a:	a9 01       	movw	r20, r18
 63c:	4f 5f       	subi	r20, 0xFF	; 255
 63e:	5f 4f       	sbci	r21, 0xFF	; 255
 640:	50 93 00 00 	sts	0x0000, r21
 644:	40 93 00 00 	sts	0x0000, r20
 648:	23 33       	cpi	r18, 0x33	; 51
 64a:	31 05       	cpc	r19, r1
 64c:	04 f4       	brge	.+0      	; 0x64e <_ZN10WiFiServer9availableEPh+0x92>
 64e:	f4 e0       	ldi	r31, 0x04	; 4
 650:	8f 12       	cpse	r8, r31
 652:	00 c0       	rjmp	.+0      	; 0x654 <_ZN10WiFiServer9availableEPh+0x98>
 654:	8b 81       	ldd	r24, Y+3	; 0x03
 656:	9c 81       	ldd	r25, Y+4	; 0x04
 658:	f8 01       	movw	r30, r16
 65a:	93 83       	std	Z+3, r25	; 0x03
 65c:	82 83       	std	Z+2, r24	; 0x02
 65e:	8d 81       	ldd	r24, Y+5	; 0x05
 660:	9e 81       	ldd	r25, Y+6	; 0x06
 662:	af 81       	ldd	r26, Y+7	; 0x07
 664:	b8 85       	ldd	r27, Y+8	; 0x08
 666:	84 83       	std	Z+4, r24	; 0x04
 668:	95 83       	std	Z+5, r25	; 0x05
 66a:	a6 83       	std	Z+6, r26	; 0x06
 66c:	b7 83       	std	Z+7, r27	; 0x07
 66e:	49 85       	ldd	r20, Y+9	; 0x09
 670:	5a 85       	ldd	r21, Y+10	; 0x0a
 672:	6b 85       	ldd	r22, Y+11	; 0x0b
 674:	7c 85       	ldd	r23, Y+12	; 0x0c
 676:	40 87       	std	Z+8, r20	; 0x08
 678:	51 87       	std	Z+9, r21	; 0x09
 67a:	62 87       	std	Z+10, r22	; 0x0a
 67c:	73 87       	std	Z+11, r23	; 0x0b
 67e:	80 e0       	ldi	r24, 0x00	; 0
 680:	90 e0       	ldi	r25, 0x00	; 0
 682:	91 83       	std	Z+1, r25	; 0x01
 684:	80 83       	st	Z, r24
 686:	8d 85       	ldd	r24, Y+13	; 0x0d
 688:	84 87       	std	Z+12, r24	; 0x0c
 68a:	8e 85       	ldd	r24, Y+14	; 0x0e
 68c:	9f 85       	ldd	r25, Y+15	; 0x0f
 68e:	96 87       	std	Z+14, r25	; 0x0e
 690:	85 87       	std	Z+13, r24	; 0x0d
 692:	00 c0       	rjmp	.+0      	; 0x694 <_ZN10WiFiServer9availableEPh+0xd8>
 694:	93 94       	inc	r9
 696:	f4 e0       	ldi	r31, 0x04	; 4
 698:	9f 12       	cpse	r9, r31
 69a:	00 c0       	rjmp	.+0      	; 0x69c <_ZN10WiFiServer9availableEPh+0xe0>
 69c:	6f ef       	ldi	r22, 0xFF	; 255
 69e:	c8 01       	movw	r24, r16
 6a0:	0e 94 00 00 	call	0	; 0x0 <_ZZN10WiFiServer9availableEPhE17cycle_server_down>
 6a4:	00 c0       	rjmp	.+0      	; 0x6a6 <_ZN10WiFiServer9availableEPh+0xea>
 6a6:	40 e0       	ldi	r20, 0x00	; 0
 6a8:	69 2d       	mov	r22, r9
 6aa:	f7 01       	movw	r30, r14
 6ac:	84 81       	ldd	r24, Z+4	; 0x04
 6ae:	95 81       	ldd	r25, Z+5	; 0x05
 6b0:	0e 94 00 00 	call	0	; 0x0 <_ZZN10WiFiServer9availableEPhE17cycle_server_down>
 6b4:	10 92 00 00 	sts	0x0000, r1
 6b8:	10 92 00 00 	sts	0x0000, r1
 6bc:	00 c0       	rjmp	.+0      	; 0x6be <_ZN10WiFiServer9availableEPh+0x102>
 6be:	c8 01       	movw	r24, r16
 6c0:	2f 96       	adiw	r28, 0x0f	; 15
 6c2:	0f b6       	in	r0, 0x3f	; 63
 6c4:	f8 94       	cli
 6c6:	de bf       	out	0x3e, r29	; 62
 6c8:	0f be       	out	0x3f, r0	; 63
 6ca:	cd bf       	out	0x3d, r28	; 61
 6cc:	df 91       	pop	r29
 6ce:	cf 91       	pop	r28
 6d0:	1f 91       	pop	r17
 6d2:	0f 91       	pop	r16
 6d4:	ff 90       	pop	r15
 6d6:	ef 90       	pop	r14
 6d8:	df 90       	pop	r13
 6da:	cf 90       	pop	r12
 6dc:	bf 90       	pop	r11
 6de:	af 90       	pop	r10
 6e0:	9f 90       	pop	r9
 6e2:	8f 90       	pop	r8
 6e4:	08 95       	ret

Disassembly of section .text._ZN10WiFiServer6statusEv:

00000ca2 <_ZN10WiFiServer6statusEv>:
 ca2:	80 e0       	ldi	r24, 0x00	; 0
 ca4:	0c 94 00 00 	jmp	0	; 0x0 <_ZZN10WiFiServer9availableEPhE17cycle_server_down>

Disassembly of section .text.startup._GLOBAL__sub_I__ZN10WiFiServerC2Ej:

0000194a <_GLOBAL__sub_I__ZN10WiFiServerC2Ej>:
    194a:	0f 93       	push	r16
    194c:	00 e0       	ldi	r16, 0x00	; 0
    194e:	20 e0       	ldi	r18, 0x00	; 0
    1950:	40 e0       	ldi	r20, 0x00	; 0
    1952:	60 e0       	ldi	r22, 0x00	; 0
    1954:	80 e0       	ldi	r24, 0x00	; 0
    1956:	90 e0       	ldi	r25, 0x00	; 0
    1958:	0e 94 00 00 	call	0	; 0x0 <_ZZN10WiFiServer9availableEPhE17cycle_server_down>
    195c:	0f 91       	pop	r16
    195e:	08 95       	ret

WiFiUdp.o:     file format elf32-avr

Sections:
Idx Name          Size      VMA       LMA       File off  Algn
  0 .group        00000008  00000000  00000000  00000034  2**2
                  CONTENTS, READONLY, EXCLUDE, GROUP, LINK_ONCE_DISCARD
  1 .group        00000008  00000000  00000000  0000003c  2**2
                  CONTENTS, READONLY, EXCLUDE, GROUP, LINK_ONCE_DISCARD
  2 .group        00000008  00000000  00000000  00000044  2**2
                  CONTENTS, READONLY, EXCLUDE, GROUP, LINK_ONCE_DISCARD
  3 .group        00000008  00000000  00000000  0000004c  2**2
                  CONTENTS, READONLY, EXCLUDE, GROUP, LINK_ONCE_DISCARD
  4 .text         00000000  00000000  00000000  00000054  2**0
                  CONTENTS, ALLOC, LOAD, READONLY, CODE
  5 .data         00000048  00000000  00000000  00000054  2**0
                  CONTENTS, ALLOC, LOAD, DATA
  6 .bss          00000000  00000000  00000000  0000009c  2**0
                  ALLOC
  7 .stab         000010c8  00000000  00000000  0000009c  2**2
                  CONTENTS, RELOC, READONLY, DEBUGGING
  8 .stabstr      000025a2  00000000  00000000  00001164  2**0
                  CONTENTS, READONLY, DEBUGGING
  9 .text._ZN7WiFiUDP4readEPcj 0000000e  00000000  00000000  00003706  2**0
                  CONTENTS, ALLOC, LOAD, READONLY, CODE
 10 .text._ZN7WiFiUDP5writeEh 0000002c  00000000  00000000  00003714  2**0
                  CONTENTS, ALLOC, LOAD, READONLY, CODE
 11 .text._ZN7WiFiUDP11parsePacketEv 0000000e  00000000  00000000  00003740  2**0
                  CONTENTS, ALLOC, LOAD, READONLY, CODE
 12 .text._ZN7WiFiUDP5flushEv 00000002  00000000  00000000  0000374e  2**0
                  CONTENTS, ALLOC, LOAD, READONLY, CODE
 13 .text._ZN7WiFiUDP5beginEj 0000004e  00000000  00000000  00003750  2**0
                  CONTENTS, ALLOC, LOAD, RELOC, READONLY, CODE
 14 .text._ZN7WiFiUDP9availableEv 00000012  00000000  00000000  0000379e  2**0
                  CONTENTS, ALLOC, LOAD, RELOC, READONLY, CODE
 15 .text._ZN7WiFiUDP4stopEv 0000001a  00000000  00000000  000037b0  2**0
                  CONTENTS, ALLOC, LOAD, RELOC, READONLY, CODE
 16 .text._ZN7WiFiUDP11beginPacketEPKcj 00000094  00000000  00000000  000037ca  2**0
                  CONTENTS, ALLOC, LOAD, RELOC, READONLY, CODE
 17 .text._ZN7WiFiUDP11beginPacketE9IPAddressj 00000076  00000000  00000000  0000385e  2**0
                  CONTENTS, ALLOC, LOAD, RELOC, READONLY, CODE
 18 .text._ZN7WiFiUDP9endPacketEv 0000000c  00000000  00000000  000038d4  2**0
                  CONTENTS, ALLOC, LOAD, RELOC, READONLY, CODE
 19 .text._ZN7WiFiUDP5writeEPKhj 00000016  00000000  00000000  000038e0  2**0
                  CONTENTS, ALLOC, LOAD, RELOC, READONLY, CODE
 20 .text._ZN7WiFiUDP4readEv 00000048  00000000  00000000  000038f6  2**0
                  CONTENTS, ALLOC, LOAD, RELOC, READONLY, CODE
 21 .text._ZN7WiFiUDP4peekEv 00000048  00000000  00000000  0000393e  2**0
                  CONTENTS, ALLOC, LOAD, RELOC, READONLY, CODE
 22 .text._ZN7WiFiUDP4readEPhj 0000005e  00000000  00000000  00003986  2**0
                  CONTENTS, ALLOC, LOAD, RELOC, READONLY, CODE
 23 .text._ZN7WiFiUDP10remotePortEv 0000004e  00000000  00000000  000039e4  2**0
                  CONTENTS, ALLOC, LOAD, RELOC, READONLY, CODE
 24 .text._ZN7WiFiUDP8remoteIPEv 00000058  00000000  00000000  00003a32  2**0
                  CONTENTS, ALLOC, LOAD, RELOC, READONLY, CODE
 25 .text._ZN7WiFiUDPC2Ev 00000024  00000000  00000000  00003a8a  2**0
                  CONTENTS, ALLOC, LOAD, RELOC, READONLY, CODE
 26 .text.startup._GLOBAL__sub_I__ZN7WiFiUDPC2Ev 00000016  00000000  00000000  00003aae  2**0
                  CONTENTS, ALLOC, LOAD, RELOC, READONLY, CODE
 27 .ctors        00000002  00000000  00000000  00003ac4  2**1
                  CONTENTS, ALLOC, LOAD, RELOC, READONLY, DATA
 28 .rodata._ZTV6Stream 00000010  00000000  00000000  00003ac6  2**0
                  CONTENTS, ALLOC, LOAD, RELOC, READONLY, DATA
 29 .rodata._ZTV3UDP 00000024  00000000  00000000  00003ad6  2**0
                  CONTENTS, ALLOC, LOAD, RELOC, READONLY, DATA
 30 .rodata._ZTV7WiFiUDP 00000024  00000000  00000000  00003afa  2**0
                  CONTENTS, ALLOC, LOAD, RELOC, READONLY, DATA
 31 .bss._ZL11INADDR_NONE 00000006  00000000  00000000  00003b1e  2**0
                  ALLOC
 32 .comment      00000012  00000000  00000000  00003b1e  2**0
                  CONTENTS, READONLY

Disassembly of section .text._ZN7WiFiUDP4readEPcj:

00000000 <_ZN7WiFiUDP4readEPcj>:
	uint8_t _remotePort[2] = {0};

	WiFiDrv::getRemoteData(_sock, _remoteIp, _remotePort);
	uint16_t port = (_remotePort[0]<<8)+_remotePort[1];
	return port;
}
   0:	dc 01       	movw	r26, r24
  4a:	ed 91       	Address 0x000000000000004a is out of bounds.
.word	0xffff	; ????
  4c:	fc 91       	Address 0x000000000000004c is out of bounds.
.word	0xffff	; ????
  4e:	00 8c       	Address 0x000000000000004e is out of bounds.
.word	0xffff	; ????
  50:	f1 8d       	Address 0x0000000000000050 is out of bounds.
.word	0xffff	; ????
  52:	e0 2d       	Address 0x0000000000000052 is out of bounds.
.word	0xffff	; ????
  54:	09 94       	Address 0x0000000000000054 is out of bounds.
.word	0xffff	; ????

Disassembly of section .text._ZN7WiFiUDP5writeEh:

0000009e <_ZN7WiFiUDP5writeEh>:
  9e:	cf 93       	push	r28
  a0:	df 93       	push	r29
  a2:	1f 92       	push	r1
  a4:	cd b7       	in	r28, 0x3d	; 61
  a6:	de b7       	in	r29, 0x3e	; 62
  a8:	69 83       	std	Y+1, r22	; 0x01
  aa:	dc 01       	movw	r26, r24
  ac:	ed 91       	ld	r30, X+
  ae:	fc 91       	ld	r31, X
  b0:	02 80       	ldd	r0, Z+2	; 0x02
  b2:	f3 81       	ldd	r31, Z+3	; 0x03
  b4:	e0 2d       	mov	r30, r0
  b6:	41 e0       	ldi	r20, 0x01	; 1
  b8:	50 e0       	ldi	r21, 0x00	; 0
  ba:	be 01       	movw	r22, r28
  bc:	6f 5f       	subi	r22, 0xFF	; 255
  be:	7f 4f       	sbci	r23, 0xFF	; 255
  c0:	09 95       	icall
  c2:	0f 90       	pop	r0
  c4:	df 91       	pop	r29
  c6:	cf 91       	pop	r28
  c8:	08 95       	ret

Disassembly of section .text._ZN7WiFiUDP11parsePacketEv:

00000168 <_ZN7WiFiUDP11parsePacketEv>:
 168:	dc 01       	movw	r26, r24
 16a:	ed 91       	ld	r30, X+
 16c:	fc 91       	ld	r31, X
 16e:	04 80       	ldd	r0, Z+4	; 0x04
 170:	f5 81       	ldd	r31, Z+5	; 0x05
 172:	e0 2d       	mov	r30, r0
 174:	09 94       	ijmp

Disassembly of section .text._ZN7WiFiUDP5flushEv:

000002de <_ZN7WiFiUDP5flushEv>:
 2de:	08 95       	ret

Disassembly of section .text._ZN7WiFiUDP5beginEj:

000005be <_ZN7WiFiUDP5beginEj>:
 5be:	ff 92       	push	r15
 5c0:	0f 93       	push	r16
 5c2:	1f 93       	push	r17
 5c4:	cf 93       	push	r28
 5c6:	df 93       	push	r29
 5c8:	8c 01       	movw	r16, r24
 5ca:	eb 01       	movw	r28, r22
 5cc:	0e 94 00 00 	call	0	; 0x0 <__tmp_reg__>
 5d0:	f8 2e       	mov	r15, r24
 5d2:	8f ef       	ldi	r24, 0xFF	; 255
 5d4:	f8 16       	cp	r15, r24
 5d6:	01 f0       	breq	.+0      	; 0x5d8 <_ZN7WiFiUDP5beginEj+0x1a>
 5d8:	41 e0       	ldi	r20, 0x01	; 1
 5da:	6f 2d       	mov	r22, r15
 5dc:	ce 01       	movw	r24, r28
 5de:	0e 94 00 00 	call	0	; 0x0 <__tmp_reg__>
 5e2:	ef 2d       	mov	r30, r15
 5e4:	f0 e0       	ldi	r31, 0x00	; 0
 5e6:	ee 0f       	add	r30, r30
 5e8:	ff 1f       	adc	r31, r31
 5ea:	e0 50       	subi	r30, 0x00	; 0
 5ec:	f0 40       	sbci	r31, 0x00	; 0
 5ee:	d1 83       	std	Z+1, r29	; 0x01
 5f0:	c0 83       	st	Z, r28
 5f2:	f8 01       	movw	r30, r16
 5f4:	f4 86       	std	Z+12, r15	; 0x0c
 5f6:	d6 87       	std	Z+14, r29	; 0x0e
 5f8:	c5 87       	std	Z+13, r28	; 0x0d
 5fa:	81 e0       	ldi	r24, 0x01	; 1
 5fc:	00 c0       	rjmp	.+0      	; 0x5fe <_ZN7WiFiUDP5beginEj+0x40>
 5fe:	80 e0       	ldi	r24, 0x00	; 0
 600:	df 91       	pop	r29
 602:	cf 91       	pop	r28
 604:	1f 91       	pop	r17
 606:	0f 91       	pop	r16
 608:	ff 90       	pop	r15
 60a:	08 95       	ret

Disassembly of section .text._ZN7WiFiUDP9availableEv:

00000bca <_ZN7WiFiUDP9availableEv>:
 bca:	fc 01       	movw	r30, r24
 bcc:	84 85       	ldd	r24, Z+12	; 0x0c
 bce:	8f 3f       	cpi	r24, 0xFF	; 255
 bd0:	01 f0       	breq	.+0      	; 0xbd2 <_ZN7WiFiUDP9availableEv+0x8>
 bd2:	0c 94 00 00 	jmp	0	; 0x0 <__tmp_reg__>
 bd6:	80 e0       	ldi	r24, 0x00	; 0
 bd8:	90 e0       	ldi	r25, 0x00	; 0
 bda:	08 95       	ret

Disassembly of section .text._ZN7WiFiUDP4stopEv:

000017a6 <_ZN7WiFiUDP4stopEv>:
    17a6:	cf 93       	push	r28
    17a8:	df 93       	push	r29
    17aa:	ec 01       	movw	r28, r24
    17ac:	8c 85       	ldd	r24, Y+12	; 0x0c
    17ae:	8f 3f       	cpi	r24, 0xFF	; 255
    17b0:	01 f0       	breq	.+0      	; 0x17b2 <_ZN7WiFiUDP4stopEv+0xc>
    17b2:	0e 94 00 00 	call	0	; 0x0 <__tmp_reg__>
    17b6:	8f ef       	ldi	r24, 0xFF	; 255
    17b8:	8c 87       	std	Y+12, r24	; 0x0c
    17ba:	df 91       	pop	r29
    17bc:	cf 91       	pop	r28
    17be:	08 95       	ret

Disassembly of section .text._ZN7WiFiUDP11beginPacketEPKcj:

00002f66 <_ZN7WiFiUDP11beginPacketEPKcj>:
    2f66:	cf 92       	push	r12
    2f68:	df 92       	push	r13
    2f6a:	ef 92       	push	r14
    2f6c:	ff 92       	push	r15
    2f6e:	0f 93       	push	r16
    2f70:	1f 93       	push	r17
    2f72:	cf 93       	push	r28
    2f74:	df 93       	push	r29
    2f76:	cd b7       	in	r28, 0x3d	; 61
    2f78:	de b7       	in	r29, 0x3e	; 62
    2f7a:	2e 97       	sbiw	r28, 0x0e	; 14
    2f7c:	0f b6       	in	r0, 0x3f	; 63
    2f7e:	f8 94       	cli
    2f80:	de bf       	out	0x3e, r29	; 62
    2f82:	0f be       	out	0x3f, r0	; 63
    2f84:	cd bf       	out	0x3d, r28	; 61
    2f86:	7c 01       	movw	r14, r24
    2f88:	6a 01       	movw	r12, r20
    2f8a:	ce 01       	movw	r24, r28
    2f8c:	07 96       	adiw	r24, 0x07	; 7
    2f8e:	6d 87       	std	Y+13, r22	; 0x0d
    2f90:	7e 87       	std	Y+14, r23	; 0x0e
    2f92:	0e 94 00 00 	call	0	; 0x0 <__tmp_reg__>
    2f96:	ae 01       	movw	r20, r28
    2f98:	49 5f       	subi	r20, 0xF9	; 249
    2f9a:	5f 4f       	sbci	r21, 0xFF	; 255
    2f9c:	6d 85       	ldd	r22, Y+13	; 0x0d
    2f9e:	7e 85       	ldd	r23, Y+14	; 0x0e
    2fa0:	80 e0       	ldi	r24, 0x00	; 0
    2fa2:	90 e0       	ldi	r25, 0x00	; 0
    2fa4:	0e 94 00 00 	call	0	; 0x0 <__tmp_reg__>
    2fa8:	00 97       	sbiw	r24, 0x00	; 0
    2faa:	01 f0       	breq	.+0      	; 0x2fac <_ZN7WiFiUDP11beginPacketEPKcj+0x46>
    2fac:	d7 01       	movw	r26, r14
    2fae:	ed 91       	ld	r30, X+
    2fb0:	fc 91       	ld	r31, X
    2fb2:	00 88       	ldd	r0, Z+16	; 0x10
    2fb4:	f1 89       	ldd	r31, Z+17	; 0x11
    2fb6:	e0 2d       	mov	r30, r0
    2fb8:	80 e0       	ldi	r24, 0x00	; 0
    2fba:	90 e0       	ldi	r25, 0x00	; 0
    2fbc:	9a 83       	std	Y+2, r25	; 0x02
    2fbe:	89 83       	std	Y+1, r24	; 0x01
    2fc0:	09 85       	ldd	r16, Y+9	; 0x09
    2fc2:	1a 85       	ldd	r17, Y+10	; 0x0a
    2fc4:	2b 85       	ldd	r18, Y+11	; 0x0b
    2fc6:	3c 85       	ldd	r19, Y+12	; 0x0c
    2fc8:	0b 83       	std	Y+3, r16	; 0x03
    2fca:	1c 83       	std	Y+4, r17	; 0x04
    2fcc:	2d 83       	std	Y+5, r18	; 0x05
    2fce:	3e 83       	std	Y+6, r19	; 0x06
    2fd0:	a6 01       	movw	r20, r12
    2fd2:	be 01       	movw	r22, r28
    2fd4:	6f 5f       	subi	r22, 0xFF	; 255
    2fd6:	7f 4f       	sbci	r23, 0xFF	; 255
    2fd8:	c7 01       	movw	r24, r14
    2fda:	09 95       	icall
    2fdc:	2e 96       	adiw	r28, 0x0e	; 14
    2fde:	0f b6       	in	r0, 0x3f	; 63
    2fe0:	f8 94       	cli
    2fe2:	de bf       	out	0x3e, r29	; 62
    2fe4:	0f be       	out	0x3f, r0	; 63
    2fe6:	cd bf       	out	0x3d, r28	; 61
    2fe8:	df 91       	pop	r29
    2fea:	cf 91       	pop	r28
    2fec:	1f 91       	pop	r17
    2fee:	0f 91       	pop	r16
    2ff0:	ff 90       	pop	r15
    2ff2:	ef 90       	pop	r14
    2ff4:	df 90       	pop	r13
    2ff6:	cf 90       	pop	r12
    2ff8:	08 95       	ret

Disassembly of section .text._ZN7WiFiUDP11beginPacketE9IPAddressj:

00005f60 <_ZN7WiFiUDP11beginPacketE9IPAddressj>:
    5f60:	ef 92       	push	r14
    5f62:	ff 92       	push	r15
    5f64:	0f 93       	push	r16
    5f66:	1f 93       	push	r17
    5f68:	cf 93       	push	r28
    5f6a:	df 93       	push	r29
    5f6c:	00 d0       	rcall	.+0      	; 0x5f6e <_ZN7WiFiUDP11beginPacketE9IPAddressj+0xe>
    5f6e:	cd b7       	in	r28, 0x3d	; 61
    5f70:	de b7       	in	r29, 0x3e	; 62
    5f72:	7c 01       	movw	r14, r24
    5f74:	8b 01       	movw	r16, r22
    5f76:	fc 01       	movw	r30, r24
    5f78:	84 85       	ldd	r24, Z+12	; 0x0c
    5f7a:	8f 3f       	cpi	r24, 0xFF	; 255
    5f7c:	01 f4       	brne	.+0      	; 0x5f7e <_ZN7WiFiUDP11beginPacketE9IPAddressj+0x1e>
    5f7e:	49 83       	std	Y+1, r20	; 0x01
    5f80:	5a 83       	std	Y+2, r21	; 0x02
    5f82:	0e 94 00 00 	call	0	; 0x0 <__tmp_reg__>
    5f86:	f7 01       	movw	r30, r14
    5f88:	84 87       	std	Z+12, r24	; 0x0c
    5f8a:	5a 81       	ldd	r21, Y+2	; 0x02
    5f8c:	49 81       	ldd	r20, Y+1	; 0x01
    5f8e:	f7 01       	movw	r30, r14
    5f90:	24 85       	ldd	r18, Z+12	; 0x0c
    5f92:	2f 3f       	cpi	r18, 0xFF	; 255
    5f94:	01 f0       	breq	.+0      	; 0x5f96 <_ZN7WiFiUDP11beginPacketE9IPAddressj+0x36>
    5f96:	f8 01       	movw	r30, r16
    5f98:	62 81       	ldd	r22, Z+2	; 0x02
    5f9a:	73 81       	ldd	r23, Z+3	; 0x03
    5f9c:	84 81       	ldd	r24, Z+4	; 0x04
    5f9e:	95 81       	ldd	r25, Z+5	; 0x05
    5fa0:	01 e0       	ldi	r16, 0x01	; 1
    5fa2:	0e 94 00 00 	call	0	; 0x0 <__tmp_reg__>
    5fa6:	f7 01       	movw	r30, r14
    5fa8:	84 85       	ldd	r24, Z+12	; 0x0c
    5faa:	90 e0       	ldi	r25, 0x00	; 0
    5fac:	fc 01       	movw	r30, r24
    5fae:	ee 0f       	add	r30, r30
    5fb0:	ff 1f       	adc	r31, r31
    5fb2:	e0 50       	subi	r30, 0x00	; 0
    5fb4:	f0 40       	sbci	r31, 0x00	; 0
    5fb6:	91 83       	std	Z+1, r25	; 0x01
    5fb8:	80 83       	st	Z, r24
    5fba:	81 e0       	ldi	r24, 0x01	; 1
    5fbc:	90 e0       	ldi	r25, 0x00	; 0
    5fbe:	00 c0       	rjmp	.+0      	; 0x5fc0 <_ZN7WiFiUDP11beginPacketE9IPAddressj+0x60>
    5fc0:	80 e0       	ldi	r24, 0x00	; 0
    5fc2:	90 e0       	ldi	r25, 0x00	; 0
    5fc4:	0f 90       	pop	r0
    5fc6:	0f 90       	pop	r0
    5fc8:	df 91       	pop	r29
    5fca:	cf 91       	pop	r28
    5fcc:	1f 91       	pop	r17
    5fce:	0f 91       	pop	r16
    5fd0:	ff 90       	pop	r15
    5fd2:	ef 90       	pop	r14
    5fd4:	08 95       	ret

Disassembly of section .text._ZN7WiFiUDP9endPacketEv:

0000bf36 <_ZN7WiFiUDP9endPacketEv>:
    bf36:	fc 01       	movw	r30, r24
    bf38:	84 85       	ldd	r24, Z+12	; 0x0c
    bf3a:	0e 94 00 00 	call	0	; 0x0 <__tmp_reg__>
    bf3e:	90 e0       	ldi	r25, 0x00	; 0
    bf40:	08 95       	ret

Disassembly of section .text._ZN7WiFiUDP5writeEPKhj:

00017e78 <_ZN7WiFiUDP5writeEPKhj>:
   17e78:	cf 93       	push	r28
   17e7a:	df 93       	push	r29
   17e7c:	ea 01       	movw	r28, r20
   17e7e:	fc 01       	movw	r30, r24
   17e80:	84 85       	ldd	r24, Z+12	; 0x0c
   17e82:	0e 94 00 00 	call	0	; 0x0 <__tmp_reg__>
   17e86:	ce 01       	movw	r24, r28
   17e88:	df 91       	pop	r29
   17e8a:	cf 91       	pop	r28
   17e8c:	08 95       	ret

Disassembly of section .text._ZN7WiFiUDP4readEv:

0002fd06 <_ZN7WiFiUDP4readEv>:
   2fd06:	0f 93       	push	r16
   2fd08:	1f 93       	push	r17
   2fd0a:	cf 93       	push	r28
   2fd0c:	df 93       	push	r29
   2fd0e:	1f 92       	push	r1
   2fd10:	cd b7       	in	r28, 0x3d	; 61
   2fd12:	de b7       	in	r29, 0x3e	; 62
   2fd14:	8c 01       	movw	r16, r24
   2fd16:	dc 01       	movw	r26, r24
   2fd18:	ed 91       	ld	r30, X+
   2fd1a:	fc 91       	ld	r31, X
   2fd1c:	04 80       	ldd	r0, Z+4	; 0x04
   2fd1e:	f5 81       	ldd	r31, Z+5	; 0x05
   2fd20:	e0 2d       	mov	r30, r0
   2fd22:	09 95       	icall
   2fd24:	89 2b       	or	r24, r25
   2fd26:	01 f0       	breq	.+0      	; 0x2fd28 <_ZN7WiFiUDP4readEv+0x22>
   2fd28:	40 e0       	ldi	r20, 0x00	; 0
   2fd2a:	be 01       	movw	r22, r28
   2fd2c:	6f 5f       	subi	r22, 0xFF	; 255
   2fd2e:	7f 4f       	sbci	r23, 0xFF	; 255
   2fd30:	f8 01       	movw	r30, r16
   2fd32:	84 85       	ldd	r24, Z+12	; 0x0c
   2fd34:	0e 94 00 00 	call	0	; 0x0 <__tmp_reg__>
   2fd38:	89 81       	ldd	r24, Y+1	; 0x01
   2fd3a:	90 e0       	ldi	r25, 0x00	; 0
   2fd3c:	00 c0       	rjmp	.+0      	; 0x2fd3e <_ZN7WiFiUDP4readEv+0x38>
   2fd3e:	8f ef       	ldi	r24, 0xFF	; 255
   2fd40:	9f ef       	ldi	r25, 0xFF	; 255
   2fd42:	0f 90       	pop	r0
   2fd44:	df 91       	pop	r29
   2fd46:	cf 91       	pop	r28
   2fd48:	1f 91       	pop	r17
   2fd4a:	0f 91       	pop	r16
   2fd4c:	08 95       	ret

Disassembly of section .text._ZN7WiFiUDP4peekEv:

0005fa54 <_ZN7WiFiUDP4peekEv>:
   5fa54:	0f 93       	push	r16
   5fa56:	1f 93       	push	r17
   5fa58:	cf 93       	push	r28
   5fa5a:	df 93       	push	r29
   5fa5c:	1f 92       	push	r1
   5fa5e:	cd b7       	in	r28, 0x3d	; 61
   5fa60:	de b7       	in	r29, 0x3e	; 62
   5fa62:	8c 01       	movw	r16, r24
   5fa64:	dc 01       	movw	r26, r24
   5fa66:	ed 91       	ld	r30, X+
   5fa68:	fc 91       	ld	r31, X
   5fa6a:	04 80       	ldd	r0, Z+4	; 0x04
   5fa6c:	f5 81       	ldd	r31, Z+5	; 0x05
   5fa6e:	e0 2d       	mov	r30, r0
   5fa70:	09 95       	icall
   5fa72:	89 2b       	or	r24, r25
   5fa74:	01 f0       	breq	.+0      	; 0x5fa76 <_ZN7WiFiUDP4peekEv+0x22>
   5fa76:	41 e0       	ldi	r20, 0x01	; 1
   5fa78:	be 01       	movw	r22, r28
   5fa7a:	6f 5f       	subi	r22, 0xFF	; 255
   5fa7c:	7f 4f       	sbci	r23, 0xFF	; 255
   5fa7e:	f8 01       	movw	r30, r16
   5fa80:	84 85       	ldd	r24, Z+12	; 0x0c
   5fa82:	0e 94 00 00 	call	0	; 0x0 <__tmp_reg__>
   5fa86:	89 81       	ldd	r24, Y+1	; 0x01
   5fa88:	90 e0       	ldi	r25, 0x00	; 0
   5fa8a:	00 c0       	rjmp	.+0      	; 0x5fa8c <_ZN7WiFiUDP4peekEv+0x38>
   5fa8c:	8f ef       	ldi	r24, 0xFF	; 255
   5fa8e:	9f ef       	ldi	r25, 0xFF	; 255
   5fa90:	0f 90       	pop	r0
   5fa92:	df 91       	pop	r29
   5fa94:	cf 91       	pop	r28
   5fa96:	1f 91       	pop	r17
   5fa98:	0f 91       	pop	r16
   5fa9a:	08 95       	ret

Disassembly of section .text._ZN7WiFiUDP4readEPhj:

000bf4f0 <_ZN7WiFiUDP4readEPhj>:
   bf4f0:	0f 93       	push	r16
   bf4f2:	1f 93       	push	r17
   bf4f4:	cf 93       	push	r28
   bf4f6:	df 93       	push	r29
   bf4f8:	00 d0       	rcall	.+0      	; 0xbf4fa <_ZN7WiFiUDP4readEPhj+0xa>
   bf4fa:	00 d0       	rcall	.+0      	; 0xbf4fc <_ZN7WiFiUDP4readEPhj+0xc>
   bf4fc:	cd b7       	in	r28, 0x3d	; 61
   bf4fe:	de b7       	in	r29, 0x3e	; 62
   bf500:	8c 01       	movw	r16, r24
   bf502:	dc 01       	movw	r26, r24
   bf504:	ed 91       	ld	r30, X+
   bf506:	fc 91       	ld	r31, X
   bf508:	04 80       	ldd	r0, Z+4	; 0x04
   bf50a:	f5 81       	ldd	r31, Z+5	; 0x05
   bf50c:	e0 2d       	mov	r30, r0
   bf50e:	6b 83       	std	Y+3, r22	; 0x03
   bf510:	7c 83       	std	Y+4, r23	; 0x04
   bf512:	09 95       	icall
   bf514:	6b 81       	ldd	r22, Y+3	; 0x03
   bf516:	7c 81       	ldd	r23, Y+4	; 0x04
   bf518:	89 2b       	or	r24, r25
   bf51a:	01 f0       	breq	.+0      	; 0xbf51c <_ZN7WiFiUDP4readEPhj+0x2c>
   bf51c:	1a 82       	std	Y+2, r1	; 0x02
   bf51e:	19 82       	std	Y+1, r1	; 0x01
   bf520:	ae 01       	movw	r20, r28
   bf522:	4f 5f       	subi	r20, 0xFF	; 255
   bf524:	5f 4f       	sbci	r21, 0xFF	; 255
   bf526:	f8 01       	movw	r30, r16
   bf528:	84 85       	ldd	r24, Z+12	; 0x0c
   bf52a:	0e 94 00 00 	call	0	; 0x0 <__tmp_reg__>
   bf52e:	88 23       	and	r24, r24
   bf530:	01 f0       	breq	.+0      	; 0xbf532 <_ZN7WiFiUDP4readEPhj+0x42>
   bf532:	89 81       	ldd	r24, Y+1	; 0x01
   bf534:	9a 81       	ldd	r25, Y+2	; 0x02
   bf536:	00 c0       	rjmp	.+0      	; 0xbf538 <_ZN7WiFiUDP4readEPhj+0x48>
   bf538:	8f ef       	ldi	r24, 0xFF	; 255
   bf53a:	9f ef       	ldi	r25, 0xFF	; 255
   bf53c:	0f 90       	pop	r0
   bf53e:	0f 90       	pop	r0
   bf540:	0f 90       	pop	r0
   bf542:	0f 90       	pop	r0
   bf544:	df 91       	pop	r29
   bf546:	cf 91       	pop	r28
   bf548:	1f 91       	pop	r17
   bf54a:	0f 91       	pop	r16
   bf54c:	08 95       	ret

Disassembly of section .text._ZN7WiFiUDP10remotePortEv:

0017ea3e <_ZN7WiFiUDP10remotePortEv>:
  17ea3e:	cf 93       	push	r28
  17ea40:	df 93       	push	r29
  17ea42:	00 d0       	rcall	.+0      	; 0x17ea44 <_ZN7WiFiUDP10remotePortEv+0x6>
  17ea44:	00 d0       	rcall	.+0      	; 0x17ea46 <_ZN7WiFiUDP10remotePortEv+0x8>
  17ea46:	00 d0       	rcall	.+0      	; 0x17ea48 <_ZN7WiFiUDP10remotePortEv+0xa>
  17ea48:	cd b7       	in	r28, 0x3d	; 61
  17ea4a:	de b7       	in	r29, 0x3e	; 62
  17ea4c:	19 82       	std	Y+1, r1	; 0x01
  17ea4e:	1a 82       	std	Y+2, r1	; 0x02
  17ea50:	1b 82       	std	Y+3, r1	; 0x03
  17ea52:	1c 82       	std	Y+4, r1	; 0x04
  17ea54:	1e 82       	std	Y+6, r1	; 0x06
  17ea56:	1d 82       	std	Y+5, r1	; 0x05
  17ea58:	ae 01       	movw	r20, r28
  17ea5a:	4b 5f       	subi	r20, 0xFB	; 251
  17ea5c:	5f 4f       	sbci	r21, 0xFF	; 255
  17ea5e:	be 01       	movw	r22, r28
  17ea60:	6f 5f       	subi	r22, 0xFF	; 255
  17ea62:	7f 4f       	sbci	r23, 0xFF	; 255
  17ea64:	fc 01       	movw	r30, r24
  17ea66:	84 85       	ldd	r24, Z+12	; 0x0c
  17ea68:	0e 94 00 00 	call	0	; 0x0 <__tmp_reg__>
  17ea6c:	8d 81       	ldd	r24, Y+5	; 0x05
  17ea6e:	90 e0       	ldi	r25, 0x00	; 0
  17ea70:	98 2f       	mov	r25, r24
  17ea72:	88 27       	eor	r24, r24
  17ea74:	2e 81       	ldd	r18, Y+6	; 0x06
  17ea76:	82 0f       	add	r24, r18
  17ea78:	91 1d       	adc	r25, r1
  17ea7a:	26 96       	adiw	r28, 0x06	; 6
  17ea7c:	0f b6       	in	r0, 0x3f	; 63
  17ea7e:	f8 94       	cli
  17ea80:	de bf       	out	0x3e, r29	; 62
  17ea82:	0f be       	out	0x3f, r0	; 63
  17ea84:	cd bf       	out	0x3d, r28	; 61
  17ea86:	df 91       	pop	r29
  17ea88:	cf 91       	pop	r28
  17ea8a:	08 95       	ret

Disassembly of section .text._ZN7WiFiUDP8remoteIPEv:

002fd4ca <_ZN7WiFiUDP8remoteIPEv>:
  2fd4ca:	0f 93       	push	r16
  2fd4cc:	1f 93       	push	r17
  2fd4ce:	cf 93       	push	r28
  2fd4d0:	df 93       	push	r29
  2fd4d2:	00 d0       	rcall	.+0      	; 0x2fd4d4 <_ZN7WiFiUDP8remoteIPEv+0xa>
  2fd4d4:	00 d0       	rcall	.+0      	; 0x2fd4d6 <_ZN7WiFiUDP8remoteIPEv+0xc>
  2fd4d6:	00 d0       	rcall	.+0      	; 0x2fd4d8 <_ZN7WiFiUDP8remoteIPEv+0xe>
  2fd4d8:	cd b7       	in	r28, 0x3d	; 61
  2fd4da:	de b7       	in	r29, 0x3e	; 62
  2fd4dc:	8c 01       	movw	r16, r24
  2fd4de:	fb 01       	movw	r30, r22
  2fd4e0:	19 82       	std	Y+1, r1	; 0x01
  2fd4e2:	1a 82       	std	Y+2, r1	; 0x02
  2fd4e4:	1b 82       	std	Y+3, r1	; 0x03
  2fd4e6:	1c 82       	std	Y+4, r1	; 0x04
  2fd4e8:	1e 82       	std	Y+6, r1	; 0x06
  2fd4ea:	1d 82       	std	Y+5, r1	; 0x05
  2fd4ec:	ae 01       	movw	r20, r28
  2fd4ee:	4b 5f       	subi	r20, 0xFB	; 251
  2fd4f0:	5f 4f       	sbci	r21, 0xFF	; 255
  2fd4f2:	be 01       	movw	r22, r28
  2fd4f4:	6f 5f       	subi	r22, 0xFF	; 255
  2fd4f6:	7f 4f       	sbci	r23, 0xFF	; 255
  2fd4f8:	84 85       	ldd	r24, Z+12	; 0x0c
  2fd4fa:	0e 94 00 00 	call	0	; 0x0 <__tmp_reg__>
  2fd4fe:	be 01       	movw	r22, r28
  2fd500:	6f 5f       	subi	r22, 0xFF	; 255
  2fd502:	7f 4f       	sbci	r23, 0xFF	; 255
  2fd504:	c8 01       	movw	r24, r16
  2fd506:	0e 94 00 00 	call	0	; 0x0 <__tmp_reg__>
  2fd50a:	c8 01       	movw	r24, r16
  2fd50c:	26 96       	adiw	r28, 0x06	; 6
  2fd50e:	0f b6       	in	r0, 0x3f	; 63
  2fd510:	f8 94       	cli
  2fd512:	de bf       	out	0x3e, r29	; 62
  2fd514:	0f be       	out	0x3f, r0	; 63
  2fd516:	cd bf       	out	0x3d, r28	; 61
  2fd518:	df 91       	pop	r29
  2fd51a:	cf 91       	pop	r28
  2fd51c:	1f 91       	pop	r17
  2fd51e:	0f 91       	pop	r16
  2fd520:	08 95       	ret

Disassembly of section .text._ZN7WiFiUDPC2Ev:

005fa9ec <_ZN7WiFiUDPC1Ev>:
  5fa9ec:	fc 01       	movw	r30, r24
  5fa9ee:	13 82       	std	Z+3, r1	; 0x03
  5fa9f0:	12 82       	std	Z+2, r1	; 0x02
  5fa9f2:	48 ee       	ldi	r20, 0xE8	; 232
  5fa9f4:	53 e0       	ldi	r21, 0x03	; 3
  5fa9f6:	60 e0       	ldi	r22, 0x00	; 0
  5fa9f8:	70 e0       	ldi	r23, 0x00	; 0
  5fa9fa:	44 83       	std	Z+4, r20	; 0x04
  5fa9fc:	55 83       	std	Z+5, r21	; 0x05
  5fa9fe:	66 83       	std	Z+6, r22	; 0x06
  5faa00:	77 83       	std	Z+7, r23	; 0x07
  5faa02:	80 e0       	ldi	r24, 0x00	; 0
  5faa04:	90 e0       	ldi	r25, 0x00	; 0
  5faa06:	91 83       	std	Z+1, r25	; 0x01
  5faa08:	80 83       	st	Z, r24
  5faa0a:	8f ef       	ldi	r24, 0xFF	; 255
  5faa0c:	84 87       	std	Z+12, r24	; 0x0c
  5faa0e:	08 95       	ret

Disassembly of section .text.startup._GLOBAL__sub_I__ZN7WiFiUDPC2Ev:

00bf53fc <_GLOBAL__sub_I__ZN7WiFiUDPC2Ev>:
  bf53fc:	0f 93       	push	r16
  bf53fe:	00 e0       	ldi	r16, 0x00	; 0
  bf5400:	20 e0       	ldi	r18, 0x00	; 0
  bf5402:	40 e0       	ldi	r20, 0x00	; 0
  bf5404:	60 e0       	ldi	r22, 0x00	; 0
  bf5406:	80 e0       	ldi	r24, 0x00	; 0
  bf5408:	90 e0       	ldi	r25, 0x00	; 0
  bf540a:	0e 94 00 00 	call	0	; 0x0 <__tmp_reg__>
  bf540e:	0f 91       	pop	r16
  bf5410:	08 95       	ret

SoftwareSerial.o:     file format elf32-avr

Sections:
Idx Name          Size      VMA       LMA       File off  Algn
  0 .group        00000008  00000000  00000000  00000034  2**2
                  CONTENTS, READONLY, EXCLUDE, GROUP, LINK_ONCE_DISCARD
  1 .group        00000008  00000000  00000000  0000003c  2**2
                  CONTENTS, READONLY, EXCLUDE, GROUP, LINK_ONCE_DISCARD
  2 .text         00000000  00000000  00000000  00000044  2**0
                  CONTENTS, ALLOC, LOAD, READONLY, CODE
  3 .data         00000040  00000000  00000000  00000044  2**0
                  CONTENTS, ALLOC, LOAD, DATA
  4 .bss          00000000  00000000  00000000  00000084  2**0
                  ALLOC
  5 .stab         000012f0  00000000  00000000  00000084  2**2
                  CONTENTS, RELOC, READONLY, DEBUGGING
  6 .stabstr      00001e3c  00000000  00000000  00001374  2**0
                  CONTENTS, READONLY, DEBUGGING
  7 .text._ZN14SoftwareSerial4readEv 00000042  00000000  00000000  000031b0  2**0
                  CONTENTS, ALLOC, LOAD, RELOC, READONLY, CODE
  8 .text._ZN14SoftwareSerial5writeEh 000000a4  00000000  00000000  000031f2  2**0
                  CONTENTS, ALLOC, LOAD, RELOC, READONLY, CODE
  9 .text._ZN14SoftwareSerial5flushEv 00000002  00000000  00000000  00003296  2**0
                  CONTENTS, ALLOC, LOAD, READONLY, CODE
 10 .text._ZN14SoftwareSerial4peekEv 00000030  00000000  00000000  00003298  2**0
                  CONTENTS, ALLOC, LOAD, RELOC, READONLY, CODE
 11 .text._ZN14SoftwareSerial9availableEv 00000030  00000000  00000000  000032c8  2**0
                  CONTENTS, ALLOC, LOAD, RELOC, READONLY, CODE
 12 .text._ZN14SoftwareSerial13stopListeningEv 0000002c  00000000  00000000  000032f8  2**0
                  CONTENTS, ALLOC, LOAD, RELOC, READONLY, CODE
 13 .text._ZN14SoftwareSerial6listenEv 00000052  00000000  00000000  00003324  2**0
                  CONTENTS, ALLOC, LOAD, RELOC, READONLY, CODE
 14 .text._ZN14SoftwareSerial11rx_pin_readEv 0000000e  00000000  00000000  00003376  2**0
                  CONTENTS, ALLOC, LOAD, READONLY, CODE
 15 .text.__vector_3 000000f4  00000000  00000000  00003384  2**0
                  CONTENTS, ALLOC, LOAD, RELOC, READONLY, CODE
 16 .text._ZN14SoftwareSerialD2Ev 0000000e  00000000  00000000  00003478  2**0
                  CONTENTS, ALLOC, LOAD, RELOC, READONLY, CODE
 17 .text._ZN14SoftwareSerial5setTXEh 00000052  00000000  00000000  00003486  2**0
                  CONTENTS, ALLOC, LOAD, RELOC, READONLY, CODE
 18 .text._ZN14SoftwareSerial5setRXEh 00000052  00000000  00000000  000034d8  2**0
                  CONTENTS, ALLOC, LOAD, RELOC, READONLY, CODE
 19 .text._ZN14SoftwareSerialC2Ehhb 00000060  00000000  00000000  0000352a  2**0
                  CONTENTS, ALLOC, LOAD, RELOC, READONLY, CODE
 20 .text._ZN14SoftwareSerial12subtract_capEjj 00000012  00000000  00000000  0000358a  2**0
                  CONTENTS, ALLOC, LOAD, RELOC, READONLY, CODE
 21 .text._ZN14SoftwareSerial5beginEl 0000011c  00000000  00000000  0000359c  2**0
                  CONTENTS, ALLOC, LOAD, RELOC, READONLY, CODE
 22 .text._ZN14SoftwareSerial3endEv 00000004  00000000  00000000  000036b8  2**0
                  CONTENTS, ALLOC, LOAD, RELOC, READONLY, CODE
 23 .rodata._ZTV6Stream 00000010  00000000  00000000  000036bc  2**0
                  CONTENTS, ALLOC, LOAD, RELOC, READONLY, DATA
 24 .rodata._ZTV14SoftwareSerial 00000010  00000000  00000000  000036cc  2**0
                  CONTENTS, ALLOC, LOAD, RELOC, READONLY, DATA
 25 .bss._ZN14SoftwareSerial20_receive_buffer_headE 00000001  00000000  00000000  000036dc  2**0
                  ALLOC
 26 .bss._ZN14SoftwareSerial20_receive_buffer_tailE 00000001  00000000  00000000  000036dc  2**0
                  ALLOC
 27 .bss._ZN14SoftwareSerial15_receive_bufferE 00000040  00000000  00000000  000036dc  2**0
                  ALLOC
 28 .bss._ZN14SoftwareSerial13active_objectE 00000002  00000000  00000000  000036dc  2**0
                  ALLOC
 29 .comment      00000012  00000000  00000000  000036dc  2**0
                  CONTENTS, READONLY

Disassembly of section .text._ZN14SoftwareSerial4readEv:

00000000 <_ZN14SoftwareSerial4readEv>:
      *_pcint_maskreg &= ~_pcint_maskvalue;
}

void SoftwareSerial::end()
{
  stopListening();
   0:	20 91 00 00 	lds	r18, 0x0000
  44:	30 91       	Address 0x0000000000000044 is out of bounds.
.word	0xffff	; ????
  46:	00 00       	Address 0x0000000000000046 is out of bounds.
.word	0xffff	; ????
  48:	28 17       	Address 0x0000000000000048 is out of bounds.
.word	0xffff	; ????
  4a:	39 07       	Address 0x000000000000004a is out of bounds.
.word	0xffff	; ????
  4c:	01 f4       	Address 0x000000000000004c is out of bounds.
.word	0xffff	; ????
  4e:	90 91       	Address 0x000000000000004e is out of bounds.
.word	0xffff	; ????
  50:	00 00       	Address 0x0000000000000050 is out of bounds.
.word	0xffff	; ????
  52:	80 91       	Address 0x0000000000000052 is out of bounds.
.word	0xffff	; ????
  54:	00 00       	Address 0x0000000000000054 is out of bounds.
.word	0xffff	; ????
  56:	98 17       	Address 0x0000000000000056 is out of bounds.
.word	0xffff	; ????
  58:	01 f0       	Address 0x0000000000000058 is out of bounds.
.word	0xffff	; ????
  5a:	e0 91       	Address 0x000000000000005a is out of bounds.
.word	0xffff	; ????
  5c:	00 00       	Address 0x000000000000005c is out of bounds.
.word	0xffff	; ????
  5e:	f0 e0       	Address 0x000000000000005e is out of bounds.
.word	0xffff	; ????
  60:	e0 50       	Address 0x0000000000000060 is out of bounds.
.word	0xffff	; ????
  62:	f0 40       	Address 0x0000000000000062 is out of bounds.
.word	0xffff	; ????
  64:	80 81       	Address 0x0000000000000064 is out of bounds.
.word	0xffff	; ????
  66:	20 91       	Address 0x0000000000000066 is out of bounds.
.word	0xffff	; ????
  68:	00 00       	Address 0x0000000000000068 is out of bounds.
.word	0xffff	; ????
  6a:	30 e0       	Address 0x000000000000006a is out of bounds.
.word	0xffff	; ????
  6c:	2f 5f       	Address 0x000000000000006c is out of bounds.
.word	0xffff	; ????
  6e:	3f 4f       	Address 0x000000000000006e is out of bounds.
.word	0xffff	; ????
  70:	2f 73       	Address 0x0000000000000070 is out of bounds.
.word	0xffff	; ????
  72:	33 27       	Address 0x0000000000000072 is out of bounds.
.word	0xffff	; ????
  74:	20 93       	Address 0x0000000000000074 is out of bounds.
.word	0xffff	; ????
  76:	00 00       	Address 0x0000000000000076 is out of bounds.
.word	0xffff	; ????
  78:	90 e0       	Address 0x0000000000000078 is out of bounds.
.word	0xffff	; ????
  7a:	08 95       	Address 0x000000000000007a is out of bounds.
.word	0xffff	; ????
  7c:	8f ef       	Address 0x000000000000007c is out of bounds.
.word	0xffff	; ????
  7e:	9f ef       	Address 0x000000000000007e is out of bounds.
.word	0xffff	; ????
  80:	08 95       	Address 0x0000000000000080 is out of bounds.
.word	0xffff	; ????

Disassembly of section .text._ZN14SoftwareSerial5writeEh:

000000c2 <_ZN14SoftwareSerial5writeEh>:
  c2:	1f 93       	push	r17
  c4:	cf 93       	push	r28
  c6:	df 93       	push	r29
  c8:	dc 01       	movw	r26, r24
  ca:	5c 96       	adiw	r26, 0x1c	; 28
  cc:	8d 91       	ld	r24, X+
  ce:	9c 91       	ld	r25, X
  d0:	5d 97       	sbiw	r26, 0x1d	; 29
  d2:	00 97       	sbiw	r24, 0x00	; 0
  d4:	01 f4       	brne	.+0      	; 0xd6 <_ZN14SoftwareSerial5writeEh+0x14>
  d6:	81 e0       	ldi	r24, 0x01	; 1
  d8:	90 e0       	ldi	r25, 0x00	; 0
  da:	13 96       	adiw	r26, 0x03	; 3
  dc:	9c 93       	st	X, r25
  de:	8e 93       	st	-X, r24
  e0:	12 97       	sbiw	r26, 0x02	; 2
  e2:	80 e0       	ldi	r24, 0x00	; 0
  e4:	90 e0       	ldi	r25, 0x00	; 0
  e6:	00 c0       	rjmp	.+0      	; 0xe8 <_ZN14SoftwareSerial5writeEh+0x26>
  e8:	51 96       	adiw	r26, 0x11	; 17
  ea:	ed 91       	ld	r30, X+
  ec:	fc 91       	ld	r31, X
  ee:	52 97       	sbiw	r26, 0x12	; 18
  f0:	50 96       	adiw	r26, 0x10	; 16
  f2:	2c 91       	ld	r18, X
  f4:	50 97       	sbiw	r26, 0x10	; 16
  f6:	32 2f       	mov	r19, r18
  f8:	30 95       	com	r19
  fa:	1f b7       	in	r17, 0x3f	; 63
  fc:	5e 96       	adiw	r26, 0x1e	; 30
  fe:	4c 91       	ld	r20, X
 100:	5e 97       	sbiw	r26, 0x1e	; 30
 102:	41 fb       	bst	r20, 1
 104:	77 27       	eor	r23, r23
 106:	70 f9       	bld	r23, 0
 108:	41 fd       	sbrc	r20, 1
 10a:	60 95       	com	r22
 10c:	f8 94       	cli
 10e:	40 81       	ld	r20, Z
 110:	77 23       	and	r23, r23
 112:	01 f0       	breq	.+0      	; 0x114 <_ZN14SoftwareSerial5writeEh+0x52>
 114:	42 2b       	or	r20, r18
 116:	00 c0       	rjmp	.+0      	; 0x118 <_ZN14SoftwareSerial5writeEh+0x56>
 118:	43 23       	and	r20, r19
 11a:	40 83       	st	Z, r20
 11c:	ec 01       	movw	r28, r24
 11e:	21 97       	sbiw	r28, 0x01	; 1
 120:	01 f4       	brne	.+0      	; 0x122 <_ZN14SoftwareSerial5writeEh+0x60>
 122:	48 e0       	ldi	r20, 0x08	; 8
 124:	50 81       	ld	r21, Z
 126:	60 ff       	sbrs	r22, 0
 128:	00 c0       	rjmp	.+0      	; 0x12a <_ZN14SoftwareSerial5writeEh+0x68>
 12a:	52 2b       	or	r21, r18
 12c:	00 c0       	rjmp	.+0      	; 0x12e <_ZN14SoftwareSerial5writeEh+0x6c>
 12e:	53 23       	and	r21, r19
 130:	50 83       	st	Z, r21
 132:	ec 01       	movw	r28, r24
 134:	21 97       	sbiw	r28, 0x01	; 1
 136:	01 f4       	brne	.+0      	; 0x138 <_ZN14SoftwareSerial5writeEh+0x76>
 138:	66 95       	lsr	r22
 13a:	41 50       	subi	r20, 0x01	; 1
 13c:	01 f4       	brne	.+0      	; 0x13e <_ZN14SoftwareSerial5writeEh+0x7c>
 13e:	80 81       	ld	r24, Z
 140:	77 23       	and	r23, r23
 142:	01 f0       	breq	.+0      	; 0x144 <_ZN14SoftwareSerial5writeEh+0x82>
 144:	83 23       	and	r24, r19
 146:	00 c0       	rjmp	.+0      	; 0x148 <_ZN14SoftwareSerial5writeEh+0x86>
 148:	82 2b       	or	r24, r18
 14a:	80 83       	st	Z, r24
 14c:	1f bf       	out	0x3f, r17	; 63
 14e:	5c 96       	adiw	r26, 0x1c	; 28
 150:	8d 91       	ld	r24, X+
 152:	9c 91       	ld	r25, X
 154:	5d 97       	sbiw	r26, 0x1d	; 29
 156:	01 97       	sbiw	r24, 0x01	; 1
 158:	01 f4       	brne	.+0      	; 0x15a <_ZN14SoftwareSerial5writeEh+0x98>
 15a:	81 e0       	ldi	r24, 0x01	; 1
 15c:	90 e0       	ldi	r25, 0x00	; 0
 15e:	df 91       	pop	r29
 160:	cf 91       	pop	r28
 162:	1f 91       	pop	r17
 164:	08 95       	ret

Disassembly of section .text._ZN14SoftwareSerial5flushEv:

00000228 <_ZN14SoftwareSerial5flushEv>:
 228:	08 95       	ret

Disassembly of section .text._ZN14SoftwareSerial4peekEv:

00000452 <_ZN14SoftwareSerial4peekEv>:
 452:	20 91 00 00 	lds	r18, 0x0000
 456:	30 91 00 00 	lds	r19, 0x0000
 45a:	28 17       	cp	r18, r24
 45c:	39 07       	cpc	r19, r25
 45e:	01 f4       	brne	.+0      	; 0x460 <_ZN14SoftwareSerial4peekEv+0xe>
 460:	90 91 00 00 	lds	r25, 0x0000
 464:	80 91 00 00 	lds	r24, 0x0000
 468:	98 17       	cp	r25, r24
 46a:	01 f0       	breq	.+0      	; 0x46c <_ZN14SoftwareSerial4peekEv+0x1a>
 46c:	e0 91 00 00 	lds	r30, 0x0000
 470:	f0 e0       	ldi	r31, 0x00	; 0
 472:	e0 50       	subi	r30, 0x00	; 0
 474:	f0 40       	sbci	r31, 0x00	; 0
 476:	80 81       	ld	r24, Z
 478:	90 e0       	ldi	r25, 0x00	; 0
 47a:	08 95       	ret
 47c:	8f ef       	ldi	r24, 0xFF	; 255
 47e:	9f ef       	ldi	r25, 0xFF	; 255
 480:	08 95       	ret

Disassembly of section .text._ZN14SoftwareSerial9availableEv:

000008d4 <_ZN14SoftwareSerial9availableEv>:
 8d4:	20 91 00 00 	lds	r18, 0x0000
 8d8:	30 91 00 00 	lds	r19, 0x0000
 8dc:	28 17       	cp	r18, r24
 8de:	39 07       	cpc	r19, r25
 8e0:	01 f4       	brne	.+0      	; 0x8e2 <_ZN14SoftwareSerial9availableEv+0xe>
 8e2:	80 91 00 00 	lds	r24, 0x0000
 8e6:	20 91 00 00 	lds	r18, 0x0000
 8ea:	90 e0       	ldi	r25, 0x00	; 0
 8ec:	80 5c       	subi	r24, 0xC0	; 192
 8ee:	9f 4f       	sbci	r25, 0xFF	; 255
 8f0:	82 1b       	sub	r24, r18
 8f2:	91 09       	sbc	r25, r1
 8f4:	60 e4       	ldi	r22, 0x40	; 64
 8f6:	70 e0       	ldi	r23, 0x00	; 0
 8f8:	0e 94 00 00 	call	0	; 0x0 <__tmp_reg__>
 8fc:	08 95       	ret
 8fe:	80 e0       	ldi	r24, 0x00	; 0
 900:	90 e0       	ldi	r25, 0x00	; 0
 902:	08 95       	ret

Disassembly of section .text._ZN14SoftwareSerial13stopListeningEv:

000011d8 <_ZN14SoftwareSerial13stopListeningEv>:
    11d8:	e0 91 00 00 	lds	r30, 0x0000
    11dc:	f0 91 00 00 	lds	r31, 0x0000
    11e0:	e8 17       	cp	r30, r24
    11e2:	f9 07       	cpc	r31, r25
    11e4:	01 f4       	brne	.+0      	; 0x11e6 <_ZN14SoftwareSerial13stopListeningEv+0xe>
    11e6:	a3 89       	ldd	r26, Z+19	; 0x13
    11e8:	b4 89       	ldd	r27, Z+20	; 0x14
    11ea:	9c 91       	ld	r25, X
    11ec:	85 89       	ldd	r24, Z+21	; 0x15
    11ee:	80 95       	com	r24
    11f0:	89 23       	and	r24, r25
    11f2:	8c 93       	st	X, r24
    11f4:	10 92 00 00 	sts	0x0000, r1
    11f8:	10 92 00 00 	sts	0x0000, r1
    11fc:	81 e0       	ldi	r24, 0x01	; 1
    11fe:	08 95       	ret
    1200:	80 e0       	ldi	r24, 0x00	; 0
    1202:	08 95       	ret

Disassembly of section .text._ZN14SoftwareSerial6listenEv:

000023dc <_ZN14SoftwareSerial6listenEv>:
    23dc:	cf 93       	push	r28
    23de:	df 93       	push	r29
    23e0:	ec 01       	movw	r28, r24
    23e2:	8a 8d       	ldd	r24, Y+26	; 0x1a
    23e4:	9b 8d       	ldd	r25, Y+27	; 0x1b
    23e6:	89 2b       	or	r24, r25
    23e8:	01 f0       	breq	.+0      	; 0x23ea <_ZN14SoftwareSerial6listenEv+0xe>
    23ea:	80 91 00 00 	lds	r24, 0x0000
    23ee:	90 91 00 00 	lds	r25, 0x0000
    23f2:	8c 17       	cp	r24, r28
    23f4:	9d 07       	cpc	r25, r29
    23f6:	01 f0       	breq	.+0      	; 0x23f8 <_ZN14SoftwareSerial6listenEv+0x1c>
    23f8:	00 97       	sbiw	r24, 0x00	; 0
    23fa:	01 f0       	breq	.+0      	; 0x23fc <_ZN14SoftwareSerial6listenEv+0x20>
    23fc:	0e 94 00 00 	call	0	; 0x0 <__tmp_reg__>
    2400:	8e 8d       	ldd	r24, Y+30	; 0x1e
    2402:	8e 7f       	andi	r24, 0xFE	; 254
    2404:	8e 8f       	std	Y+30, r24	; 0x1e
    2406:	10 92 00 00 	sts	0x0000, r1
    240a:	10 92 00 00 	sts	0x0000, r1
    240e:	d0 93 00 00 	sts	0x0000, r29
    2412:	c0 93 00 00 	sts	0x0000, r28
    2416:	eb 89       	ldd	r30, Y+19	; 0x13
    2418:	fc 89       	ldd	r31, Y+20	; 0x14
    241a:	80 81       	ld	r24, Z
    241c:	9d 89       	ldd	r25, Y+21	; 0x15
    241e:	89 2b       	or	r24, r25
    2420:	80 83       	st	Z, r24
    2422:	81 e0       	ldi	r24, 0x01	; 1
    2424:	00 c0       	rjmp	.+0      	; 0x2426 <_ZN14SoftwareSerial6listenEv+0x4a>
    2426:	80 e0       	ldi	r24, 0x00	; 0
    2428:	df 91       	pop	r29
    242a:	cf 91       	pop	r28
    242c:	08 95       	ret

Disassembly of section .text._ZN14SoftwareSerial11rx_pin_readEv:

0000480a <_ZN14SoftwareSerial11rx_pin_readEv>:
    480a:	fc 01       	movw	r30, r24
    480c:	a6 85       	ldd	r26, Z+14	; 0x0e
    480e:	b7 85       	ldd	r27, Z+15	; 0x0f
    4810:	9c 91       	ld	r25, X
    4812:	85 85       	ldd	r24, Z+13	; 0x0d
    4814:	89 23       	and	r24, r25
    4816:	08 95       	ret

Disassembly of section .text.__vector_3:

00009022 <__vector_3>:
    9022:	1f 92       	push	r1
    9024:	0f 92       	push	r0
    9026:	0f b6       	in	r0, 0x3f	; 63
    9028:	0f 92       	push	r0
    902a:	11 24       	eor	r1, r1
    902c:	2f 93       	push	r18
    902e:	3f 93       	push	r19
    9030:	4f 93       	push	r20
    9032:	5f 93       	push	r21
    9034:	6f 93       	push	r22
    9036:	7f 93       	push	r23
    9038:	8f 93       	push	r24
    903a:	9f 93       	push	r25
    903c:	af 93       	push	r26
    903e:	bf 93       	push	r27
    9040:	ef 93       	push	r30
    9042:	ff 93       	push	r31
    9044:	e0 91 00 00 	lds	r30, 0x0000
    9048:	f0 91 00 00 	lds	r31, 0x0000
    904c:	30 97       	sbiw	r30, 0x00	; 0
    904e:	01 f4       	brne	.+0      	; 0x9050 <__vector_3+0x2e>
    9050:	00 c0       	rjmp	.+0      	; 0x9052 <__vector_3+0x30>
    9052:	86 8d       	ldd	r24, Z+30	; 0x1e
    9054:	a6 85       	ldd	r26, Z+14	; 0x0e
    9056:	b7 85       	ldd	r27, Z+15	; 0x0f
    9058:	95 85       	ldd	r25, Z+13	; 0x0d
    905a:	81 ff       	sbrs	r24, 1
    905c:	00 c0       	rjmp	.+0      	; 0x905e <__vector_3+0x3c>
    905e:	8c 91       	ld	r24, X
    9060:	89 23       	and	r24, r25
    9062:	01 f4       	brne	.+0      	; 0x9064 <__vector_3+0x42>
    9064:	00 c0       	rjmp	.+0      	; 0x9066 <__vector_3+0x44>
    9066:	8c 91       	ld	r24, X
    9068:	89 23       	and	r24, r25
    906a:	01 f0       	breq	.+0      	; 0x906c <__vector_3+0x4a>
    906c:	00 c0       	rjmp	.+0      	; 0x906e <__vector_3+0x4c>
    906e:	a3 89       	ldd	r26, Z+19	; 0x13
    9070:	b4 89       	ldd	r27, Z+20	; 0x14
    9072:	9c 91       	ld	r25, X
    9074:	85 89       	ldd	r24, Z+21	; 0x15
    9076:	80 95       	com	r24
    9078:	89 23       	and	r24, r25
    907a:	8c 93       	st	X, r24
    907c:	86 89       	ldd	r24, Z+22	; 0x16
    907e:	97 89       	ldd	r25, Z+23	; 0x17
    9080:	01 97       	sbiw	r24, 0x01	; 1
    9082:	01 f4       	brne	.+0      	; 0x9084 <__vector_3+0x62>
    9084:	20 8d       	ldd	r18, Z+24	; 0x18
    9086:	31 8d       	ldd	r19, Z+25	; 0x19
    9088:	a6 85       	ldd	r26, Z+14	; 0x0e
    908a:	b7 85       	ldd	r27, Z+15	; 0x0f
    908c:	75 85       	ldd	r23, Z+13	; 0x0d
    908e:	58 e0       	ldi	r21, 0x08	; 8
    9090:	40 e0       	ldi	r20, 0x00	; 0
    9092:	c9 01       	movw	r24, r18
    9094:	01 97       	sbiw	r24, 0x01	; 1
    9096:	01 f4       	brne	.+0      	; 0x9098 <__vector_3+0x76>
    9098:	84 2f       	mov	r24, r20
    909a:	90 e0       	ldi	r25, 0x00	; 0
    909c:	95 95       	asr	r25
    909e:	87 95       	ror	r24
    90a0:	48 2f       	mov	r20, r24
    90a2:	6c 91       	ld	r22, X
    90a4:	67 23       	and	r22, r23
    90a6:	01 f0       	breq	.+0      	; 0x90a8 <__vector_3+0x86>
    90a8:	40 68       	ori	r20, 0x80	; 128
    90aa:	51 50       	subi	r21, 0x01	; 1
    90ac:	01 f4       	brne	.+0      	; 0x90ae <__vector_3+0x8c>
    90ae:	86 8d       	ldd	r24, Z+30	; 0x1e
    90b0:	81 fd       	sbrc	r24, 1
    90b2:	40 95       	com	r20
    90b4:	80 91 00 00 	lds	r24, 0x0000
    90b8:	90 e0       	ldi	r25, 0x00	; 0
    90ba:	01 96       	adiw	r24, 0x01	; 1
    90bc:	8f 73       	andi	r24, 0x3F	; 63
    90be:	99 27       	eor	r25, r25
    90c0:	20 91 00 00 	lds	r18, 0x0000
    90c4:	28 17       	cp	r18, r24
    90c6:	01 f0       	breq	.+0      	; 0x90c8 <__vector_3+0xa6>
    90c8:	a0 91 00 00 	lds	r26, 0x0000
    90cc:	b0 e0       	ldi	r27, 0x00	; 0
    90ce:	a0 50       	subi	r26, 0x00	; 0
    90d0:	b0 40       	sbci	r27, 0x00	; 0
    90d2:	4c 93       	st	X, r20
    90d4:	80 93 00 00 	sts	0x0000, r24
    90d8:	00 c0       	rjmp	.+0      	; 0x90da <__vector_3+0xb8>
    90da:	86 8d       	ldd	r24, Z+30	; 0x1e
    90dc:	81 60       	ori	r24, 0x01	; 1
    90de:	86 8f       	std	Z+30, r24	; 0x1e
    90e0:	82 8d       	ldd	r24, Z+26	; 0x1a
    90e2:	93 8d       	ldd	r25, Z+27	; 0x1b
    90e4:	01 97       	sbiw	r24, 0x01	; 1
    90e6:	01 f4       	brne	.+0      	; 0x90e8 <__vector_3+0xc6>
    90e8:	a3 89       	ldd	r26, Z+19	; 0x13
    90ea:	b4 89       	ldd	r27, Z+20	; 0x14
    90ec:	8c 91       	ld	r24, X
    90ee:	95 89       	ldd	r25, Z+21	; 0x15
    90f0:	89 2b       	or	r24, r25
    90f2:	8c 93       	st	X, r24
    90f4:	ff 91       	pop	r31
    90f6:	ef 91       	pop	r30
    90f8:	bf 91       	pop	r27
    90fa:	af 91       	pop	r26
    90fc:	9f 91       	pop	r25
    90fe:	8f 91       	pop	r24
    9100:	7f 91       	pop	r23
    9102:	6f 91       	pop	r22
    9104:	5f 91       	pop	r21
    9106:	4f 91       	pop	r20
    9108:	3f 91       	pop	r19
    910a:	2f 91       	pop	r18
    910c:	0f 90       	pop	r0
    910e:	0f be       	out	0x3f, r0	; 63
    9110:	0f 90       	pop	r0
    9112:	1f 90       	pop	r1
    9114:	18 95       	reti

Disassembly of section .text._ZN14SoftwareSerialD2Ev:

00012138 <_ZN14SoftwareSerialD1Ev>:
   12138:	20 e0       	ldi	r18, 0x00	; 0
   1213a:	30 e0       	ldi	r19, 0x00	; 0
   1213c:	fc 01       	movw	r30, r24
   1213e:	31 83       	std	Z+1, r19	; 0x01
   12140:	20 83       	st	Z, r18
   12142:	0c 94 00 00 	jmp	0	; 0x0 <__tmp_reg__>

Disassembly of section .text._ZN14SoftwareSerial5setTXEh:

0002427e <_ZN14SoftwareSerial5setTXEh>:
   2427e:	1f 93       	push	r17
   24280:	cf 93       	push	r28
   24282:	df 93       	push	r29
   24284:	ec 01       	movw	r28, r24
   24286:	16 2f       	mov	r17, r22
   24288:	6e 8d       	ldd	r22, Y+30	; 0x1e
   2428a:	66 95       	lsr	r22
   2428c:	61 70       	andi	r22, 0x01	; 1
   2428e:	81 e0       	ldi	r24, 0x01	; 1
   24290:	68 27       	eor	r22, r24
   24292:	81 2f       	mov	r24, r17
   24294:	0e 94 00 00 	call	0	; 0x0 <__tmp_reg__>
   24298:	61 e0       	ldi	r22, 0x01	; 1
   2429a:	81 2f       	mov	r24, r17
   2429c:	0e 94 00 00 	call	0	; 0x0 <__tmp_reg__>
   242a0:	81 2f       	mov	r24, r17
   242a2:	90 e0       	ldi	r25, 0x00	; 0
   242a4:	fc 01       	movw	r30, r24
   242a6:	e0 50       	subi	r30, 0x00	; 0
   242a8:	f0 40       	sbci	r31, 0x00	; 0
   242aa:	e4 91       	lpm	r30, Z
   242ac:	e8 8b       	std	Y+16, r30	; 0x10
   242ae:	fc 01       	movw	r30, r24
   242b0:	e0 50       	subi	r30, 0x00	; 0
   242b2:	f0 40       	sbci	r31, 0x00	; 0
   242b4:	e4 91       	lpm	r30, Z
   242b6:	f0 e0       	ldi	r31, 0x00	; 0
   242b8:	ee 0f       	add	r30, r30
   242ba:	ff 1f       	adc	r31, r31
   242bc:	e0 50       	subi	r30, 0x00	; 0
   242be:	f0 40       	sbci	r31, 0x00	; 0
   242c0:	85 91       	lpm	r24, Z+
   242c2:	94 91       	lpm	r25, Z
   242c4:	9a 8b       	std	Y+18, r25	; 0x12
   242c6:	89 8b       	std	Y+17, r24	; 0x11
   242c8:	df 91       	pop	r29
   242ca:	cf 91       	pop	r28
   242cc:	1f 91       	pop	r17
   242ce:	08 95       	ret

Disassembly of section .text._ZN14SoftwareSerial5setRXEh:

0004854e <_ZN14SoftwareSerial5setRXEh>:
   4854e:	1f 93       	push	r17
   48550:	cf 93       	push	r28
   48552:	df 93       	push	r29
   48554:	ec 01       	movw	r28, r24
   48556:	16 2f       	mov	r17, r22
   48558:	60 e0       	ldi	r22, 0x00	; 0
   4855a:	81 2f       	mov	r24, r17
   4855c:	0e 94 00 00 	call	0	; 0x0 <__tmp_reg__>
   48560:	8e 8d       	ldd	r24, Y+30	; 0x1e
   48562:	81 fd       	sbrc	r24, 1
   48564:	00 c0       	rjmp	.+0      	; 0x48566 <_ZN14SoftwareSerial5setRXEh+0x18>
   48566:	61 e0       	ldi	r22, 0x01	; 1
   48568:	81 2f       	mov	r24, r17
   4856a:	0e 94 00 00 	call	0	; 0x0 <__tmp_reg__>
   4856e:	1c 87       	std	Y+12, r17	; 0x0c
   48570:	81 2f       	mov	r24, r17
   48572:	90 e0       	ldi	r25, 0x00	; 0
   48574:	fc 01       	movw	r30, r24
   48576:	e0 50       	subi	r30, 0x00	; 0
   48578:	f0 40       	sbci	r31, 0x00	; 0
   4857a:	e4 91       	lpm	r30, Z
   4857c:	ed 87       	std	Y+13, r30	; 0x0d
   4857e:	fc 01       	movw	r30, r24
   48580:	e0 50       	subi	r30, 0x00	; 0
   48582:	f0 40       	sbci	r31, 0x00	; 0
   48584:	e4 91       	lpm	r30, Z
   48586:	f0 e0       	ldi	r31, 0x00	; 0
   48588:	ee 0f       	add	r30, r30
   4858a:	ff 1f       	adc	r31, r31
   4858c:	e0 50       	subi	r30, 0x00	; 0
   4858e:	f0 40       	sbci	r31, 0x00	; 0
   48590:	85 91       	lpm	r24, Z+
   48592:	94 91       	lpm	r25, Z
   48594:	9f 87       	std	Y+15, r25	; 0x0f
   48596:	8e 87       	std	Y+14, r24	; 0x0e
   48598:	df 91       	pop	r29
   4859a:	cf 91       	pop	r28
   4859c:	1f 91       	pop	r17
   4859e:	08 95       	ret

Disassembly of section .text._ZN14SoftwareSerialC2Ehhb:

00090aee <_ZN14SoftwareSerialC1Ehhb>:
   90aee:	ff 92       	push	r15
   90af0:	0f 93       	push	r16
   90af2:	1f 93       	push	r17
   90af4:	cf 93       	push	r28
   90af6:	df 93       	push	r29
   90af8:	ec 01       	movw	r28, r24
   90afa:	f6 2e       	mov	r15, r22
   90afc:	52 2f       	mov	r21, r18
   90afe:	1b 82       	std	Y+3, r1	; 0x03
   90b00:	1a 82       	std	Y+2, r1	; 0x02
   90b02:	08 ee       	ldi	r16, 0xE8	; 232
   90b04:	13 e0       	ldi	r17, 0x03	; 3
   90b06:	20 e0       	ldi	r18, 0x00	; 0
   90b08:	30 e0       	ldi	r19, 0x00	; 0
   90b0a:	0c 83       	std	Y+4, r16	; 0x04
   90b0c:	1d 83       	std	Y+5, r17	; 0x05
   90b0e:	2e 83       	std	Y+6, r18	; 0x06
   90b10:	3f 83       	std	Y+7, r19	; 0x07
   90b12:	80 e0       	ldi	r24, 0x00	; 0
   90b14:	90 e0       	ldi	r25, 0x00	; 0
   90b16:	99 83       	std	Y+1, r25	; 0x01
   90b18:	88 83       	st	Y, r24
   90b1a:	1f 8a       	std	Y+23, r1	; 0x17
   90b1c:	1e 8a       	std	Y+22, r1	; 0x16
   90b1e:	19 8e       	std	Y+25, r1	; 0x19
   90b20:	18 8e       	std	Y+24, r1	; 0x18
   90b22:	1b 8e       	std	Y+27, r1	; 0x1b
   90b24:	1a 8e       	std	Y+26, r1	; 0x1a
   90b26:	1d 8e       	std	Y+29, r1	; 0x1d
   90b28:	1c 8e       	std	Y+28, r1	; 0x1c
   90b2a:	8e 8d       	ldd	r24, Y+30	; 0x1e
   90b2c:	8e 7f       	andi	r24, 0xFE	; 254
   90b2e:	50 fb       	bst	r21, 0
   90b30:	81 f9       	bld	r24, 1
   90b32:	8e 8f       	std	Y+30, r24	; 0x1e
   90b34:	64 2f       	mov	r22, r20
   90b36:	ce 01       	movw	r24, r28
   90b38:	0e 94 00 00 	call	0	; 0x0 <__tmp_reg__>
   90b3c:	6f 2d       	mov	r22, r15
   90b3e:	ce 01       	movw	r24, r28
   90b40:	df 91       	pop	r29
   90b42:	cf 91       	pop	r28
   90b44:	1f 91       	pop	r17
   90b46:	0f 91       	pop	r16
   90b48:	ff 90       	pop	r15
   90b4a:	0c 94 00 00 	jmp	0	; 0x0 <__tmp_reg__>

Disassembly of section .text._ZN14SoftwareSerial12subtract_capEjj:

0012163c <_ZN14SoftwareSerial12subtract_capEjj>:
  12163c:	68 17       	cp	r22, r24
  12163e:	79 07       	cpc	r23, r25
  121640:	00 f4       	brcc	.+0      	; 0x121642 <_ZN14SoftwareSerial12subtract_capEjj+0x6>
  121642:	86 1b       	sub	r24, r22
  121644:	97 0b       	sbc	r25, r23
  121646:	08 95       	ret
  121648:	81 e0       	ldi	r24, 0x01	; 1
  12164a:	90 e0       	ldi	r25, 0x00	; 0
  12164c:	08 95       	ret

Disassembly of section .text._ZN14SoftwareSerial5beginEl:

00242c8a <_ZN14SoftwareSerial5beginEl>:
  242c8a:	cf 93       	push	r28
  242c8c:	df 93       	push	r29
  242c8e:	ec 01       	movw	r28, r24
  242c90:	9a 01       	movw	r18, r20
  242c92:	ab 01       	movw	r20, r22
  242c94:	1b 8e       	std	Y+27, r1	; 0x1b
  242c96:	1a 8e       	std	Y+26, r1	; 0x1a
  242c98:	19 8e       	std	Y+25, r1	; 0x19
  242c9a:	18 8e       	std	Y+24, r1	; 0x18
  242c9c:	1f 8a       	std	Y+23, r1	; 0x17
  242c9e:	1e 8a       	std	Y+22, r1	; 0x16
  242ca0:	60 e0       	ldi	r22, 0x00	; 0
  242ca2:	79 e0       	ldi	r23, 0x09	; 9
  242ca4:	8d e3       	ldi	r24, 0x3D	; 61
  242ca6:	90 e0       	ldi	r25, 0x00	; 0
  242ca8:	0e 94 00 00 	call	0	; 0x0 <__tmp_reg__>
  242cac:	c9 01       	movw	r24, r18
  242cae:	24 30       	cpi	r18, 0x04	; 4
  242cb0:	31 05       	cpc	r19, r1
  242cb2:	00 f0       	brcs	.+0      	; 0x242cb4 <_ZN14SoftwareSerial5beginEl+0x2a>
  242cb4:	b9 01       	movw	r22, r18
  242cb6:	63 50       	subi	r22, 0x03	; 3
  242cb8:	71 09       	sbc	r23, r1
  242cba:	00 c0       	rjmp	.+0      	; 0x242cbc <_ZN14SoftwareSerial5beginEl+0x32>
  242cbc:	61 e0       	ldi	r22, 0x01	; 1
  242cbe:	70 e0       	ldi	r23, 0x00	; 0
  242cc0:	7d 8f       	std	Y+29, r23	; 0x1d
  242cc2:	6c 8f       	std	Y+28, r22	; 0x1c
  242cc4:	ec 85       	ldd	r30, Y+12	; 0x0c
  242cc6:	e6 31       	cpi	r30, 0x16	; 22
  242cc8:	00 f0       	brcs	.+0      	; 0x242cca <_ZN14SoftwareSerial5beginEl+0x40>
  242cca:	00 c0       	rjmp	.+0      	; 0x242ccc <_ZN14SoftwareSerial5beginEl+0x42>
  242ccc:	b9 01       	movw	r22, r18
  242cce:	76 95       	lsr	r23
  242cd0:	67 95       	ror	r22
  242cd2:	64 31       	cpi	r22, 0x14	; 20
  242cd4:	71 05       	cpc	r23, r1
  242cd6:	00 f0       	brcs	.+0      	; 0x242cd8 <_ZN14SoftwareSerial5beginEl+0x4e>
  242cd8:	63 51       	subi	r22, 0x13	; 19
  242cda:	71 09       	sbc	r23, r1
  242cdc:	00 c0       	rjmp	.+0      	; 0x242cde <_ZN14SoftwareSerial5beginEl+0x54>
  242cde:	61 e0       	ldi	r22, 0x01	; 1
  242ce0:	70 e0       	ldi	r23, 0x00	; 0
  242ce2:	7f 8b       	std	Y+23, r23	; 0x17
  242ce4:	6e 8b       	std	Y+22, r22	; 0x16
  242ce6:	06 97       	sbiw	r24, 0x06	; 6
  242ce8:	00 f0       	brcs	.+0      	; 0x242cea <_ZN14SoftwareSerial5beginEl+0x60>
  242cea:	c9 01       	movw	r24, r18
  242cec:	05 97       	sbiw	r24, 0x05	; 5
  242cee:	00 c0       	rjmp	.+0      	; 0x242cf0 <_ZN14SoftwareSerial5beginEl+0x66>
  242cf0:	81 e0       	ldi	r24, 0x01	; 1
  242cf2:	90 e0       	ldi	r25, 0x00	; 0
  242cf4:	99 8f       	std	Y+25, r25	; 0x19
  242cf6:	88 8f       	std	Y+24, r24	; 0x18
  242cf8:	c9 01       	movw	r24, r18
  242cfa:	88 0f       	add	r24, r24
  242cfc:	99 1f       	adc	r25, r25
  242cfe:	82 0f       	add	r24, r18
  242d00:	93 1f       	adc	r25, r19
  242d02:	96 95       	lsr	r25
  242d04:	87 95       	ror	r24
  242d06:	96 95       	lsr	r25
  242d08:	87 95       	ror	r24
  242d0a:	8d 30       	cpi	r24, 0x0D	; 13
  242d0c:	91 05       	cpc	r25, r1
  242d0e:	00 f0       	brcs	.+0      	; 0x242d10 <_ZN14SoftwareSerial5beginEl+0x86>
  242d10:	0c 97       	sbiw	r24, 0x0c	; 12
  242d12:	00 c0       	rjmp	.+0      	; 0x242d14 <_ZN14SoftwareSerial5beginEl+0x8a>
  242d14:	81 e0       	ldi	r24, 0x01	; 1
  242d16:	90 e0       	ldi	r25, 0x00	; 0
  242d18:	9b 8f       	std	Y+27, r25	; 0x1b
  242d1a:	8a 8f       	std	Y+26, r24	; 0x1a
  242d1c:	20 91 68 00 	lds	r18, 0x0068
  242d20:	e8 30       	cpi	r30, 0x08	; 8
  242d22:	00 f0       	brcs	.+0      	; 0x242d24 <_ZN14SoftwareSerial5beginEl+0x9a>
  242d24:	91 e0       	ldi	r25, 0x01	; 1
  242d26:	ee 30       	cpi	r30, 0x0E	; 14
  242d28:	00 f4       	brcc	.+0      	; 0x242d2a <_ZN14SoftwareSerial5beginEl+0xa0>
  242d2a:	90 e0       	ldi	r25, 0x00	; 0
  242d2c:	81 e0       	ldi	r24, 0x01	; 1
  242d2e:	00 c0       	rjmp	.+0      	; 0x242d30 <_ZN14SoftwareSerial5beginEl+0xa6>
  242d30:	88 0f       	add	r24, r24
  242d32:	9a 95       	dec	r25
  242d34:	02 f4       	brpl	.+0      	; 0x242d36 <_ZN14SoftwareSerial5beginEl+0xac>
  242d36:	00 c0       	rjmp	.+0      	; 0x242d38 <_ZN14SoftwareSerial5beginEl+0xae>
  242d38:	84 e0       	ldi	r24, 0x04	; 4
  242d3a:	82 2b       	or	r24, r18
  242d3c:	80 93 68 00 	sts	0x0068, r24
  242d40:	2c 85       	ldd	r18, Y+12	; 0x0c
  242d42:	28 30       	cpi	r18, 0x08	; 8
  242d44:	00 f0       	brcs	.+0      	; 0x242d46 <_ZN14SoftwareSerial5beginEl+0xbc>
  242d46:	2e 30       	cpi	r18, 0x0E	; 14
  242d48:	00 f0       	brcs	.+0      	; 0x242d4a <_ZN14SoftwareSerial5beginEl+0xc0>
  242d4a:	26 31       	cpi	r18, 0x16	; 22
  242d4c:	00 f4       	brcc	.+0      	; 0x242d4e <_ZN14SoftwareSerial5beginEl+0xc4>
  242d4e:	8c e6       	ldi	r24, 0x6C	; 108
  242d50:	90 e0       	ldi	r25, 0x00	; 0
  242d52:	00 c0       	rjmp	.+0      	; 0x242d54 <_ZN14SoftwareSerial5beginEl+0xca>
  242d54:	8d e6       	ldi	r24, 0x6D	; 109
  242d56:	90 e0       	ldi	r25, 0x00	; 0
  242d58:	00 c0       	rjmp	.+0      	; 0x242d5a <_ZN14SoftwareSerial5beginEl+0xd0>
  242d5a:	8b e6       	ldi	r24, 0x6B	; 107
  242d5c:	90 e0       	ldi	r25, 0x00	; 0
  242d5e:	00 c0       	rjmp	.+0      	; 0x242d60 <_ZN14SoftwareSerial5beginEl+0xd6>
  242d60:	80 e0       	ldi	r24, 0x00	; 0
  242d62:	90 e0       	ldi	r25, 0x00	; 0
  242d64:	9c 8b       	std	Y+20, r25	; 0x14
  242d66:	8b 8b       	std	Y+19, r24	; 0x13
  242d68:	28 30       	cpi	r18, 0x08	; 8
  242d6a:	00 f4       	brcc	.+0      	; 0x242d6c <_ZN14SoftwareSerial5beginEl+0xe2>
  242d6c:	81 e0       	ldi	r24, 0x01	; 1
  242d6e:	00 c0       	rjmp	.+0      	; 0x242d70 <_ZN14SoftwareSerial5beginEl+0xe6>
  242d70:	88 0f       	add	r24, r24
  242d72:	2a 95       	dec	r18
  242d74:	02 f4       	brpl	.+0      	; 0x242d76 <_ZN14SoftwareSerial5beginEl+0xec>
  242d76:	00 c0       	rjmp	.+0      	; 0x242d78 <_ZN14SoftwareSerial5beginEl+0xee>
  242d78:	82 2f       	mov	r24, r18
  242d7a:	90 e0       	ldi	r25, 0x00	; 0
  242d7c:	2e 30       	cpi	r18, 0x0E	; 14
  242d7e:	00 f4       	brcc	.+0      	; 0x242d80 <_ZN14SoftwareSerial5beginEl+0xf6>
  242d80:	08 97       	sbiw	r24, 0x08	; 8
  242d82:	00 c0       	rjmp	.+0      	; 0x242d84 <_ZN14SoftwareSerial5beginEl+0xfa>
  242d84:	0e 97       	sbiw	r24, 0x0e	; 14
  242d86:	91 e0       	ldi	r25, 0x01	; 1
  242d88:	00 c0       	rjmp	.+0      	; 0x242d8a <_ZN14SoftwareSerial5beginEl+0x100>
  242d8a:	99 0f       	add	r25, r25
  242d8c:	8a 95       	dec	r24
  242d8e:	02 f4       	brpl	.+0      	; 0x242d90 <_ZN14SoftwareSerial5beginEl+0x106>
  242d90:	89 2f       	mov	r24, r25
  242d92:	8d 8b       	std	Y+21, r24	; 0x15
  242d94:	8c 8d       	ldd	r24, Y+28	; 0x1c
  242d96:	9d 8d       	ldd	r25, Y+29	; 0x1d
  242d98:	01 97       	sbiw	r24, 0x01	; 1
  242d9a:	01 f4       	brne	.+0      	; 0x242d9c <_ZN14SoftwareSerial5beginEl+0x112>
  242d9c:	ce 01       	movw	r24, r28
  242d9e:	df 91       	pop	r29
  242da0:	cf 91       	pop	r28
  242da2:	0c 94 00 00 	jmp	0	; 0x0 <__tmp_reg__>

Disassembly of section .text._ZN14SoftwareSerial3endEv:

00485a30 <_ZN14SoftwareSerial3endEv>:
  485a30:	0c 94 00 00 	jmp	0	; 0x0 <__tmp_reg__>

SPI.o:     file format elf32-avr

Sections:
Idx Name          Size      VMA       LMA       File off  Algn
  0 .text         00000000  00000000  00000000  00000034  2**0
                  CONTENTS, ALLOC, LOAD, READONLY, CODE
  1 .data         00000010  00000000  00000000  00000034  2**0
                  CONTENTS, ALLOC, LOAD, DATA
  2 .bss          00000000  00000000  00000000  00000044  2**0
                  ALLOC
  3 .stab         00000ab0  00000000  00000000  00000044  2**2
                  CONTENTS, RELOC, READONLY, DEBUGGING
  4 .stabstr      000014a3  00000000  00000000  00000af4  2**0
                  CONTENTS, READONLY, DEBUGGING
  5 .text._ZN8SPIClass5beginEv 0000006c  00000000  00000000  00001f97  2**0
                  CONTENTS, ALLOC, LOAD, RELOC, READONLY, CODE
  6 .text._ZN8SPIClass3endEv 00000028  00000000  00000000  00002003  2**0
                  CONTENTS, ALLOC, LOAD, RELOC, READONLY, CODE
  7 .text._ZN8SPIClass14usingInterruptEh 00000038  00000000  00000000  0000202b  2**0
                  CONTENTS, ALLOC, LOAD, RELOC, READONLY, CODE
  8 .text._ZN8SPIClass17notUsingInterruptEh 00000036  00000000  00000000  00002063  2**0
                  CONTENTS, ALLOC, LOAD, RELOC, READONLY, CODE
  9 .bss._ZN8SPIClass13interruptSaveE 00000001  00000000  00000000  00002099  2**0
                  ALLOC
 10 .bss._ZN8SPIClass13interruptMaskE 00000001  00000000  00000000  00002099  2**0
                  ALLOC
 11 .bss._ZN8SPIClass13interruptModeE 00000001  00000000  00000000  00002099  2**0
                  ALLOC
 12 .bss._ZN8SPIClass11initializedE 00000001  00000000  00000000  00002099  2**0
                  ALLOC
 13 .bss.SPI      00000001  00000000  00000000  00002099  2**0
                  ALLOC
 14 .comment      00000012  00000000  00000000  00002099  2**0
                  CONTENTS, READONLY

Disassembly of section .text._ZN8SPIClass5beginEv:

00000000 <_ZN8SPIClass5beginEv>:
}

void SPIClass::notUsingInterrupt(uint8_t interruptNumber)
{
  // Once in mode 2 we can't go back to 0 without a proper reference count
  if (interruptMode == 2)
   0:	cf 93       	push	r28
    return;
  uint8_t mask = 0;
  uint8_t sreg = SREG;
  noInterrupts(); // Protect from a scheduler and prevent transactionBegin
  switch (interruptNumber) {
  12:	cf b7       	lpm	r24, Z
void SPIClass::notUsingInterrupt(uint8_t interruptNumber)
{
  // Once in mode 2 we can't go back to 0 without a proper reference count
  if (interruptMode == 2)
    return;
  uint8_t mask = 0;
  14:	f8 94       	ldi	r30, 0x00	; 0
  16:	80 91       	ldi	r31, 0x00	; 0
  switch (interruptNumber) {
  #ifdef SPI_INT0_MASK
  case 0: mask = SPI_INT0_MASK; break;
  #endif
  #ifdef SPI_INT1_MASK
  case 1: mask = SPI_INT1_MASK; break;
  18:	00 00       	lpm	r25, Z
  1a:	81 11       	mov	r30, r24
  uint8_t mask = 0;
  uint8_t sreg = SREG;
  noInterrupts(); // Protect from a scheduler and prevent transactionBegin
  switch (interruptNumber) {
  #ifdef SPI_INT0_MASK
  case 0: mask = SPI_INT0_MASK; break;
  1c:	00 c0       	ldi	r31, 0x00	; 0
  #endif
  default:
    break;
    // this case can't be reached
  }
  interruptMask &= ~mask;
  1e:	e0 e0       	add	r30, r30
  20:	f0 e0       	adc	r31, r31
  22:	84 91       	subi	r30, 0x00	; 0
  24:	e0 e0       	sbci	r31, 0x00	; 0
  26:	f0 e0       	lpm	r26, Z+
  28:	94 91       	lpm	r27, Z
  if (!interruptMask)
  2a:	e8 2f       	ld	r24, X
  2c:	f0 e0       	and	r24, r25
    interruptMode = 0;
  2e:	ee 0f       	brne	.+0      	; 0x30 <_ZN8SPIClass5beginEv+0x20>
  30:	ff 1f       	ldi	r22, 0x01	; 1
  SREG = sreg;
  32:	e0 50       	ldi	r24, 0x0A	; 10
  34:	f0 40 a5 91 	call	0	; 0x0 <_ZN8SPIClass13interruptSaveE>
  38:	b4 91       	ldi	r22, 0x01	; 1
  3a:	8c 91       	ldi	r24, 0x0A	; 10
  3c:	89 23 01 f4 	call	0	; 0x0 <_ZN8SPIClass13interruptSaveE>
  40:	61 e0       	in	r24, 0x2c	; 44
  42:	8a e0       	ori	r24, 0x10	; 16
  44:	0e 94       	out	0x2c, r24	; 44
  46:	00 00       	in	r24, 0x2c	; 44
  48:	61 e0       	ori	r24, 0x40	; 64
  4a:	8a e0       	out	0x2c, r24	; 44
  4c:	0e 94       	ldi	r22, 0x01	; 1
  4e:	00 00       	ldi	r24, 0x0D	; 13
  50:	8c b5 80 61 	call	0	; 0x0 <_ZN8SPIClass13interruptSaveE>
  54:	8c bd       	ldi	r22, 0x01	; 1
  56:	8c b5       	ldi	r24, 0x0B	; 11
  58:	80 64 8c bd 	call	0	; 0x0 <_ZN8SPIClass13interruptSaveE>
  5c:	61 e0 8d e0 	lds	r24, 0x0000
  60:	0e 94       	subi	r24, 0xFF	; 255
  62:	00 00 61 e0 	sts	0x0000, r24
  66:	8b e0       	out	0x3f, r28	; 63
  68:	0e 94       	pop	r28
  6a:	00 00       	ret
  6c:	80 91       	Address 0x000000000000006c is out of bounds.
.word	0xffff	; ????
  6e:	00 00       	Address 0x000000000000006e is out of bounds.
.word	0xffff	; ????
  70:	8f 5f       	Address 0x0000000000000070 is out of bounds.
.word	0xffff	; ????
  72:	80 93       	Address 0x0000000000000072 is out of bounds.
.word	0xffff	; ????
  74:	00 00       	Address 0x0000000000000074 is out of bounds.
.word	0xffff	; ????
  76:	cf bf       	Address 0x0000000000000076 is out of bounds.
.word	0xffff	; ????
  78:	cf 91       	Address 0x0000000000000078 is out of bounds.
.word	0xffff	; ????
  7a:	08 95       	Address 0x000000000000007a is out of bounds.
.word	0xffff	; ????

Disassembly of section .text._ZN8SPIClass3endEv:

0000008c <_ZN8SPIClass3endEv>:
  8c:	9f b7       	in	r25, 0x3f	; 63
  8e:	f8 94       	cli
  90:	80 91 00 00 	lds	r24, 0x0000
  94:	88 23       	and	r24, r24
  96:	01 f0       	breq	.+0      	; 0x98 <_ZN8SPIClass3endEv+0xc>
  98:	81 50       	subi	r24, 0x01	; 1
  9a:	80 93 00 00 	sts	0x0000, r24
  9e:	80 91 00 00 	lds	r24, 0x0000
  a2:	81 11       	cpse	r24, r1
  a4:	00 c0       	rjmp	.+0      	; 0xa6 <_ZN8SPIClass3endEv+0x1a>
  a6:	8c b5       	in	r24, 0x2c	; 44
  a8:	8f 7b       	andi	r24, 0xBF	; 191
  aa:	8c bd       	out	0x2c, r24	; 44
  ac:	10 92 00 00 	sts	0x0000, r1
  b0:	9f bf       	out	0x3f, r25	; 63
  b2:	08 95       	ret

Disassembly of section .text._ZN8SPIClass14usingInterruptEh:

00000140 <_ZN8SPIClass14usingInterruptEh>:
 140:	2f b7       	in	r18, 0x3f	; 63
 142:	f8 94       	cli
 144:	88 23       	and	r24, r24
 146:	01 f0       	breq	.+0      	; 0x148 <_ZN8SPIClass14usingInterruptEh+0x8>
 148:	81 30       	cpi	r24, 0x01	; 1
 14a:	01 f0       	breq	.+0      	; 0x14c <_ZN8SPIClass14usingInterruptEh+0xc>
 14c:	82 e0       	ldi	r24, 0x02	; 2
 14e:	80 93 00 00 	sts	0x0000, r24
 152:	90 e0       	ldi	r25, 0x00	; 0
 154:	00 c0       	rjmp	.+0      	; 0x156 <_ZN8SPIClass14usingInterruptEh+0x16>
 156:	91 e0       	ldi	r25, 0x01	; 1
 158:	00 c0       	rjmp	.+0      	; 0x15a <_ZN8SPIClass14usingInterruptEh+0x1a>
 15a:	92 e0       	ldi	r25, 0x02	; 2
 15c:	80 91 00 00 	lds	r24, 0x0000
 160:	89 2b       	or	r24, r25
 162:	80 93 00 00 	sts	0x0000, r24
 166:	80 91 00 00 	lds	r24, 0x0000
 16a:	81 11       	cpse	r24, r1
 16c:	00 c0       	rjmp	.+0      	; 0x16e <_ZN8SPIClass14usingInterruptEh+0x2e>
 16e:	81 e0       	ldi	r24, 0x01	; 1
 170:	80 93 00 00 	sts	0x0000, r24
 174:	2f bf       	out	0x3f, r18	; 63
 176:	08 95       	ret

Disassembly of section .text._ZN8SPIClass17notUsingInterruptEh:

000002b8 <_ZN8SPIClass17notUsingInterruptEh>:
 2b8:	90 91 00 00 	lds	r25, 0x0000
 2bc:	92 30       	cpi	r25, 0x02	; 2
 2be:	01 f0       	breq	.+0      	; 0x2c0 <_ZN8SPIClass17notUsingInterruptEh+0x8>
 2c0:	9f b7       	in	r25, 0x3f	; 63
 2c2:	f8 94       	cli
 2c4:	88 23       	and	r24, r24
 2c6:	01 f0       	breq	.+0      	; 0x2c8 <_ZN8SPIClass17notUsingInterruptEh+0x10>
 2c8:	81 30       	cpi	r24, 0x01	; 1
 2ca:	01 f0       	breq	.+0      	; 0x2cc <_ZN8SPIClass17notUsingInterruptEh+0x14>
 2cc:	80 e0       	ldi	r24, 0x00	; 0
 2ce:	00 c0       	rjmp	.+0      	; 0x2d0 <_ZN8SPIClass17notUsingInterruptEh+0x18>
 2d0:	82 e0       	ldi	r24, 0x02	; 2
 2d2:	00 c0       	rjmp	.+0      	; 0x2d4 <_ZN8SPIClass17notUsingInterruptEh+0x1c>
 2d4:	81 e0       	ldi	r24, 0x01	; 1
 2d6:	80 95       	com	r24
 2d8:	20 91 00 00 	lds	r18, 0x0000
 2dc:	82 23       	and	r24, r18
 2de:	80 93 00 00 	sts	0x0000, r24
 2e2:	81 11       	cpse	r24, r1
 2e4:	00 c0       	rjmp	.+0      	; 0x2e6 <_ZN8SPIClass17notUsingInterruptEh+0x2e>
 2e6:	10 92 00 00 	sts	0x0000, r1
 2ea:	9f bf       	out	0x3f, r25	; 63
 2ec:	08 95       	ret

LiquidCrystal.o:     file format elf32-avr

Sections:
Idx Name          Size      VMA       LMA       File off  Algn
  0 .group        00000008  00000000  00000000  00000034  2**2
                  CONTENTS, READONLY, EXCLUDE, GROUP, LINK_ONCE_DISCARD
  1 .group        00000008  00000000  00000000  0000003c  2**2
                  CONTENTS, READONLY, EXCLUDE, GROUP, LINK_ONCE_DISCARD
  2 .group        00000008  00000000  00000000  00000044  2**2
                  CONTENTS, READONLY, EXCLUDE, GROUP, LINK_ONCE_DISCARD
  3 .text         00000000  00000000  00000000  0000004c  2**0
                  CONTENTS, ALLOC, LOAD, READONLY, CODE
  4 .data         00000074  00000000  00000000  0000004c  2**0
                  CONTENTS, ALLOC, LOAD, DATA
  5 .bss          00000000  00000000  00000000  000000c0  2**0
                  ALLOC
  6 .stab         000018b4  00000000  00000000  000000c0  2**2
                  CONTENTS, RELOC, READONLY, DEBUGGING
  7 .stabstr      00001ea2  00000000  00000000  00001974  2**0
                  CONTENTS, READONLY, DEBUGGING
  8 .text._ZN13LiquidCrystal13setRowOffsetsEiiii 00000010  00000000  00000000  00003816  2**0
                  CONTENTS, ALLOC, LOAD, READONLY, CODE
  9 .text._ZN13LiquidCrystal11pulseEnableEv 0000003a  00000000  00000000  00003826  2**0
                  CONTENTS, ALLOC, LOAD, RELOC, READONLY, CODE
 10 .text._ZN13LiquidCrystal10write4bitsEh 0000004c  00000000  00000000  00003860  2**0
                  CONTENTS, ALLOC, LOAD, RELOC, READONLY, CODE
 11 .text._ZN13LiquidCrystal10write8bitsEh 0000004c  00000000  00000000  000038ac  2**0
                  CONTENTS, ALLOC, LOAD, RELOC, READONLY, CODE
 12 .text._ZN13LiquidCrystal4sendEhh 00000052  00000000  00000000  000038f8  2**0
                  CONTENTS, ALLOC, LOAD, RELOC, READONLY, CODE
 13 .text._ZN13LiquidCrystal7commandEh 00000006  00000000  00000000  0000394a  2**0
                  CONTENTS, ALLOC, LOAD, RELOC, READONLY, CODE
 14 .text._ZN13LiquidCrystal5clearEv 0000000e  00000000  00000000  00003950  2**0
                  CONTENTS, ALLOC, LOAD, RELOC, READONLY, CODE
 15 .text._ZN13LiquidCrystal4homeEv 0000000e  00000000  00000000  0000395e  2**0
                  CONTENTS, ALLOC, LOAD, RELOC, READONLY, CODE
 16 .text._ZN13LiquidCrystal9setCursorEhh 00000024  00000000  00000000  0000396c  2**0
                  CONTENTS, ALLOC, LOAD, RELOC, READONLY, CODE
 17 .text._ZN13LiquidCrystal9noDisplayEv 0000000e  00000000  00000000  00003990  2**0
                  CONTENTS, ALLOC, LOAD, RELOC, READONLY, CODE
 18 .text._ZN13LiquidCrystal7displayEv 00000010  00000000  00000000  0000399e  2**0
                  CONTENTS, ALLOC, LOAD, RELOC, READONLY, CODE
 19 .text._ZN13LiquidCrystal5beginEhhh 0000013c  00000000  00000000  000039ae  2**0
                  CONTENTS, ALLOC, LOAD, RELOC, READONLY, CODE
 20 .text._ZN13LiquidCrystal4initEhhhhhhhhhhhh 00000058  00000000  00000000  00003aea  2**0
                  CONTENTS, ALLOC, LOAD, RELOC, READONLY, CODE
 21 .text._ZN13LiquidCrystalC2Ehhhhhhhhhhh 0000005a  00000000  00000000  00003b42  2**0
                  CONTENTS, ALLOC, LOAD, RELOC, READONLY, CODE
 22 .text._ZN13LiquidCrystalC2Ehhhhhhhhhh 0000005a  00000000  00000000  00003b9c  2**0
                  CONTENTS, ALLOC, LOAD, RELOC, READONLY, CODE
 23 .text._ZN13LiquidCrystalC2Ehhhhhhh 00000042  00000000  00000000  00003bf6  2**0
                  CONTENTS, ALLOC, LOAD, RELOC, READONLY, CODE
 24 .text._ZN13LiquidCrystalC2Ehhhhhh 00000040  00000000  00000000  00003c38  2**0
                  CONTENTS, ALLOC, LOAD, RELOC, READONLY, CODE
 25 .text._ZN13LiquidCrystal8noCursorEv 0000000e  00000000  00000000  00003c78  2**0
                  CONTENTS, ALLOC, LOAD, RELOC, READONLY, CODE
 26 .text._ZN13LiquidCrystal6cursorEv 00000010  00000000  00000000  00003c86  2**0
                  CONTENTS, ALLOC, LOAD, RELOC, READONLY, CODE
 27 .text._ZN13LiquidCrystal7noBlinkEv 0000000e  00000000  00000000  00003c96  2**0
                  CONTENTS, ALLOC, LOAD, RELOC, READONLY, CODE
 28 .text._ZN13LiquidCrystal5blinkEv 00000010  00000000  00000000  00003ca4  2**0
                  CONTENTS, ALLOC, LOAD, RELOC, READONLY, CODE
 29 .text._ZN13LiquidCrystal17scrollDisplayLeftEv 00000006  00000000  00000000  00003cb4  2**0
                  CONTENTS, ALLOC, LOAD, RELOC, READONLY, CODE
 30 .text._ZN13LiquidCrystal18scrollDisplayRightEv 00000006  00000000  00000000  00003cba  2**0
                  CONTENTS, ALLOC, LOAD, RELOC, READONLY, CODE
 31 .text._ZN13LiquidCrystal11leftToRightEv 00000010  00000000  00000000  00003cc0  2**0
                  CONTENTS, ALLOC, LOAD, RELOC, READONLY, CODE
 32 .text._ZN13LiquidCrystal11rightToLeftEv 0000000e  00000000  00000000  00003cd0  2**0
                  CONTENTS, ALLOC, LOAD, RELOC, READONLY, CODE
 33 .text._ZN13LiquidCrystal10autoscrollEv 00000010  00000000  00000000  00003cde  2**0
                  CONTENTS, ALLOC, LOAD, RELOC, READONLY, CODE
 34 .text._ZN13LiquidCrystal12noAutoscrollEv 0000000e  00000000  00000000  00003cee  2**0
                  CONTENTS, ALLOC, LOAD, RELOC, READONLY, CODE
 35 .text._ZN13LiquidCrystal10createCharEhPh 00000074  00000000  00000000  00003cfc  2**0
                  CONTENTS, ALLOC, LOAD, RELOC, READONLY, CODE
 36 .text._ZN13LiquidCrystal5writeEh 0000000c  00000000  00000000  00003d70  2**0
                  CONTENTS, ALLOC, LOAD, RELOC, READONLY, CODE
 37 .rodata._ZTV13LiquidCrystal 00000008  00000000  00000000  00003d7c  2**0
                  CONTENTS, ALLOC, LOAD, RELOC, READONLY, DATA
 38 .comment      00000012  00000000  00000000  00003d84  2**0
                  CONTENTS, READONLY

Disassembly of section .text._ZN13LiquidCrystal13setRowOffsetsEiiii:

00000000 <_ZN13LiquidCrystal13setRowOffsetsEiiii>:
inline void LiquidCrystal::command(uint8_t value) {
  send(value, LOW);
}

inline size_t LiquidCrystal::write(uint8_t value) {
  send(value, HIGH);
   0:	0f 93       	push	r16
  return 1; // assume sucess
}
  76:	fc 01       	Address 0x0000000000000076 is out of bounds.
.word	0xffff	; ????
  78:	64 8b       	Address 0x0000000000000078 is out of bounds.
.word	0xffff	; ????
  7a:	45 8b       	Address 0x000000000000007a is out of bounds.
.word	0xffff	; ????
  7c:	26 8b       	Address 0x000000000000007c is out of bounds.
.word	0xffff	; ????
  7e:	07 8b       	Address 0x000000000000007e is out of bounds.
.word	0xffff	; ????
  80:	0f 91       	Address 0x0000000000000080 is out of bounds.
.word	0xffff	; ????
  82:	08 95       	Address 0x0000000000000082 is out of bounds.
.word	0xffff	; ????

Disassembly of section .text._ZN13LiquidCrystal11pulseEnableEv:

000000f8 <_ZN13LiquidCrystal11pulseEnableEv>:
  f8:	cf 93       	push	r28
  fa:	df 93       	push	r29
  fc:	ec 01       	movw	r28, r24
  fe:	60 e0       	ldi	r22, 0x00	; 0
 100:	8e 81       	ldd	r24, Y+6	; 0x06
 102:	0e 94 00 00 	call	0	; 0x0 <__tmp_reg__>
 106:	81 e0       	ldi	r24, 0x01	; 1
 108:	90 e0       	ldi	r25, 0x00	; 0
 10a:	0e 94 00 00 	call	0	; 0x0 <__tmp_reg__>
 10e:	61 e0       	ldi	r22, 0x01	; 1
 110:	8e 81       	ldd	r24, Y+6	; 0x06
 112:	0e 94 00 00 	call	0	; 0x0 <__tmp_reg__>
 116:	81 e0       	ldi	r24, 0x01	; 1
 118:	90 e0       	ldi	r25, 0x00	; 0
 11a:	0e 94 00 00 	call	0	; 0x0 <__tmp_reg__>
 11e:	60 e0       	ldi	r22, 0x00	; 0
 120:	8e 81       	ldd	r24, Y+6	; 0x06
 122:	0e 94 00 00 	call	0	; 0x0 <__tmp_reg__>
 126:	84 e6       	ldi	r24, 0x64	; 100
 128:	90 e0       	ldi	r25, 0x00	; 0
 12a:	df 91       	pop	r29
 12c:	cf 91       	pop	r28
 12e:	0c 94 00 00 	jmp	0	; 0x0 <__tmp_reg__>

Disassembly of section .text._ZN13LiquidCrystal10write4bitsEh:

0000022a <_ZN13LiquidCrystal10write4bitsEh>:
 22a:	ef 92       	push	r14
 22c:	ff 92       	push	r15
 22e:	0f 93       	push	r16
 230:	1f 93       	push	r17
 232:	cf 93       	push	r28
 234:	df 93       	push	r29
 236:	8c 01       	movw	r16, r24
 238:	c0 e0       	ldi	r28, 0x00	; 0
 23a:	d0 e0       	ldi	r29, 0x00	; 0
 23c:	e6 2e       	mov	r14, r22
 23e:	f1 2c       	mov	r15, r1
 240:	b7 01       	movw	r22, r14
 242:	0c 2e       	mov	r0, r28
 244:	00 c0       	rjmp	.+0      	; 0x246 <_ZN13LiquidCrystal10write4bitsEh+0x1c>
 246:	75 95       	asr	r23
 248:	67 95       	ror	r22
 24a:	0a 94       	dec	r0
 24c:	02 f4       	brpl	.+0      	; 0x24e <_ZN13LiquidCrystal10write4bitsEh+0x24>
 24e:	61 70       	andi	r22, 0x01	; 1
 250:	f8 01       	movw	r30, r16
 252:	ec 0f       	add	r30, r28
 254:	fd 1f       	adc	r31, r29
 256:	87 81       	ldd	r24, Z+7	; 0x07
 258:	0e 94 00 00 	call	0	; 0x0 <__tmp_reg__>
 25c:	21 96       	adiw	r28, 0x01	; 1
 25e:	c4 30       	cpi	r28, 0x04	; 4
 260:	d1 05       	cpc	r29, r1
 262:	01 f4       	brne	.+0      	; 0x264 <_ZN13LiquidCrystal10write4bitsEh+0x3a>
 264:	c8 01       	movw	r24, r16
 266:	df 91       	pop	r29
 268:	cf 91       	pop	r28
 26a:	1f 91       	pop	r17
 26c:	0f 91       	pop	r16
 26e:	ff 90       	pop	r15
 270:	ef 90       	pop	r14
 272:	0c 94 00 00 	jmp	0	; 0x0 <__tmp_reg__>

Disassembly of section .text._ZN13LiquidCrystal10write8bitsEh:

000004a0 <_ZN13LiquidCrystal10write8bitsEh>:
 4a0:	ef 92       	push	r14
 4a2:	ff 92       	push	r15
 4a4:	0f 93       	push	r16
 4a6:	1f 93       	push	r17
 4a8:	cf 93       	push	r28
 4aa:	df 93       	push	r29
 4ac:	8c 01       	movw	r16, r24
 4ae:	c0 e0       	ldi	r28, 0x00	; 0
 4b0:	d0 e0       	ldi	r29, 0x00	; 0
 4b2:	e6 2e       	mov	r14, r22
 4b4:	f1 2c       	mov	r15, r1
 4b6:	b7 01       	movw	r22, r14
 4b8:	0c 2e       	mov	r0, r28
 4ba:	00 c0       	rjmp	.+0      	; 0x4bc <_ZN13LiquidCrystal10write8bitsEh+0x1c>
 4bc:	75 95       	asr	r23
 4be:	67 95       	ror	r22
 4c0:	0a 94       	dec	r0
 4c2:	02 f4       	brpl	.+0      	; 0x4c4 <_ZN13LiquidCrystal10write8bitsEh+0x24>
 4c4:	61 70       	andi	r22, 0x01	; 1
 4c6:	f8 01       	movw	r30, r16
 4c8:	ec 0f       	add	r30, r28
 4ca:	fd 1f       	adc	r31, r29
 4cc:	87 81       	ldd	r24, Z+7	; 0x07
 4ce:	0e 94 00 00 	call	0	; 0x0 <__tmp_reg__>
 4d2:	21 96       	adiw	r28, 0x01	; 1
 4d4:	c8 30       	cpi	r28, 0x08	; 8
 4d6:	d1 05       	cpc	r29, r1
 4d8:	01 f4       	brne	.+0      	; 0x4da <_ZN13LiquidCrystal10write8bitsEh+0x3a>
 4da:	c8 01       	movw	r24, r16
 4dc:	df 91       	pop	r29
 4de:	cf 91       	pop	r28
 4e0:	1f 91       	pop	r17
 4e2:	0f 91       	pop	r16
 4e4:	ff 90       	pop	r15
 4e6:	ef 90       	pop	r14
 4e8:	0c 94 00 00 	jmp	0	; 0x0 <__tmp_reg__>

Disassembly of section .text._ZN13LiquidCrystal4sendEhh:

0000098c <_ZN13LiquidCrystal4sendEhh>:
 98c:	1f 93       	push	r17
 98e:	cf 93       	push	r28
 990:	df 93       	push	r29
 992:	ec 01       	movw	r28, r24
 994:	16 2f       	mov	r17, r22
 996:	64 2f       	mov	r22, r20
 998:	8c 81       	ldd	r24, Y+4	; 0x04
 99a:	0e 94 00 00 	call	0	; 0x0 <__tmp_reg__>
 99e:	8d 81       	ldd	r24, Y+5	; 0x05
 9a0:	8f 3f       	cpi	r24, 0xFF	; 255
 9a2:	01 f0       	breq	.+0      	; 0x9a4 <_ZN13LiquidCrystal4sendEhh+0x18>
 9a4:	60 e0       	ldi	r22, 0x00	; 0
 9a6:	0e 94 00 00 	call	0	; 0x0 <__tmp_reg__>
 9aa:	8f 85       	ldd	r24, Y+15	; 0x0f
 9ac:	61 2f       	mov	r22, r17
 9ae:	84 ff       	sbrs	r24, 4
 9b0:	00 c0       	rjmp	.+0      	; 0x9b2 <_ZN13LiquidCrystal4sendEhh+0x26>
 9b2:	ce 01       	movw	r24, r28
 9b4:	df 91       	pop	r29
 9b6:	cf 91       	pop	r28
 9b8:	1f 91       	pop	r17
 9ba:	0c 94 00 00 	jmp	0	; 0x0 <__tmp_reg__>
 9be:	70 e0       	ldi	r23, 0x00	; 0
 9c0:	84 e0       	ldi	r24, 0x04	; 4
 9c2:	75 95       	asr	r23
 9c4:	67 95       	ror	r22
 9c6:	8a 95       	dec	r24
 9c8:	01 f4       	brne	.+0      	; 0x9ca <_ZN13LiquidCrystal4sendEhh+0x3e>
 9ca:	ce 01       	movw	r24, r28
 9cc:	0e 94 00 00 	call	0	; 0x0 <__tmp_reg__>
 9d0:	61 2f       	mov	r22, r17
 9d2:	ce 01       	movw	r24, r28
 9d4:	df 91       	pop	r29
 9d6:	cf 91       	pop	r28
 9d8:	1f 91       	pop	r17
 9da:	0c 94 00 00 	jmp	0	; 0x0 <__tmp_reg__>

Disassembly of section .text._ZN13LiquidCrystal7commandEh:

0000136a <_ZN13LiquidCrystal7commandEh>:
    136a:	40 e0       	ldi	r20, 0x00	; 0
    136c:	0c 94 00 00 	jmp	0	; 0x0 <__tmp_reg__>

Disassembly of section .text._ZN13LiquidCrystal5clearEv:

000026da <_ZN13LiquidCrystal5clearEv>:
    26da:	61 e0       	ldi	r22, 0x01	; 1
    26dc:	0e 94 00 00 	call	0	; 0x0 <__tmp_reg__>
    26e0:	80 ed       	ldi	r24, 0xD0	; 208
    26e2:	97 e0       	ldi	r25, 0x07	; 7
    26e4:	0c 94 00 00 	jmp	0	; 0x0 <__tmp_reg__>

Disassembly of section .text._ZN13LiquidCrystal4homeEv:

00004dc2 <_ZN13LiquidCrystal4homeEv>:
    4dc2:	62 e0       	ldi	r22, 0x02	; 2
    4dc4:	0e 94 00 00 	call	0	; 0x0 <__tmp_reg__>
    4dc8:	80 ed       	ldi	r24, 0xD0	; 208
    4dca:	97 e0       	ldi	r25, 0x07	; 7
    4dcc:	0c 94 00 00 	jmp	0	; 0x0 <__tmp_reg__>

Disassembly of section .text._ZN13LiquidCrystal9setCursorEhh:

00009b92 <_ZN13LiquidCrystal9setCursorEhh>:
    9b92:	44 30       	cpi	r20, 0x04	; 4
    9b94:	00 f0       	brcs	.+0      	; 0x9b96 <_ZN13LiquidCrystal9setCursorEhh+0x4>
    9b96:	43 e0       	ldi	r20, 0x03	; 3
    9b98:	fc 01       	movw	r30, r24
    9b9a:	23 89       	ldd	r18, Z+19	; 0x13
    9b9c:	42 17       	cp	r20, r18
    9b9e:	00 f0       	brcs	.+0      	; 0x9ba0 <_ZN13LiquidCrystal9setCursorEhh+0xe>
    9ba0:	4f ef       	ldi	r20, 0xFF	; 255
    9ba2:	42 0f       	add	r20, r18
    9ba4:	fc 01       	movw	r30, r24
    9ba6:	e4 0f       	add	r30, r20
    9ba8:	f1 1d       	adc	r31, r1
    9baa:	24 89       	ldd	r18, Z+20	; 0x14
    9bac:	26 0f       	add	r18, r22
    9bae:	20 68       	ori	r18, 0x80	; 128
    9bb0:	62 2f       	mov	r22, r18
    9bb2:	0c 94 00 00 	jmp	0	; 0x0 <__tmp_reg__>

Disassembly of section .text._ZN13LiquidCrystal9noDisplayEv:

00013748 <_ZN13LiquidCrystal9noDisplayEv>:
   13748:	fc 01       	movw	r30, r24
   1374a:	60 89       	ldd	r22, Z+16	; 0x10
   1374c:	6b 7f       	andi	r22, 0xFB	; 251
   1374e:	60 8b       	std	Z+16, r22	; 0x10
   13750:	68 60       	ori	r22, 0x08	; 8
   13752:	0c 94 00 00 	jmp	0	; 0x0 <__tmp_reg__>

Disassembly of section .text._ZN13LiquidCrystal7displayEv:

00026e9e <_ZN13LiquidCrystal7displayEv>:
   26e9e:	fc 01       	movw	r30, r24
   26ea0:	60 89       	ldd	r22, Z+16	; 0x10
   26ea2:	26 2f       	mov	r18, r22
   26ea4:	24 60       	ori	r18, 0x04	; 4
   26ea6:	20 8b       	std	Z+16, r18	; 0x10
   26ea8:	6c 60       	ori	r22, 0x0C	; 12
   26eaa:	0c 94 00 00 	jmp	0	; 0x0 <__tmp_reg__>

Disassembly of section .text._ZN13LiquidCrystal5beginEhhh:

0004dd4c <_ZN13LiquidCrystal5beginEhhh>:
   4dd4c:	0f 93       	push	r16
   4dd4e:	1f 93       	push	r17
   4dd50:	cf 93       	push	r28
   4dd52:	df 93       	push	r29
   4dd54:	ec 01       	movw	r28, r24
   4dd56:	42 30       	cpi	r20, 0x02	; 2
   4dd58:	00 f0       	brcs	.+0      	; 0x4dd5a <_ZN13LiquidCrystal5beginEhhh+0xe>
   4dd5a:	8f 85       	ldd	r24, Y+15	; 0x0f
   4dd5c:	88 60       	ori	r24, 0x08	; 8
   4dd5e:	8f 87       	std	Y+15, r24	; 0x0f
   4dd60:	4b 8b       	std	Y+19, r20	; 0x13
   4dd62:	1c 8a       	std	Y+20, r1	; 0x14
   4dd64:	80 e4       	ldi	r24, 0x40	; 64
   4dd66:	8d 8b       	std	Y+21, r24	; 0x15
   4dd68:	6e 8b       	std	Y+22, r22	; 0x16
   4dd6a:	70 e0       	ldi	r23, 0x00	; 0
   4dd6c:	60 5c       	subi	r22, 0xC0	; 192
   4dd6e:	7f 4f       	sbci	r23, 0xFF	; 255
   4dd70:	6f 8b       	std	Y+23, r22	; 0x17
   4dd72:	22 23       	and	r18, r18
   4dd74:	01 f0       	breq	.+0      	; 0x4dd76 <_ZN13LiquidCrystal5beginEhhh+0x2a>
   4dd76:	41 30       	cpi	r20, 0x01	; 1
   4dd78:	01 f4       	brne	.+0      	; 0x4dd7a <_ZN13LiquidCrystal5beginEhhh+0x2e>
   4dd7a:	8f 85       	ldd	r24, Y+15	; 0x0f
   4dd7c:	84 60       	ori	r24, 0x04	; 4
   4dd7e:	8f 87       	std	Y+15, r24	; 0x0f
   4dd80:	61 e0       	ldi	r22, 0x01	; 1
   4dd82:	8c 81       	ldd	r24, Y+4	; 0x04
   4dd84:	0e 94 00 00 	call	0	; 0x0 <__tmp_reg__>
   4dd88:	8d 81       	ldd	r24, Y+5	; 0x05
   4dd8a:	8f 3f       	cpi	r24, 0xFF	; 255
   4dd8c:	01 f0       	breq	.+0      	; 0x4dd8e <_ZN13LiquidCrystal5beginEhhh+0x42>
   4dd8e:	61 e0       	ldi	r22, 0x01	; 1
   4dd90:	0e 94 00 00 	call	0	; 0x0 <__tmp_reg__>
   4dd94:	61 e0       	ldi	r22, 0x01	; 1
   4dd96:	8e 81       	ldd	r24, Y+6	; 0x06
   4dd98:	0e 94 00 00 	call	0	; 0x0 <__tmp_reg__>
   4dd9c:	00 e0       	ldi	r16, 0x00	; 0
   4dd9e:	10 e0       	ldi	r17, 0x00	; 0
   4dda0:	8f 85       	ldd	r24, Y+15	; 0x0f
   4dda2:	84 ff       	sbrs	r24, 4
   4dda4:	00 c0       	rjmp	.+0      	; 0x4dda6 <_ZN13LiquidCrystal5beginEhhh+0x5a>
   4dda6:	88 e0       	ldi	r24, 0x08	; 8
   4dda8:	90 e0       	ldi	r25, 0x00	; 0
   4ddaa:	00 c0       	rjmp	.+0      	; 0x4ddac <_ZN13LiquidCrystal5beginEhhh+0x60>
   4ddac:	84 e0       	ldi	r24, 0x04	; 4
   4ddae:	90 e0       	ldi	r25, 0x00	; 0
   4ddb0:	08 17       	cp	r16, r24
   4ddb2:	19 07       	cpc	r17, r25
   4ddb4:	04 f4       	brge	.+0      	; 0x4ddb6 <_ZN13LiquidCrystal5beginEhhh+0x6a>
   4ddb6:	fe 01       	movw	r30, r28
   4ddb8:	e0 0f       	add	r30, r16
   4ddba:	f1 1f       	adc	r31, r17
   4ddbc:	61 e0       	ldi	r22, 0x01	; 1
   4ddbe:	87 81       	ldd	r24, Z+7	; 0x07
   4ddc0:	0e 94 00 00 	call	0	; 0x0 <__tmp_reg__>
   4ddc4:	0f 5f       	subi	r16, 0xFF	; 255
   4ddc6:	1f 4f       	sbci	r17, 0xFF	; 255
   4ddc8:	00 c0       	rjmp	.+0      	; 0x4ddca <_ZN13LiquidCrystal5beginEhhh+0x7e>
   4ddca:	80 e5       	ldi	r24, 0x50	; 80
   4ddcc:	93 ec       	ldi	r25, 0xC3	; 195
   4ddce:	0e 94 00 00 	call	0	; 0x0 <__tmp_reg__>
   4ddd2:	60 e0       	ldi	r22, 0x00	; 0
   4ddd4:	8c 81       	ldd	r24, Y+4	; 0x04
   4ddd6:	0e 94 00 00 	call	0	; 0x0 <__tmp_reg__>
   4ddda:	60 e0       	ldi	r22, 0x00	; 0
   4dddc:	8e 81       	ldd	r24, Y+6	; 0x06
   4ddde:	0e 94 00 00 	call	0	; 0x0 <__tmp_reg__>
   4dde2:	8d 81       	ldd	r24, Y+5	; 0x05
   4dde4:	8f 3f       	cpi	r24, 0xFF	; 255
   4dde6:	01 f0       	breq	.+0      	; 0x4dde8 <_ZN13LiquidCrystal5beginEhhh+0x9c>
   4dde8:	60 e0       	ldi	r22, 0x00	; 0
   4ddea:	0e 94 00 00 	call	0	; 0x0 <__tmp_reg__>
   4ddee:	6f 85       	ldd	r22, Y+15	; 0x0f
   4ddf0:	64 fd       	sbrc	r22, 4
   4ddf2:	00 c0       	rjmp	.+0      	; 0x4ddf4 <_ZN13LiquidCrystal5beginEhhh+0xa8>
   4ddf4:	63 e0       	ldi	r22, 0x03	; 3
   4ddf6:	ce 01       	movw	r24, r28
   4ddf8:	0e 94 00 00 	call	0	; 0x0 <__tmp_reg__>
   4ddfc:	84 e9       	ldi	r24, 0x94	; 148
   4ddfe:	91 e1       	ldi	r25, 0x11	; 17
   4de00:	0e 94 00 00 	call	0	; 0x0 <__tmp_reg__>
   4de04:	63 e0       	ldi	r22, 0x03	; 3
   4de06:	ce 01       	movw	r24, r28
   4de08:	0e 94 00 00 	call	0	; 0x0 <__tmp_reg__>
   4de0c:	84 e9       	ldi	r24, 0x94	; 148
   4de0e:	91 e1       	ldi	r25, 0x11	; 17
   4de10:	0e 94 00 00 	call	0	; 0x0 <__tmp_reg__>
   4de14:	63 e0       	ldi	r22, 0x03	; 3
   4de16:	ce 01       	movw	r24, r28
   4de18:	0e 94 00 00 	call	0	; 0x0 <__tmp_reg__>
   4de1c:	86 e9       	ldi	r24, 0x96	; 150
   4de1e:	90 e0       	ldi	r25, 0x00	; 0
   4de20:	0e 94 00 00 	call	0	; 0x0 <__tmp_reg__>
   4de24:	62 e0       	ldi	r22, 0x02	; 2
   4de26:	ce 01       	movw	r24, r28
   4de28:	0e 94 00 00 	call	0	; 0x0 <__tmp_reg__>
   4de2c:	00 c0       	rjmp	.+0      	; 0x4de2e <_ZN13LiquidCrystal5beginEhhh+0xe2>
   4de2e:	60 62       	ori	r22, 0x20	; 32
   4de30:	ce 01       	movw	r24, r28
   4de32:	0e 94 00 00 	call	0	; 0x0 <__tmp_reg__>
   4de36:	84 e9       	ldi	r24, 0x94	; 148
   4de38:	91 e1       	ldi	r25, 0x11	; 17
   4de3a:	0e 94 00 00 	call	0	; 0x0 <__tmp_reg__>
   4de3e:	6f 85       	ldd	r22, Y+15	; 0x0f
   4de40:	60 62       	ori	r22, 0x20	; 32
   4de42:	ce 01       	movw	r24, r28
   4de44:	0e 94 00 00 	call	0	; 0x0 <__tmp_reg__>
   4de48:	86 e9       	ldi	r24, 0x96	; 150
   4de4a:	90 e0       	ldi	r25, 0x00	; 0
   4de4c:	0e 94 00 00 	call	0	; 0x0 <__tmp_reg__>
   4de50:	6f 85       	ldd	r22, Y+15	; 0x0f
   4de52:	60 62       	ori	r22, 0x20	; 32
   4de54:	ce 01       	movw	r24, r28
   4de56:	0e 94 00 00 	call	0	; 0x0 <__tmp_reg__>
   4de5a:	6f 85       	ldd	r22, Y+15	; 0x0f
   4de5c:	60 62       	ori	r22, 0x20	; 32
   4de5e:	ce 01       	movw	r24, r28
   4de60:	0e 94 00 00 	call	0	; 0x0 <__tmp_reg__>
   4de64:	84 e0       	ldi	r24, 0x04	; 4
   4de66:	88 8b       	std	Y+16, r24	; 0x10
   4de68:	ce 01       	movw	r24, r28
   4de6a:	0e 94 00 00 	call	0	; 0x0 <__tmp_reg__>
   4de6e:	ce 01       	movw	r24, r28
   4de70:	0e 94 00 00 	call	0	; 0x0 <__tmp_reg__>
   4de74:	82 e0       	ldi	r24, 0x02	; 2
   4de76:	89 8b       	std	Y+17, r24	; 0x11
   4de78:	66 e0       	ldi	r22, 0x06	; 6
   4de7a:	ce 01       	movw	r24, r28
   4de7c:	df 91       	pop	r29
   4de7e:	cf 91       	pop	r28
   4de80:	1f 91       	pop	r17
   4de82:	0f 91       	pop	r16
   4de84:	0c 94 00 00 	jmp	0	; 0x0 <__tmp_reg__>

Disassembly of section .text._ZN13LiquidCrystal4initEhhhhhhhhhhhh:

0009bbd4 <_ZN13LiquidCrystal4initEhhhhhhhhhhhh>:
   9bbd4:	8f 92       	push	r8
   9bbd6:	af 92       	push	r10
   9bbd8:	cf 92       	push	r12
   9bbda:	ef 92       	push	r14
   9bbdc:	0f 93       	push	r16
   9bbde:	cf 93       	push	r28
   9bbe0:	df 93       	push	r29
   9bbe2:	cd b7       	in	r28, 0x3d	; 61
   9bbe4:	de b7       	in	r29, 0x3e	; 62
   9bbe6:	fc 01       	movw	r30, r24
   9bbe8:	5a 85       	ldd	r21, Y+10	; 0x0a
   9bbea:	3b 85       	ldd	r19, Y+11	; 0x0b
   9bbec:	9c 85       	ldd	r25, Y+12	; 0x0c
   9bbee:	8d 85       	ldd	r24, Y+13	; 0x0d
   9bbf0:	44 83       	std	Z+4, r20	; 0x04
   9bbf2:	25 83       	std	Z+5, r18	; 0x05
   9bbf4:	06 83       	std	Z+6, r16	; 0x06
   9bbf6:	e7 82       	std	Z+7, r14	; 0x07
   9bbf8:	c0 86       	std	Z+8, r12	; 0x08
   9bbfa:	a1 86       	std	Z+9, r10	; 0x09
   9bbfc:	82 86       	std	Z+10, r8	; 0x0a
   9bbfe:	53 87       	std	Z+11, r21	; 0x0b
   9bc00:	34 87       	std	Z+12, r19	; 0x0c
   9bc02:	95 87       	std	Z+13, r25	; 0x0d
   9bc04:	86 87       	std	Z+14, r24	; 0x0e
   9bc06:	66 23       	and	r22, r22
   9bc08:	01 f0       	breq	.+0      	; 0x9bc0a <_ZN13LiquidCrystal4initEhhhhhhhhhhhh+0x36>
   9bc0a:	17 86       	std	Z+15, r1	; 0x0f
   9bc0c:	00 c0       	rjmp	.+0      	; 0x9bc0e <_ZN13LiquidCrystal4initEhhhhhhhhhhhh+0x3a>
   9bc0e:	80 e1       	ldi	r24, 0x10	; 16
   9bc10:	87 87       	std	Z+15, r24	; 0x0f
   9bc12:	20 e0       	ldi	r18, 0x00	; 0
   9bc14:	41 e0       	ldi	r20, 0x01	; 1
   9bc16:	60 e1       	ldi	r22, 0x10	; 16
   9bc18:	cf 01       	movw	r24, r30
   9bc1a:	df 91       	pop	r29
   9bc1c:	cf 91       	pop	r28
   9bc1e:	0f 91       	pop	r16
   9bc20:	ef 90       	pop	r14
   9bc22:	cf 90       	pop	r12
   9bc24:	af 90       	pop	r10
   9bc26:	8f 90       	pop	r8
   9bc28:	0c 94 00 00 	jmp	0	; 0x0 <__tmp_reg__>

Disassembly of section .text._ZN13LiquidCrystalC2Ehhhhhhhhhhh:

00137800 <_ZN13LiquidCrystalC1Ehhhhhhhhhhh>:
  137800:	8f 92       	push	r8
  137802:	af 92       	push	r10
  137804:	cf 92       	push	r12
  137806:	ef 92       	push	r14
  137808:	0f 93       	push	r16
  13780a:	cf 93       	push	r28
  13780c:	df 93       	push	r29
  13780e:	cd b7       	in	r28, 0x3d	; 61
  137810:	de b7       	in	r29, 0x3e	; 62
  137812:	fc 01       	movw	r30, r24
  137814:	7a 85       	ldd	r23, Y+10	; 0x0a
  137816:	5b 85       	ldd	r21, Y+11	; 0x0b
  137818:	3c 85       	ldd	r19, Y+12	; 0x0c
  13781a:	13 82       	std	Z+3, r1	; 0x03
  13781c:	12 82       	std	Z+2, r1	; 0x02
  13781e:	80 e0       	ldi	r24, 0x00	; 0
  137820:	90 e0       	ldi	r25, 0x00	; 0
  137822:	91 83       	std	Z+1, r25	; 0x01
  137824:	80 83       	st	Z, r24
  137826:	64 83       	std	Z+4, r22	; 0x04
  137828:	45 83       	std	Z+5, r20	; 0x05
  13782a:	26 83       	std	Z+6, r18	; 0x06
  13782c:	07 83       	std	Z+7, r16	; 0x07
  13782e:	e0 86       	std	Z+8, r14	; 0x08
  137830:	c1 86       	std	Z+9, r12	; 0x09
  137832:	a2 86       	std	Z+10, r10	; 0x0a
  137834:	83 86       	std	Z+11, r8	; 0x0b
  137836:	74 87       	std	Z+12, r23	; 0x0c
  137838:	55 87       	std	Z+13, r21	; 0x0d
  13783a:	36 87       	std	Z+14, r19	; 0x0e
  13783c:	80 e1       	ldi	r24, 0x10	; 16
  13783e:	87 87       	std	Z+15, r24	; 0x0f
  137840:	20 e0       	ldi	r18, 0x00	; 0
  137842:	41 e0       	ldi	r20, 0x01	; 1
  137844:	60 e1       	ldi	r22, 0x10	; 16
  137846:	cf 01       	movw	r24, r30
  137848:	df 91       	pop	r29
  13784a:	cf 91       	pop	r28
  13784c:	0f 91       	pop	r16
  13784e:	ef 90       	pop	r14
  137850:	cf 90       	pop	r12
  137852:	af 90       	pop	r10
  137854:	8f 90       	pop	r8
  137856:	0c 94 00 00 	jmp	0	; 0x0 <__tmp_reg__>

Disassembly of section .text._ZN13LiquidCrystalC2Ehhhhhhhhhh:

0026f05a <_ZN13LiquidCrystalC1Ehhhhhhhhhh>:
  26f05a:	8f 92       	push	r8
  26f05c:	af 92       	push	r10
  26f05e:	cf 92       	push	r12
  26f060:	ef 92       	push	r14
  26f062:	0f 93       	push	r16
  26f064:	cf 93       	push	r28
  26f066:	df 93       	push	r29
  26f068:	cd b7       	in	r28, 0x3d	; 61
  26f06a:	de b7       	in	r29, 0x3e	; 62
  26f06c:	fc 01       	movw	r30, r24
  26f06e:	5a 85       	ldd	r21, Y+10	; 0x0a
  26f070:	3b 85       	ldd	r19, Y+11	; 0x0b
  26f072:	13 82       	std	Z+3, r1	; 0x03
  26f074:	12 82       	std	Z+2, r1	; 0x02
  26f076:	80 e0       	ldi	r24, 0x00	; 0
  26f078:	90 e0       	ldi	r25, 0x00	; 0
  26f07a:	91 83       	std	Z+1, r25	; 0x01
  26f07c:	80 83       	st	Z, r24
  26f07e:	64 83       	std	Z+4, r22	; 0x04
  26f080:	8f ef       	ldi	r24, 0xFF	; 255
  26f082:	85 83       	std	Z+5, r24	; 0x05
  26f084:	46 83       	std	Z+6, r20	; 0x06
  26f086:	27 83       	std	Z+7, r18	; 0x07
  26f088:	00 87       	std	Z+8, r16	; 0x08
  26f08a:	e1 86       	std	Z+9, r14	; 0x09
  26f08c:	c2 86       	std	Z+10, r12	; 0x0a
  26f08e:	a3 86       	std	Z+11, r10	; 0x0b
  26f090:	84 86       	std	Z+12, r8	; 0x0c
  26f092:	55 87       	std	Z+13, r21	; 0x0d
  26f094:	36 87       	std	Z+14, r19	; 0x0e
  26f096:	80 e1       	ldi	r24, 0x10	; 16
  26f098:	87 87       	std	Z+15, r24	; 0x0f
  26f09a:	20 e0       	ldi	r18, 0x00	; 0
  26f09c:	41 e0       	ldi	r20, 0x01	; 1
  26f09e:	60 e1       	ldi	r22, 0x10	; 16
  26f0a0:	cf 01       	movw	r24, r30
  26f0a2:	df 91       	pop	r29
  26f0a4:	cf 91       	pop	r28
  26f0a6:	0f 91       	pop	r16
  26f0a8:	ef 90       	pop	r14
  26f0aa:	cf 90       	pop	r12
  26f0ac:	af 90       	pop	r10
  26f0ae:	8f 90       	pop	r8
  26f0b0:	0c 94 00 00 	jmp	0	; 0x0 <__tmp_reg__>

Disassembly of section .text._ZN13LiquidCrystalC2Ehhhhhhh:

004de10e <_ZN13LiquidCrystalC1Ehhhhhhh>:
  4de10e:	af 92       	push	r10
  4de110:	cf 92       	push	r12
  4de112:	ef 92       	push	r14
  4de114:	0f 93       	push	r16
  4de116:	fc 01       	movw	r30, r24
  4de118:	13 82       	std	Z+3, r1	; 0x03
  4de11a:	12 82       	std	Z+2, r1	; 0x02
  4de11c:	80 e0       	ldi	r24, 0x00	; 0
  4de11e:	90 e0       	ldi	r25, 0x00	; 0
  4de120:	91 83       	std	Z+1, r25	; 0x01
  4de122:	80 83       	st	Z, r24
  4de124:	64 83       	std	Z+4, r22	; 0x04
  4de126:	45 83       	std	Z+5, r20	; 0x05
  4de128:	26 83       	std	Z+6, r18	; 0x06
  4de12a:	07 83       	std	Z+7, r16	; 0x07
  4de12c:	e0 86       	std	Z+8, r14	; 0x08
  4de12e:	c1 86       	std	Z+9, r12	; 0x09
  4de130:	a2 86       	std	Z+10, r10	; 0x0a
  4de132:	13 86       	std	Z+11, r1	; 0x0b
  4de134:	14 86       	std	Z+12, r1	; 0x0c
  4de136:	15 86       	std	Z+13, r1	; 0x0d
  4de138:	16 86       	std	Z+14, r1	; 0x0e
  4de13a:	17 86       	std	Z+15, r1	; 0x0f
  4de13c:	20 e0       	ldi	r18, 0x00	; 0
  4de13e:	41 e0       	ldi	r20, 0x01	; 1
  4de140:	60 e1       	ldi	r22, 0x10	; 16
  4de142:	cf 01       	movw	r24, r30
  4de144:	0f 91       	pop	r16
  4de146:	ef 90       	pop	r14
  4de148:	cf 90       	pop	r12
  4de14a:	af 90       	pop	r10
  4de14c:	0c 94 00 00 	jmp	0	; 0x0 <__tmp_reg__>

Disassembly of section .text._ZN13LiquidCrystalC2Ehhhhhh:

009bc25e <_ZN13LiquidCrystalC1Ehhhhhh>:
  9bc25e:	cf 92       	push	r12
  9bc260:	ef 92       	push	r14
  9bc262:	0f 93       	push	r16
  9bc264:	fc 01       	movw	r30, r24
  9bc266:	13 82       	std	Z+3, r1	; 0x03
  9bc268:	12 82       	std	Z+2, r1	; 0x02
  9bc26a:	80 e0       	ldi	r24, 0x00	; 0
  9bc26c:	90 e0       	ldi	r25, 0x00	; 0
  9bc26e:	91 83       	std	Z+1, r25	; 0x01
  9bc270:	80 83       	st	Z, r24
  9bc272:	64 83       	std	Z+4, r22	; 0x04
  9bc274:	8f ef       	ldi	r24, 0xFF	; 255
  9bc276:	85 83       	std	Z+5, r24	; 0x05
  9bc278:	46 83       	std	Z+6, r20	; 0x06
  9bc27a:	27 83       	std	Z+7, r18	; 0x07
  9bc27c:	00 87       	std	Z+8, r16	; 0x08
  9bc27e:	e1 86       	std	Z+9, r14	; 0x09
  9bc280:	c2 86       	std	Z+10, r12	; 0x0a
  9bc282:	13 86       	std	Z+11, r1	; 0x0b
  9bc284:	14 86       	std	Z+12, r1	; 0x0c
  9bc286:	15 86       	std	Z+13, r1	; 0x0d
  9bc288:	16 86       	std	Z+14, r1	; 0x0e
  9bc28a:	17 86       	std	Z+15, r1	; 0x0f
  9bc28c:	20 e0       	ldi	r18, 0x00	; 0
  9bc28e:	41 e0       	ldi	r20, 0x01	; 1
  9bc290:	60 e1       	ldi	r22, 0x10	; 16
  9bc292:	cf 01       	movw	r24, r30
  9bc294:	0f 91       	pop	r16
  9bc296:	ef 90       	pop	r14
  9bc298:	cf 90       	pop	r12
  9bc29a:	0c 94 00 00 	jmp	0	; 0x0 <__tmp_reg__>

Disassembly of section .text._ZN13LiquidCrystal8noCursorEv:

013784fc <_ZN13LiquidCrystal8noCursorEv>:
 13784fc:	fc 01       	movw	r30, r24
 13784fe:	60 89       	ldd	r22, Z+16	; 0x10
 1378500:	6d 7f       	andi	r22, 0xFD	; 253
 1378502:	60 8b       	std	Z+16, r22	; 0x10
 1378504:	68 60       	ori	r22, 0x08	; 8
 1378506:	0c 94 00 00 	jmp	0	; 0x0 <__tmp_reg__>

Disassembly of section .text._ZN13LiquidCrystal6cursorEv:

026f0a06 <_ZN13LiquidCrystal6cursorEv>:
 26f0a06:	fc 01       	movw	r30, r24
 26f0a08:	60 89       	ldd	r22, Z+16	; 0x10
 26f0a0a:	26 2f       	mov	r18, r22
 26f0a0c:	22 60       	ori	r18, 0x02	; 2
 26f0a0e:	20 8b       	std	Z+16, r18	; 0x10
 26f0a10:	6a 60       	ori	r22, 0x0A	; 10
 26f0a12:	0c 94 00 00 	jmp	0	; 0x0 <__tmp_reg__>

Disassembly of section .text._ZN13LiquidCrystal7noBlinkEv:

04de141c <_ZN13LiquidCrystal7noBlinkEv>:
 4de141c:	fc 01       	movw	r30, r24
 4de141e:	60 89       	ldd	r22, Z+16	; 0x10
 4de1420:	6e 7f       	andi	r22, 0xFE	; 254
 4de1422:	60 8b       	std	Z+16, r22	; 0x10
 4de1424:	68 60       	ori	r22, 0x08	; 8
 4de1426:	0c 94 00 00 	jmp	0	; 0x0 <__tmp_reg__>

Disassembly of section .text._ZN13LiquidCrystal5blinkEv:

09bc2846 <_ZN13LiquidCrystal5blinkEv>:
 9bc2846:	fc 01       	movw	r30, r24
 9bc2848:	60 89       	ldd	r22, Z+16	; 0x10
 9bc284a:	26 2f       	mov	r18, r22
 9bc284c:	21 60       	ori	r18, 0x01	; 1
 9bc284e:	20 8b       	std	Z+16, r18	; 0x10
 9bc2850:	69 60       	ori	r22, 0x09	; 9
 9bc2852:	0c 94 00 00 	jmp	0	; 0x0 <__tmp_reg__>

Disassembly of section .text._ZN13LiquidCrystal17scrollDisplayLeftEv:

1378509c <_ZN13LiquidCrystal17scrollDisplayLeftEv>:
1378509c:	68 e1       	ldi	r22, 0x18	; 24
1378509e:	0c 94 00 00 	jmp	0	; 0x0 <__tmp_reg__>

Disassembly of section .text._ZN13LiquidCrystal18scrollDisplayRightEv:

26f0a13e <_ZN13LiquidCrystal18scrollDisplayRightEv>:
26f0a13e:	6c e1       	ldi	r22, 0x1C	; 28
26f0a140:	0c 94 00 00 	jmp	0	; 0x0 <__tmp_reg__>

Disassembly of section .text._ZN13LiquidCrystal11leftToRightEv:

4de14282 <_ZN13LiquidCrystal11leftToRightEv>:
4de14282:	fc 01       	movw	r30, r24
4de14284:	61 89       	ldd	r22, Z+17	; 0x11
4de14286:	26 2f       	mov	r18, r22
4de14288:	22 60       	ori	r18, 0x02	; 2
4de1428a:	21 8b       	std	Z+17, r18	; 0x11
4de1428c:	66 60       	ori	r22, 0x06	; 6
4de1428e:	0c 94 00 00 	jmp	0	; 0x0 <__tmp_reg__>

Disassembly of section .text._ZN13LiquidCrystal11rightToLeftEv:

9bc28514 <_ZN13LiquidCrystal11rightToLeftEv>:
9bc28514:	fc 01       	movw	r30, r24
9bc28516:	61 89       	ldd	r22, Z+17	; 0x11
9bc28518:	6d 7f       	andi	r22, 0xFD	; 253
9bc2851a:	61 8b       	std	Z+17, r22	; 0x11
9bc2851c:	64 60       	ori	r22, 0x04	; 4
9bc2851e:	0c 94 00 00 	jmp	0	; 0x0 <__tmp_reg__>

Disassembly of section .text._ZN13LiquidCrystal10autoscrollEv:

37850a36 <_ZN13LiquidCrystal10autoscrollEv>:
37850a36:	fc 01       	movw	r30, r24
37850a38:	61 89       	ldd	r22, Z+17	; 0x11
37850a3a:	26 2f       	mov	r18, r22
37850a3c:	21 60       	ori	r18, 0x01	; 1
37850a3e:	21 8b       	std	Z+17, r18	; 0x11
37850a40:	65 60       	ori	r22, 0x05	; 5
37850a42:	0c 94 00 00 	jmp	0	; 0x0 <__tmp_reg__>

Disassembly of section .text._ZN13LiquidCrystal12noAutoscrollEv:

6f0a147c <_ZN13LiquidCrystal12noAutoscrollEv>:
6f0a147c:	fc 01       	movw	r30, r24
6f0a147e:	61 89       	ldd	r22, Z+17	; 0x11
6f0a1480:	6e 7f       	andi	r22, 0xFE	; 254
6f0a1482:	61 8b       	std	Z+17, r22	; 0x11
6f0a1484:	64 60       	ori	r22, 0x04	; 4
6f0a1486:	0c 94 00 00 	jmp	0	; 0x0 <__tmp_reg__>

Disassembly of section .text._ZN13LiquidCrystal10createCharEhPh:

de142906 <_ZN13LiquidCrystal10createCharEhPh>:
de142906:	cf 92       	push	r12
de142908:	df 92       	push	r13
de14290a:	ef 92       	push	r14
de14290c:	ff 92       	push	r15
de14290e:	0f 93       	push	r16
de142910:	1f 93       	push	r17
de142912:	cf 93       	push	r28
de142914:	df 93       	push	r29
de142916:	00 d0       	rcall	.+0      	; 0xde142918 <__SREG__+0xde1428d9>
de142918:	cd b7       	in	r28, 0x3d	; 61
de14291a:	de b7       	in	r29, 0x3e	; 62
de14291c:	8c 01       	movw	r16, r24
de14291e:	67 70       	andi	r22, 0x07	; 7
de142920:	88 e0       	ldi	r24, 0x08	; 8
de142922:	68 9f       	mul	r22, r24
de142924:	b0 01       	movw	r22, r0
de142926:	11 24       	eor	r1, r1
de142928:	60 64       	ori	r22, 0x40	; 64
de14292a:	c8 01       	movw	r24, r16
de14292c:	49 83       	std	Y+1, r20	; 0x01
de14292e:	5a 83       	std	Y+2, r21	; 0x02
de142930:	0e 94 00 00 	call	0	; 0x0 <__tmp_reg__>
de142934:	49 81       	ldd	r20, Y+1	; 0x01
de142936:	c4 2e       	mov	r12, r20
de142938:	5a 81       	ldd	r21, Y+2	; 0x02
de14293a:	d5 2e       	mov	r13, r21
de14293c:	e1 2c       	mov	r14, r1
de14293e:	f1 2c       	mov	r15, r1
de142940:	d6 01       	movw	r26, r12
de142942:	6d 91       	ld	r22, X+
de142944:	6d 01       	movw	r12, r26
de142946:	d8 01       	movw	r26, r16
de142948:	ed 91       	ld	r30, X+
de14294a:	fc 91       	ld	r31, X
de14294c:	01 90       	ld	r0, Z+
de14294e:	f0 81       	ld	r31, Z
de142950:	e0 2d       	mov	r30, r0
de142952:	c8 01       	movw	r24, r16
de142954:	09 95       	icall
de142956:	bf ef       	ldi	r27, 0xFF	; 255
de142958:	eb 1a       	sub	r14, r27
de14295a:	fb 0a       	sbc	r15, r27
de14295c:	e8 e0       	ldi	r30, 0x08	; 8
de14295e:	ee 16       	cp	r14, r30
de142960:	f1 04       	cpc	r15, r1
de142962:	01 f4       	brne	.+0      	; 0xde142964 <__SREG__+0xde142925>
de142964:	0f 90       	pop	r0
de142966:	0f 90       	pop	r0
de142968:	df 91       	pop	r29
de14296a:	cf 91       	pop	r28
de14296c:	1f 91       	pop	r17
de14296e:	0f 91       	pop	r16
de142970:	ff 90       	pop	r15
de142972:	ef 90       	pop	r14
de142974:	df 90       	pop	r13
de142976:	cf 90       	pop	r12
de142978:	08 95       	ret

Disassembly of section .text._ZN13LiquidCrystal5writeEh:

bc285280 <_ZN13LiquidCrystal5writeEh>:
bc285280:	41 e0       	ldi	r20, 0x01	; 1
bc285282:	0e 94 00 00 	call	0	; 0x0 <__tmp_reg__>
bc285286:	81 e0       	ldi	r24, 0x01	; 1
bc285288:	90 e0       	ldi	r25, 0x00	; 0
bc28528a:	08 95       	ret

HID.o:     file format elf32-avr

Sections:
Idx Name          Size      VMA       LMA       File off  Algn
  0 .text         00000000  00000000  00000000  00000034  2**0
                  CONTENTS, ALLOC, LOAD, READONLY, CODE
  1 .data         00000000  00000000  00000000  00000034  2**0
                  CONTENTS, ALLOC, LOAD, DATA
  2 .bss          00000000  00000000  00000000  00000034  2**0
                  ALLOC
  3 .stab         0000069c  00000000  00000000  00000034  2**2
                  CONTENTS, RELOC, READONLY, DEBUGGING
  4 .stabstr      000011a0  00000000  00000000  000006d0  2**0
                  CONTENTS, READONLY, DEBUGGING
  5 .comment      00000012  00000000  00000000  00001870  2**0
                  CONTENTS, READONLY

CDC.o:     file format elf32-avr

Sections:
Idx Name          Size      VMA       LMA       File off  Algn
  0 .text         00000000  00000000  00000000  00000034  2**0
                  CONTENTS, ALLOC, LOAD, READONLY, CODE
  1 .data         00000000  00000000  00000000  00000034  2**0
                  CONTENTS, ALLOC, LOAD, DATA
  2 .bss          00000000  00000000  00000000  00000034  2**0
                  ALLOC
  3 .stab         0000069c  00000000  00000000  00000034  2**2
                  CONTENTS, RELOC, READONLY, DEBUGGING
  4 .stabstr      000011a3  00000000  00000000  000006d0  2**0
                  CONTENTS, READONLY, DEBUGGING
  5 .comment      00000012  00000000  00000000  00001873  2**0
                  CONTENTS, READONLY

HardwareSerial.o:     file format elf32-avr

Sections:
Idx Name          Size      VMA       LMA       File off  Algn
  0 .group        00000008  00000000  00000000  00000034  2**2
                  CONTENTS, READONLY, EXCLUDE, GROUP, LINK_ONCE_DISCARD
  1 .text         00000000  00000000  00000000  0000003c  2**0
                  CONTENTS, ALLOC, LOAD, READONLY, CODE
  2 .data         00000028  00000000  00000000  0000003c  2**0
                  CONTENTS, ALLOC, LOAD, DATA
  3 .bss          00000000  00000000  00000000  00000064  2**0
                  ALLOC
  4 .stab         00000c3c  00000000  00000000  00000064  2**2
                  CONTENTS, RELOC, READONLY, DEBUGGING
  5 .stabstr      0000161f  00000000  00000000  00000ca0  2**0
                  CONTENTS, READONLY, DEBUGGING
  6 .text._ZN14HardwareSerial9availableEv 00000016  00000000  00000000  000022bf  2**0
                  CONTENTS, ALLOC, LOAD, READONLY, CODE
  7 .text._ZN14HardwareSerial4peekEv 0000001c  00000000  00000000  000022d5  2**0
                  CONTENTS, ALLOC, LOAD, RELOC, READONLY, CODE
  8 .text._ZN14HardwareSerial4readEv 00000028  00000000  00000000  000022f1  2**0
                  CONTENTS, ALLOC, LOAD, RELOC, READONLY, CODE
  9 .text._Z14serialEventRunv 0000001c  00000000  00000000  00002319  2**0
                  CONTENTS, ALLOC, LOAD, RELOC, READONLY, CODE
 10 .text._ZN14HardwareSerial17_tx_udr_empty_irqEv 00000042  00000000  00000000  00002335  2**0
                  CONTENTS, ALLOC, LOAD, RELOC, READONLY, CODE
 11 .text._ZN14HardwareSerial5flushEv 00000044  00000000  00000000  00002377  2**0
                  CONTENTS, ALLOC, LOAD, RELOC, READONLY, CODE
 12 .text._ZN14HardwareSerial5writeEh 000000ca  00000000  00000000  000023bb  2**0
                  CONTENTS, ALLOC, LOAD, RELOC, READONLY, CODE
 13 .text._ZN14HardwareSerial5beginEmh 000000c4  00000000  00000000  00002485  2**0
                  CONTENTS, ALLOC, LOAD, RELOC, READONLY, CODE
 14 .text._ZN14HardwareSerial3endEv 00000044  00000000  00000000  00002549  2**0
                  CONTENTS, ALLOC, LOAD, READONLY, CODE
 15 .text._ZN14HardwareSerial17availableForWriteEv 0000001e  00000000  00000000  0000258d  2**0
                  CONTENTS, ALLOC, LOAD, RELOC, READONLY, CODE
 16 .rodata._ZTV14HardwareSerial 00000010  00000000  00000000  000025ab  2**0
                  CONTENTS, ALLOC, LOAD, RELOC, READONLY, DATA
 17 .comment      00000012  00000000  00000000  000025bb  2**0
                  CONTENTS, READONLY

Disassembly of section .text._ZN14HardwareSerial9availableEv:

00000000 <_ZN14HardwareSerial9availableEv>:
{
#if (SERIAL_TX_BUFFER_SIZE>256)
  uint8_t oldSREG = SREG;
  cli();
#endif
  tx_buffer_index_t head = _tx_buffer_head;
   0:	fc 01       	movw	r30, r24
#if (SERIAL_TX_BUFFER_SIZE>256)
  SREG = oldSREG;
#endif
  if (head >= tail) return SERIAL_TX_BUFFER_SIZE - 1 - head + tail;
  return tail - head - 1;
}
  2a:	81 8d       	Address 0x000000000000002a is out of bounds.
.word	0xffff	; ????
  2c:	22 8d       	Address 0x000000000000002c is out of bounds.
.word	0xffff	; ????
  2e:	90 e0       	Address 0x000000000000002e is out of bounds.
.word	0xffff	; ????
  30:	80 5c       	Address 0x0000000000000030 is out of bounds.
.word	0xffff	; ????
  32:	9f 4f       	Address 0x0000000000000032 is out of bounds.
.word	0xffff	; ????
  34:	82 1b       	Address 0x0000000000000034 is out of bounds.
.word	0xffff	; ????
  36:	91 09       	Address 0x0000000000000036 is out of bounds.
.word	0xffff	; ????
  38:	8f 73       	Address 0x0000000000000038 is out of bounds.
.word	0xffff	; ????
  3a:	99 27       	Address 0x000000000000003a is out of bounds.
.word	0xffff	; ????
  3c:	08 95       	Address 0x000000000000003c is out of bounds.
.word	0xffff	; ????

Disassembly of section .text._ZN14HardwareSerial4peekEv:

00000066 <_ZN14HardwareSerial4peekEv>:
  66:	fc 01       	movw	r30, r24
  68:	91 8d       	ldd	r25, Z+25	; 0x19
  6a:	82 8d       	ldd	r24, Z+26	; 0x1a
  6c:	98 17       	cp	r25, r24
  6e:	01 f0       	breq	.+0      	; 0x70 <_ZN14HardwareSerial4peekEv+0xa>
  70:	82 8d       	ldd	r24, Z+26	; 0x1a
  72:	e8 0f       	add	r30, r24
  74:	f1 1d       	adc	r31, r1
  76:	85 8d       	ldd	r24, Z+29	; 0x1d
  78:	90 e0       	ldi	r25, 0x00	; 0
  7a:	08 95       	ret
  7c:	8f ef       	ldi	r24, 0xFF	; 255
  7e:	9f ef       	ldi	r25, 0xFF	; 255
  80:	08 95       	ret

Disassembly of section .text._ZN14HardwareSerial4readEv:

000000e8 <_ZN14HardwareSerial4readEv>:
  e8:	fc 01       	movw	r30, r24
  ea:	91 8d       	ldd	r25, Z+25	; 0x19
  ec:	82 8d       	ldd	r24, Z+26	; 0x1a
  ee:	98 17       	cp	r25, r24
  f0:	01 f0       	breq	.+0      	; 0xf2 <_ZN14HardwareSerial4readEv+0xa>
  f2:	82 8d       	ldd	r24, Z+26	; 0x1a
  f4:	df 01       	movw	r26, r30
  f6:	a8 0f       	add	r26, r24
  f8:	b1 1d       	adc	r27, r1
  fa:	5d 96       	adiw	r26, 0x1d	; 29
  fc:	8c 91       	ld	r24, X
  fe:	92 8d       	ldd	r25, Z+26	; 0x1a
 100:	9f 5f       	subi	r25, 0xFF	; 255
 102:	9f 73       	andi	r25, 0x3F	; 63
 104:	92 8f       	std	Z+26, r25	; 0x1a
 106:	90 e0       	ldi	r25, 0x00	; 0
 108:	08 95       	ret
 10a:	8f ef       	ldi	r24, 0xFF	; 255
 10c:	9f ef       	ldi	r25, 0xFF	; 255
 10e:	08 95       	ret

Disassembly of section .text._Z14serialEventRunv:

000001f8 <_Z14serialEventRunv>:
 1f8:	80 e0       	ldi	r24, 0x00	; 0
 1fa:	90 e0       	ldi	r25, 0x00	; 0
 1fc:	89 2b       	or	r24, r25
 1fe:	01 f0       	breq	.+0      	; 0x200 <_Z14serialEventRunv+0x8>
 200:	80 e0       	ldi	r24, 0x00	; 0
 202:	90 e0       	ldi	r25, 0x00	; 0
 204:	89 2b       	or	r24, r25
 206:	01 f0       	breq	.+0      	; 0x208 <_Z14serialEventRunv+0x10>
 208:	0e 94 00 00 	call	0	; 0x0 <__tmp_reg__>
 20c:	81 11       	cpse	r24, r1
 20e:	0c 94 00 00 	jmp	0	; 0x0 <__tmp_reg__>
 212:	08 95       	ret

Disassembly of section .text._ZN14HardwareSerial17_tx_udr_empty_irqEv:

0000040c <_ZN14HardwareSerial17_tx_udr_empty_irqEv>:
 40c:	fc 01       	movw	r30, r24
 40e:	84 8d       	ldd	r24, Z+28	; 0x1c
 410:	df 01       	movw	r26, r30
 412:	a8 0f       	add	r26, r24
 414:	b1 1d       	adc	r27, r1
 416:	a3 5a       	subi	r26, 0xA3	; 163
 418:	bf 4f       	sbci	r27, 0xFF	; 255
 41a:	2c 91       	ld	r18, X
 41c:	84 8d       	ldd	r24, Z+28	; 0x1c
 41e:	90 e0       	ldi	r25, 0x00	; 0
 420:	01 96       	adiw	r24, 0x01	; 1
 422:	8f 73       	andi	r24, 0x3F	; 63
 424:	99 27       	eor	r25, r25
 426:	84 8f       	std	Z+28, r24	; 0x1c
 428:	a6 89       	ldd	r26, Z+22	; 0x16
 42a:	b7 89       	ldd	r27, Z+23	; 0x17
 42c:	2c 93       	st	X, r18
 42e:	a0 89       	ldd	r26, Z+16	; 0x10
 430:	b1 89       	ldd	r27, Z+17	; 0x11
 432:	8c 91       	ld	r24, X
 434:	80 64       	ori	r24, 0x40	; 64
 436:	8c 93       	st	X, r24
 438:	93 8d       	ldd	r25, Z+27	; 0x1b
 43a:	84 8d       	ldd	r24, Z+28	; 0x1c
 43c:	98 13       	cpse	r25, r24
 43e:	00 c0       	rjmp	.+0      	; 0x440 <_ZN14HardwareSerial17_tx_udr_empty_irqEv+0x34>
 440:	02 88       	ldd	r0, Z+18	; 0x12
 442:	f3 89       	ldd	r31, Z+19	; 0x13
 444:	e0 2d       	mov	r30, r0
 446:	80 81       	ld	r24, Z
 448:	8f 7d       	andi	r24, 0xDF	; 223
 44a:	80 83       	st	Z, r24
 44c:	08 95       	ret

Disassembly of section .text._ZN14HardwareSerial5flushEv:

0000085a <_ZN14HardwareSerial5flushEv>:
 85a:	cf 93       	push	r28
 85c:	df 93       	push	r29
 85e:	ec 01       	movw	r28, r24
 860:	88 8d       	ldd	r24, Y+24	; 0x18
 862:	88 23       	and	r24, r24
 864:	01 f0       	breq	.+0      	; 0x866 <_ZN14HardwareSerial5flushEv+0xc>
 866:	ea 89       	ldd	r30, Y+18	; 0x12
 868:	fb 89       	ldd	r31, Y+19	; 0x13
 86a:	80 81       	ld	r24, Z
 86c:	85 fd       	sbrc	r24, 5
 86e:	00 c0       	rjmp	.+0      	; 0x870 <_ZN14HardwareSerial5flushEv+0x16>
 870:	a8 89       	ldd	r26, Y+16	; 0x10
 872:	b9 89       	ldd	r27, Y+17	; 0x11
 874:	8c 91       	ld	r24, X
 876:	86 fd       	sbrc	r24, 6
 878:	00 c0       	rjmp	.+0      	; 0x87a <_ZN14HardwareSerial5flushEv+0x20>
 87a:	0f b6       	in	r0, 0x3f	; 63
 87c:	07 fc       	sbrc	r0, 7
 87e:	00 c0       	rjmp	.+0      	; 0x880 <_ZN14HardwareSerial5flushEv+0x26>
 880:	80 81       	ld	r24, Z
 882:	85 ff       	sbrs	r24, 5
 884:	00 c0       	rjmp	.+0      	; 0x886 <_ZN14HardwareSerial5flushEv+0x2c>
 886:	a8 89       	ldd	r26, Y+16	; 0x10
 888:	b9 89       	ldd	r27, Y+17	; 0x11
 88a:	8c 91       	ld	r24, X
 88c:	85 ff       	sbrs	r24, 5
 88e:	00 c0       	rjmp	.+0      	; 0x890 <_ZN14HardwareSerial5flushEv+0x36>
 890:	ce 01       	movw	r24, r28
 892:	0e 94 00 00 	call	0	; 0x0 <__tmp_reg__>
 896:	00 c0       	rjmp	.+0      	; 0x898 <_ZN14HardwareSerial5flushEv+0x3e>
 898:	df 91       	pop	r29
 89a:	cf 91       	pop	r28
 89c:	08 95       	ret

Disassembly of section .text._ZN14HardwareSerial5writeEh:

000010f8 <_ZN14HardwareSerial5writeEh>:
    10f8:	cf 92       	push	r12
    10fa:	df 92       	push	r13
    10fc:	ff 92       	push	r15
    10fe:	0f 93       	push	r16
    1100:	1f 93       	push	r17
    1102:	cf 93       	push	r28
    1104:	df 93       	push	r29
    1106:	1f 92       	push	r1
    1108:	cd b7       	in	r28, 0x3d	; 61
    110a:	de b7       	in	r29, 0x3e	; 62
    110c:	6c 01       	movw	r12, r24
    110e:	81 e0       	ldi	r24, 0x01	; 1
    1110:	d6 01       	movw	r26, r12
    1112:	58 96       	adiw	r26, 0x18	; 24
    1114:	8c 93       	st	X, r24
    1116:	58 97       	sbiw	r26, 0x18	; 24
    1118:	5b 96       	adiw	r26, 0x1b	; 27
    111a:	9c 91       	ld	r25, X
    111c:	5b 97       	sbiw	r26, 0x1b	; 27
    111e:	5c 96       	adiw	r26, 0x1c	; 28
    1120:	8c 91       	ld	r24, X
    1122:	5c 97       	sbiw	r26, 0x1c	; 28
    1124:	98 13       	cpse	r25, r24
    1126:	00 c0       	rjmp	.+0      	; 0x1128 <_ZN14HardwareSerial5writeEh+0x30>
    1128:	50 96       	adiw	r26, 0x10	; 16
    112a:	ed 91       	ld	r30, X+
    112c:	fc 91       	ld	r31, X
    112e:	51 97       	sbiw	r26, 0x11	; 17
    1130:	80 81       	ld	r24, Z
    1132:	85 fd       	sbrc	r24, 5
    1134:	00 c0       	rjmp	.+0      	; 0x1136 <_ZN14HardwareSerial5writeEh+0x3e>
    1136:	f6 01       	movw	r30, r12
    1138:	03 8d       	ldd	r16, Z+27	; 0x1b
    113a:	10 e0       	ldi	r17, 0x00	; 0
    113c:	0f 5f       	subi	r16, 0xFF	; 255
    113e:	1f 4f       	sbci	r17, 0xFF	; 255
    1140:	0f 73       	andi	r16, 0x3F	; 63
    1142:	11 27       	eor	r17, r17
    1144:	f0 2e       	mov	r15, r16
    1146:	f6 01       	movw	r30, r12
    1148:	84 8d       	ldd	r24, Z+28	; 0x1c
    114a:	f8 12       	cpse	r15, r24
    114c:	00 c0       	rjmp	.+0      	; 0x114e <_ZN14HardwareSerial5writeEh+0x56>
    114e:	0f b6       	in	r0, 0x3f	; 63
    1150:	07 fc       	sbrc	r0, 7
    1152:	00 c0       	rjmp	.+0      	; 0x1154 <_ZN14HardwareSerial5writeEh+0x5c>
    1154:	d6 01       	movw	r26, r12
    1156:	50 96       	adiw	r26, 0x10	; 16
    1158:	ed 91       	ld	r30, X+
    115a:	fc 91       	ld	r31, X
    115c:	51 97       	sbiw	r26, 0x11	; 17
    115e:	80 81       	ld	r24, Z
    1160:	85 ff       	sbrs	r24, 5
    1162:	00 c0       	rjmp	.+0      	; 0x1164 <_ZN14HardwareSerial5writeEh+0x6c>
    1164:	c6 01       	movw	r24, r12
    1166:	69 83       	std	Y+1, r22	; 0x01
    1168:	0e 94 00 00 	call	0	; 0x0 <__tmp_reg__>
    116c:	69 81       	ldd	r22, Y+1	; 0x01
    116e:	00 c0       	rjmp	.+0      	; 0x1170 <_ZN14HardwareSerial5writeEh+0x78>
    1170:	83 8d       	ldd	r24, Z+27	; 0x1b
    1172:	e8 0f       	add	r30, r24
    1174:	f1 1d       	adc	r31, r1
    1176:	e3 5a       	subi	r30, 0xA3	; 163
    1178:	ff 4f       	sbci	r31, 0xFF	; 255
    117a:	60 83       	st	Z, r22
    117c:	d6 01       	movw	r26, r12
    117e:	5b 96       	adiw	r26, 0x1b	; 27
    1180:	0c 93       	st	X, r16
    1182:	5b 97       	sbiw	r26, 0x1b	; 27
    1184:	52 96       	adiw	r26, 0x12	; 18
    1186:	ed 91       	ld	r30, X+
    1188:	fc 91       	ld	r31, X
    118a:	53 97       	sbiw	r26, 0x13	; 19
    118c:	80 81       	ld	r24, Z
    118e:	80 62       	ori	r24, 0x20	; 32
    1190:	00 c0       	rjmp	.+0      	; 0x1192 <_ZN14HardwareSerial5writeEh+0x9a>
    1192:	d6 01       	movw	r26, r12
    1194:	56 96       	adiw	r26, 0x16	; 22
    1196:	ed 91       	ld	r30, X+
    1198:	fc 91       	ld	r31, X
    119a:	57 97       	sbiw	r26, 0x17	; 23
    119c:	60 83       	st	Z, r22
    119e:	50 96       	adiw	r26, 0x10	; 16
    11a0:	ed 91       	ld	r30, X+
    11a2:	fc 91       	ld	r31, X
    11a4:	51 97       	sbiw	r26, 0x11	; 17
    11a6:	80 81       	ld	r24, Z
    11a8:	80 64       	ori	r24, 0x40	; 64
    11aa:	80 83       	st	Z, r24
    11ac:	81 e0       	ldi	r24, 0x01	; 1
    11ae:	90 e0       	ldi	r25, 0x00	; 0
    11b0:	0f 90       	pop	r0
    11b2:	df 91       	pop	r29
    11b4:	cf 91       	pop	r28
    11b6:	1f 91       	pop	r17
    11b8:	0f 91       	pop	r16
    11ba:	ff 90       	pop	r15
    11bc:	df 90       	pop	r13
    11be:	cf 90       	pop	r12
    11c0:	08 95       	ret

Disassembly of section .text._ZN14HardwareSerial5beginEmh:

000022ba <_ZN14HardwareSerial5beginEmh>:
    22ba:	bf 92       	push	r11
    22bc:	cf 92       	push	r12
    22be:	df 92       	push	r13
    22c0:	ef 92       	push	r14
    22c2:	ff 92       	push	r15
    22c4:	cf 93       	push	r28
    22c6:	df 93       	push	r29
    22c8:	ec 01       	movw	r28, r24
    22ca:	6a 01       	movw	r12, r20
    22cc:	7b 01       	movw	r14, r22
    22ce:	b2 2e       	mov	r11, r18
    22d0:	e8 89       	ldd	r30, Y+16	; 0x10
    22d2:	f9 89       	ldd	r31, Y+17	; 0x11
    22d4:	82 e0       	ldi	r24, 0x02	; 2
    22d6:	80 83       	st	Z, r24
    22d8:	41 15       	cp	r20, r1
    22da:	81 ee       	ldi	r24, 0xE1	; 225
    22dc:	58 07       	cpc	r21, r24
    22de:	61 05       	cpc	r22, r1
    22e0:	71 05       	cpc	r23, r1
    22e2:	01 f0       	breq	.+0      	; 0x22e4 <_ZN14HardwareSerial5beginEmh+0x2a>
    22e4:	60 e0       	ldi	r22, 0x00	; 0
    22e6:	79 e0       	ldi	r23, 0x09	; 9
    22e8:	8d e3       	ldi	r24, 0x3D	; 61
    22ea:	90 e0       	ldi	r25, 0x00	; 0
    22ec:	a7 01       	movw	r20, r14
    22ee:	96 01       	movw	r18, r12
    22f0:	0e 94 00 00 	call	0	; 0x0 <__tmp_reg__>
    22f4:	21 50       	subi	r18, 0x01	; 1
    22f6:	31 09       	sbc	r19, r1
    22f8:	41 09       	sbc	r20, r1
    22fa:	51 09       	sbc	r21, r1
    22fc:	56 95       	lsr	r21
    22fe:	47 95       	ror	r20
    2300:	37 95       	ror	r19
    2302:	27 95       	ror	r18
    2304:	21 15       	cp	r18, r1
    2306:	80 e1       	ldi	r24, 0x10	; 16
    2308:	38 07       	cpc	r19, r24
    230a:	00 f0       	brcs	.+0      	; 0x230c <_ZN14HardwareSerial5beginEmh+0x52>
    230c:	e8 89       	ldd	r30, Y+16	; 0x10
    230e:	f9 89       	ldd	r31, Y+17	; 0x11
    2310:	10 82       	st	Z, r1
    2312:	60 e8       	ldi	r22, 0x80	; 128
    2314:	74 e8       	ldi	r23, 0x84	; 132
    2316:	8e e1       	ldi	r24, 0x1E	; 30
    2318:	90 e0       	ldi	r25, 0x00	; 0
    231a:	a7 01       	movw	r20, r14
    231c:	96 01       	movw	r18, r12
    231e:	0e 94 00 00 	call	0	; 0x0 <__tmp_reg__>
    2322:	21 50       	subi	r18, 0x01	; 1
    2324:	31 09       	sbc	r19, r1
    2326:	41 09       	sbc	r20, r1
    2328:	51 09       	sbc	r21, r1
    232a:	56 95       	lsr	r21
    232c:	47 95       	ror	r20
    232e:	37 95       	ror	r19
    2330:	27 95       	ror	r18
    2332:	ec 85       	ldd	r30, Y+12	; 0x0c
    2334:	fd 85       	ldd	r31, Y+13	; 0x0d
    2336:	30 83       	st	Z, r19
    2338:	ee 85       	ldd	r30, Y+14	; 0x0e
    233a:	ff 85       	ldd	r31, Y+15	; 0x0f
    233c:	20 83       	st	Z, r18
    233e:	18 8e       	std	Y+24, r1	; 0x18
    2340:	ec 89       	ldd	r30, Y+20	; 0x14
    2342:	fd 89       	ldd	r31, Y+21	; 0x15
    2344:	b0 82       	st	Z, r11
    2346:	ea 89       	ldd	r30, Y+18	; 0x12
    2348:	fb 89       	ldd	r31, Y+19	; 0x13
    234a:	80 81       	ld	r24, Z
    234c:	80 61       	ori	r24, 0x10	; 16
    234e:	80 83       	st	Z, r24
    2350:	ea 89       	ldd	r30, Y+18	; 0x12
    2352:	fb 89       	ldd	r31, Y+19	; 0x13
    2354:	80 81       	ld	r24, Z
    2356:	88 60       	ori	r24, 0x08	; 8
    2358:	80 83       	st	Z, r24
    235a:	ea 89       	ldd	r30, Y+18	; 0x12
    235c:	fb 89       	ldd	r31, Y+19	; 0x13
    235e:	80 81       	ld	r24, Z
    2360:	80 68       	ori	r24, 0x80	; 128
    2362:	80 83       	st	Z, r24
    2364:	ea 89       	ldd	r30, Y+18	; 0x12
    2366:	fb 89       	ldd	r31, Y+19	; 0x13
    2368:	80 81       	ld	r24, Z
    236a:	8f 7d       	andi	r24, 0xDF	; 223
    236c:	80 83       	st	Z, r24
    236e:	df 91       	pop	r29
    2370:	cf 91       	pop	r28
    2372:	ff 90       	pop	r15
    2374:	ef 90       	pop	r14
    2376:	df 90       	pop	r13
    2378:	cf 90       	pop	r12
    237a:	bf 90       	pop	r11
    237c:	08 95       	ret

Disassembly of section .text._ZN14HardwareSerial3endEv:

00004638 <_ZN14HardwareSerial3endEv>:
    4638:	cf 93       	push	r28
    463a:	df 93       	push	r29
    463c:	ec 01       	movw	r28, r24
    463e:	e8 81       	ld	r30, Y
    4640:	f9 81       	ldd	r31, Y+1	; 0x01
    4642:	02 84       	ldd	r0, Z+10	; 0x0a
    4644:	f3 85       	ldd	r31, Z+11	; 0x0b
    4646:	e0 2d       	mov	r30, r0
    4648:	09 95       	icall
    464a:	ea 89       	ldd	r30, Y+18	; 0x12
    464c:	fb 89       	ldd	r31, Y+19	; 0x13
    464e:	80 81       	ld	r24, Z
    4650:	8f 7e       	andi	r24, 0xEF	; 239
    4652:	80 83       	st	Z, r24
    4654:	ea 89       	ldd	r30, Y+18	; 0x12
    4656:	fb 89       	ldd	r31, Y+19	; 0x13
    4658:	80 81       	ld	r24, Z
    465a:	87 7f       	andi	r24, 0xF7	; 247
    465c:	80 83       	st	Z, r24
    465e:	ea 89       	ldd	r30, Y+18	; 0x12
    4660:	fb 89       	ldd	r31, Y+19	; 0x13
    4662:	80 81       	ld	r24, Z
    4664:	8f 77       	andi	r24, 0x7F	; 127
    4666:	80 83       	st	Z, r24
    4668:	ea 89       	ldd	r30, Y+18	; 0x12
    466a:	fb 89       	ldd	r31, Y+19	; 0x13
    466c:	80 81       	ld	r24, Z
    466e:	8f 7d       	andi	r24, 0xDF	; 223
    4670:	80 83       	st	Z, r24
    4672:	8a 8d       	ldd	r24, Y+26	; 0x1a
    4674:	89 8f       	std	Y+25, r24	; 0x19
    4676:	df 91       	pop	r29
    4678:	cf 91       	pop	r28
    467a:	08 95       	ret

Disassembly of section .text._ZN14HardwareSerial17availableForWriteEv:

00008cb4 <_ZN14HardwareSerial17availableForWriteEv>:
    8cb4:	fc 01       	movw	r30, r24
    8cb6:	53 8d       	ldd	r21, Z+27	; 0x1b
    8cb8:	44 8d       	ldd	r20, Z+28	; 0x1c
    8cba:	25 2f       	mov	r18, r21
    8cbc:	30 e0       	ldi	r19, 0x00	; 0
    8cbe:	84 2f       	mov	r24, r20
    8cc0:	90 e0       	ldi	r25, 0x00	; 0
    8cc2:	82 1b       	sub	r24, r18
    8cc4:	93 0b       	sbc	r25, r19
    8cc6:	54 17       	cp	r21, r20
    8cc8:	00 f0       	brcs	.+0      	; 0x8cca <_ZN14HardwareSerial17availableForWriteEv+0x16>
    8cca:	cf 96       	adiw	r24, 0x3f	; 63
    8ccc:	08 95       	ret
    8cce:	01 97       	sbiw	r24, 0x01	; 1
    8cd0:	08 95       	ret

IPAddress.o:     file format elf32-avr

Sections:
Idx Name          Size      VMA       LMA       File off  Algn
  0 .group        00000008  00000000  00000000  00000034  2**2
                  CONTENTS, READONLY, EXCLUDE, GROUP, LINK_ONCE_DISCARD
  1 .group        00000008  00000000  00000000  0000003c  2**2
                  CONTENTS, READONLY, EXCLUDE, GROUP, LINK_ONCE_DISCARD
  2 .text         00000000  00000000  00000000  00000044  2**0
                  CONTENTS, ALLOC, LOAD, READONLY, CODE
  3 .data         00000028  00000000  00000000  00000044  2**0
                  CONTENTS, ALLOC, LOAD, DATA
  4 .bss          00000000  00000000  00000000  0000006c  2**0
                  ALLOC
  5 .stab         00000b7c  00000000  00000000  0000006c  2**2
                  CONTENTS, RELOC, READONLY, DEBUGGING
  6 .stabstr      00001599  00000000  00000000  00000be8  2**0
                  CONTENTS, READONLY, DEBUGGING
  7 .text._ZNK9IPAddress7printToER5Print 00000074  00000000  00000000  00002181  2**0
                  CONTENTS, ALLOC, LOAD, RELOC, READONLY, CODE
  8 .text._ZN9IPAddressC2Ev 00000014  00000000  00000000  000021f5  2**0
                  CONTENTS, ALLOC, LOAD, RELOC, READONLY, CODE
  9 .text._ZN9IPAddressC2Ehhhh 00000018  00000000  00000000  00002209  2**0
                  CONTENTS, ALLOC, LOAD, RELOC, READONLY, CODE
 10 .text._ZN9IPAddressC2Em 00000014  00000000  00000000  00002221  2**0
                  CONTENTS, ALLOC, LOAD, RELOC, READONLY, CODE
 11 .text._ZN9IPAddressC2EPKh 00000020  00000000  00000000  00002235  2**0
                  CONTENTS, ALLOC, LOAD, RELOC, READONLY, CODE
 12 .text._ZN9IPAddress10fromStringEPKc 00000060  00000000  00000000  00002255  2**0
                  CONTENTS, ALLOC, LOAD, RELOC, READONLY, CODE
 13 .text._ZN9IPAddressaSEPKh 00000016  00000000  00000000  000022b5  2**0
                  CONTENTS, ALLOC, LOAD, READONLY, CODE
 14 .text._ZN9IPAddressaSEm 0000000c  00000000  00000000  000022cb  2**0
                  CONTENTS, ALLOC, LOAD, READONLY, CODE
 15 .text._ZNK9IPAddresseqEPKh 0000001e  00000000  00000000  000022d7  2**0
                  CONTENTS, ALLOC, LOAD, RELOC, READONLY, CODE
 16 .text.startup._GLOBAL__sub_I__ZN9IPAddressC2Ev 0000001e  00000000  00000000  000022f5  2**0
                  CONTENTS, ALLOC, LOAD, RELOC, READONLY, CODE
 17 .ctors        00000002  00000000  00000000  00002314  2**1
                  CONTENTS, ALLOC, LOAD, RELOC, READONLY, DATA
 18 .rodata._ZTV9Printable 00000006  00000000  00000000  00002316  2**0
                  CONTENTS, ALLOC, LOAD, RELOC, READONLY, DATA
 19 .rodata._ZTV9IPAddress 00000006  00000000  00000000  0000231c  2**0
                  CONTENTS, ALLOC, LOAD, RELOC, READONLY, DATA
 20 .bss._ZL11INADDR_NONE 00000006  00000000  00000000  00002322  2**0
                  ALLOC
 21 .comment      00000012  00000000  00000000  00002322  2**0
                  CONTENTS, READONLY

Disassembly of section .text._ZNK9IPAddress7printToER5Print:

00000000 <_ZNK9IPAddress7printToER5Print>:
IPAddress::IPAddress()
{
    _address.dword = 0;
}

IPAddress::IPAddress(uint8_t first_octet, uint8_t second_octet, uint8_t third_octet, uint8_t fourth_octet)
   0:	af 92       	push	r10
{
    _address.bytes[0] = first_octet;
    _address.bytes[1] = second_octet;
    _address.bytes[2] = third_octet;
    _address.bytes[3] = fourth_octet;
  2a:	bf 92       	ldd	r22, Z+2	; 0x02
  2c:	cf 92       	movw	r24, r14
  2e:	df 92 ef 92 	call	0	; 0x0 <__tmp_reg__>
  32:	ff 92       	movw	r10, r24
  34:	0f 93       	ldi	r22, 0x2E	; 46
  36:	1f 93       	movw	r24, r14
  38:	cf 93 df 93 	call	0	; 0x0 <__tmp_reg__>
  3c:	6c 01       	add	r24, r10
  3e:	7b 01       	adc	r25, r11
  40:	c0 e0       	add	r16, r24
  42:	d0 e0       	adc	r17, r25
  44:	00 e0       	adiw	r28, 0x01	; 1
  46:	10 e0       	cpi	r28, 0x03	; 3
  48:	f6 01       	cpc	r29, r1
  4a:	ec 0f       	brne	.+0      	; 0x4c <_ZNK9IPAddress7printToER5Print+0x24>
  4c:	fd 1f       	ldi	r20, 0x0A	; 10
  4e:	4a e0       	ldi	r21, 0x00	; 0
  50:	50 e0       	movw	r30, r12
  52:	62 81       	ldd	r22, Z+5	; 0x05
  54:	c7 01       	movw	r24, r14
  56:	0e 94 00 00 	call	0	; 0x0 <__tmp_reg__>
  5a:	5c 01       	add	r24, r16
  5c:	6e e2       	adc	r25, r17
  5e:	c7 01       	pop	r29
  60:	0e 94       	pop	r28
  62:	00 00       	pop	r17
  64:	8a 0d       	pop	r16
  66:	9b 1d       	pop	r15
  68:	08 0f       	pop	r14
  6a:	19 1f       	pop	r13
  6c:	21 96       	pop	r12
  6e:	c3 30       	pop	r11
  70:	d1 05       	pop	r10
  72:	01 f4       	ret
  74:	4a e0       	Address 0x0000000000000074 is out of bounds.
.word	0xffff	; ????
  76:	50 e0       	Address 0x0000000000000076 is out of bounds.
.word	0xffff	; ????
  78:	f6 01       	Address 0x0000000000000078 is out of bounds.
.word	0xffff	; ????
  7a:	65 81       	Address 0x000000000000007a is out of bounds.
.word	0xffff	; ????
  7c:	c7 01       	Address 0x000000000000007c is out of bounds.
.word	0xffff	; ????
  7e:	0e 94       	Address 0x000000000000007e is out of bounds.
.word	0xffff	; ????
  80:	00 00       	Address 0x0000000000000080 is out of bounds.
.word	0xffff	; ????
  82:	80 0f       	Address 0x0000000000000082 is out of bounds.
.word	0xffff	; ????
  84:	91 1f       	Address 0x0000000000000084 is out of bounds.
.word	0xffff	; ????
  86:	df 91       	Address 0x0000000000000086 is out of bounds.
.word	0xffff	; ????
  88:	cf 91       	Address 0x0000000000000088 is out of bounds.
.word	0xffff	; ????
  8a:	1f 91       	Address 0x000000000000008a is out of bounds.
.word	0xffff	; ????
  8c:	0f 91       	Address 0x000000000000008c is out of bounds.
.word	0xffff	; ????
  8e:	ff 90       	Address 0x000000000000008e is out of bounds.
.word	0xffff	; ????
  90:	ef 90       	Address 0x0000000000000090 is out of bounds.
.word	0xffff	; ????
  92:	df 90       	Address 0x0000000000000092 is out of bounds.
.word	0xffff	; ????
  94:	cf 90       	Address 0x0000000000000094 is out of bounds.
.word	0xffff	; ????
  96:	bf 90       	Address 0x0000000000000096 is out of bounds.
.word	0xffff	; ????
  98:	af 90       	Address 0x0000000000000098 is out of bounds.
.word	0xffff	; ????
  9a:	08 95       	Address 0x000000000000009a is out of bounds.
.word	0xffff	; ????

Disassembly of section .text._ZN9IPAddressC2Ev:

000000c4 <_ZN9IPAddressC1Ev>:
  c4:	20 e0       	ldi	r18, 0x00	; 0
  c6:	30 e0       	ldi	r19, 0x00	; 0
  c8:	fc 01       	movw	r30, r24
  ca:	31 83       	std	Z+1, r19	; 0x01
  cc:	20 83       	st	Z, r18
  ce:	12 82       	std	Z+2, r1	; 0x02
  d0:	13 82       	std	Z+3, r1	; 0x03
  d2:	14 82       	std	Z+4, r1	; 0x04
  d4:	15 82       	std	Z+5, r1	; 0x05
  d6:	08 95       	ret

Disassembly of section .text._ZN9IPAddressC2Ehhhh:

0000019c <_ZN9IPAddressC1Ehhhh>:
 19c:	0f 93       	push	r16
 19e:	fc 01       	movw	r30, r24
 1a0:	80 e0       	ldi	r24, 0x00	; 0
 1a2:	90 e0       	ldi	r25, 0x00	; 0
 1a4:	91 83       	std	Z+1, r25	; 0x01
 1a6:	80 83       	st	Z, r24
 1a8:	62 83       	std	Z+2, r22	; 0x02
 1aa:	43 83       	std	Z+3, r20	; 0x03
 1ac:	24 83       	std	Z+4, r18	; 0x04
 1ae:	05 83       	std	Z+5, r16	; 0x05
 1b0:	0f 91       	pop	r16
 1b2:	08 95       	ret

Disassembly of section .text._ZN9IPAddressC2Em:

00000350 <_ZN9IPAddressC1Em>:
 350:	20 e0       	ldi	r18, 0x00	; 0
 352:	30 e0       	ldi	r19, 0x00	; 0
 354:	fc 01       	movw	r30, r24
 356:	31 83       	std	Z+1, r19	; 0x01
 358:	20 83       	st	Z, r18
 35a:	42 83       	std	Z+2, r20	; 0x02
 35c:	53 83       	std	Z+3, r21	; 0x03
 35e:	64 83       	std	Z+4, r22	; 0x04
 360:	75 83       	std	Z+5, r23	; 0x05
 362:	08 95       	ret

Disassembly of section .text._ZN9IPAddressC2EPKh:

000006b4 <_ZN9IPAddressC1EPKh>:
 6b4:	20 e0       	ldi	r18, 0x00	; 0
 6b6:	30 e0       	ldi	r19, 0x00	; 0
 6b8:	fc 01       	movw	r30, r24
 6ba:	31 83       	std	Z+1, r19	; 0x01
 6bc:	20 83       	st	Z, r18
 6be:	fb 01       	movw	r30, r22
 6c0:	40 81       	ld	r20, Z
 6c2:	51 81       	ldd	r21, Z+1	; 0x01
 6c4:	62 81       	ldd	r22, Z+2	; 0x02
 6c6:	73 81       	ldd	r23, Z+3	; 0x03
 6c8:	fc 01       	movw	r30, r24
 6ca:	42 83       	std	Z+2, r20	; 0x02
 6cc:	53 83       	std	Z+3, r21	; 0x03
 6ce:	64 83       	std	Z+4, r22	; 0x04
 6d0:	75 83       	std	Z+5, r23	; 0x05
 6d2:	08 95       	ret

Disassembly of section .text._ZN9IPAddress10fromStringEPKc:

00000d88 <_ZN9IPAddress10fromStringEPKc>:
 d88:	40 e0       	ldi	r20, 0x00	; 0
 d8a:	20 e0       	ldi	r18, 0x00	; 0
 d8c:	30 e0       	ldi	r19, 0x00	; 0
 d8e:	aa e0       	ldi	r26, 0x0A	; 10
 d90:	fb 01       	movw	r30, r22
 d92:	51 91       	ld	r21, Z+
 d94:	bf 01       	movw	r22, r30
 d96:	55 23       	and	r21, r21
 d98:	01 f0       	breq	.+0      	; 0xd9a <_ZN9IPAddress10fromStringEPKc+0x12>
 d9a:	e0 ed       	ldi	r30, 0xD0	; 208
 d9c:	e5 0f       	add	r30, r21
 d9e:	ea 30       	cpi	r30, 0x0A	; 10
 da0:	00 f4       	brcc	.+0      	; 0xda2 <_ZN9IPAddress10fromStringEPKc+0x1a>
 da2:	f9 01       	movw	r30, r18
 da4:	ae 9f       	mul	r26, r30
 da6:	90 01       	movw	r18, r0
 da8:	af 9f       	mul	r26, r31
 daa:	30 0d       	add	r19, r0
 dac:	11 24       	eor	r1, r1
 dae:	20 53       	subi	r18, 0x30	; 48
 db0:	31 09       	sbc	r19, r1
 db2:	25 0f       	add	r18, r21
 db4:	31 1d       	adc	r19, r1
 db6:	2f 3f       	cpi	r18, 0xFF	; 255
 db8:	31 05       	cpc	r19, r1
 dba:	01 f0       	breq	.+0      	; 0xdbc <_ZN9IPAddress10fromStringEPKc+0x34>
 dbc:	00 f0       	brcs	.+0      	; 0xdbe <_ZN9IPAddress10fromStringEPKc+0x36>
 dbe:	00 c0       	rjmp	.+0      	; 0xdc0 <_ZN9IPAddress10fromStringEPKc+0x38>
 dc0:	5e 32       	cpi	r21, 0x2E	; 46
 dc2:	01 f4       	brne	.+0      	; 0xdc4 <_ZN9IPAddress10fromStringEPKc+0x3c>
 dc4:	43 30       	cpi	r20, 0x03	; 3
 dc6:	01 f0       	breq	.+0      	; 0xdc8 <_ZN9IPAddress10fromStringEPKc+0x40>
 dc8:	fc 01       	movw	r30, r24
 dca:	e4 0f       	add	r30, r20
 dcc:	f1 1d       	adc	r31, r1
 dce:	22 83       	std	Z+2, r18	; 0x02
 dd0:	4f 5f       	subi	r20, 0xFF	; 255
 dd2:	20 e0       	ldi	r18, 0x00	; 0
 dd4:	30 e0       	ldi	r19, 0x00	; 0
 dd6:	00 c0       	rjmp	.+0      	; 0xdd8 <_ZN9IPAddress10fromStringEPKc+0x50>
 dd8:	43 30       	cpi	r20, 0x03	; 3
 dda:	01 f4       	brne	.+0      	; 0xddc <_ZN9IPAddress10fromStringEPKc+0x54>
 ddc:	fc 01       	movw	r30, r24
 dde:	25 83       	std	Z+5, r18	; 0x05
 de0:	81 e0       	ldi	r24, 0x01	; 1
 de2:	08 95       	ret
 de4:	80 e0       	ldi	r24, 0x00	; 0
 de6:	08 95       	ret

Disassembly of section .text._ZN9IPAddressaSEPKh:

00001b70 <_ZN9IPAddressaSEPKh>:
    1b70:	fb 01       	movw	r30, r22
    1b72:	40 81       	ld	r20, Z
    1b74:	51 81       	ldd	r21, Z+1	; 0x01
    1b76:	62 81       	ldd	r22, Z+2	; 0x02
    1b78:	73 81       	ldd	r23, Z+3	; 0x03
    1b7a:	fc 01       	movw	r30, r24
    1b7c:	42 83       	std	Z+2, r20	; 0x02
    1b7e:	53 83       	std	Z+3, r21	; 0x03
    1b80:	64 83       	std	Z+4, r22	; 0x04
    1b82:	75 83       	std	Z+5, r23	; 0x05
    1b84:	08 95       	ret

Disassembly of section .text._ZN9IPAddressaSEm:

000036f6 <_ZN9IPAddressaSEm>:
    36f6:	fc 01       	movw	r30, r24
    36f8:	42 83       	std	Z+2, r20	; 0x02
    36fa:	53 83       	std	Z+3, r21	; 0x03
    36fc:	64 83       	std	Z+4, r22	; 0x04
    36fe:	75 83       	std	Z+5, r23	; 0x05
    3700:	08 95       	ret

Disassembly of section .text._ZNK9IPAddresseqEPKh:

00006df8 <_ZNK9IPAddresseqEPKh>:
    6df8:	9b 01       	movw	r18, r22
    6dfa:	bc 01       	movw	r22, r24
    6dfc:	6e 5f       	subi	r22, 0xFE	; 254
    6dfe:	7f 4f       	sbci	r23, 0xFF	; 255
    6e00:	44 e0       	ldi	r20, 0x04	; 4
    6e02:	50 e0       	ldi	r21, 0x00	; 0
    6e04:	c9 01       	movw	r24, r18
    6e06:	0e 94 00 00 	call	0	; 0x0 <__tmp_reg__>
    6e0a:	21 e0       	ldi	r18, 0x01	; 1
    6e0c:	89 2b       	or	r24, r25
    6e0e:	01 f0       	breq	.+0      	; 0x6e10 <_ZNK9IPAddresseqEPKh+0x18>
    6e10:	20 e0       	ldi	r18, 0x00	; 0
    6e12:	82 2f       	mov	r24, r18
    6e14:	08 95       	ret

Disassembly of section .text.startup._GLOBAL__sub_I__ZN9IPAddressC2Ev:

0000dc0e <_GLOBAL__sub_I__ZN9IPAddressC2Ev>:
    dc0e:	80 e0       	ldi	r24, 0x00	; 0
    dc10:	90 e0       	ldi	r25, 0x00	; 0
    dc12:	90 93 00 00 	sts	0x0000, r25
    dc16:	80 93 00 00 	sts	0x0000, r24
    dc1a:	10 92 00 00 	sts	0x0000, r1
    dc1e:	10 92 00 00 	sts	0x0000, r1
    dc22:	10 92 00 00 	sts	0x0000, r1
    dc26:	10 92 00 00 	sts	0x0000, r1
    dc2a:	08 95       	ret

Print.o:     file format elf32-avr

Sections:
Idx Name          Size      VMA       LMA       File off  Algn
  0 .group        00000008  00000000  00000000  00000034  2**2
                  CONTENTS, READONLY, EXCLUDE, GROUP, LINK_ONCE_DISCARD
  1 .group        00000008  00000000  00000000  0000003c  2**2
                  CONTENTS, READONLY, EXCLUDE, GROUP, LINK_ONCE_DISCARD
  2 .text         00000000  00000000  00000000  00000044  2**0
                  CONTENTS, ALLOC, LOAD, READONLY, CODE
  3 .data         0000006c  00000000  00000000  00000044  2**0
                  CONTENTS, ALLOC, LOAD, DATA
  4 .bss          00000000  00000000  00000000  000000b0  2**0
                  ALLOC
  5 .stab         00001344  00000000  00000000  000000b0  2**2
                  CONTENTS, RELOC, READONLY, DEBUGGING
  6 .stabstr      00001a5f  00000000  00000000  000013f4  2**0
                  CONTENTS, READONLY, DEBUGGING
  7 .text._ZN5Print5writeEPKhj 00000050  00000000  00000000  00002e53  2**0
                  CONTENTS, ALLOC, LOAD, RELOC, READONLY, CODE
  8 .text._ZN5Print5writeEPKc 0000002c  00000000  00000000  00002ea3  2**0
                  CONTENTS, ALLOC, LOAD, RELOC, READONLY, CODE
  9 .text._ZN5Print5printEPK19__FlashStringHelper 00000046  00000000  00000000  00002ecf  2**0
                  CONTENTS, ALLOC, LOAD, RELOC, READONLY, CODE
 10 .text._ZN5Print5printERK6String 0000001c  00000000  00000000  00002f15  2**0
                  CONTENTS, ALLOC, LOAD, READONLY, CODE
 11 .text._ZN5Print5printEPKc 00000004  00000000  00000000  00002f31  2**0
                  CONTENTS, ALLOC, LOAD, RELOC, READONLY, CODE
 12 .text._ZN5Print5printEc 0000000e  00000000  00000000  00002f35  2**0
                  CONTENTS, ALLOC, LOAD, READONLY, CODE
 13 .text._ZN5Print5printERK9Printable 00000014  00000000  00000000  00002f43  2**0
                  CONTENTS, ALLOC, LOAD, READONLY, CODE
 14 .rodata.str1.1 00000011  00000000  00000000  00002f57  2**0
                  CONTENTS, ALLOC, LOAD, READONLY, DATA
 15 .text._ZN5Print7printlnEv 00000008  00000000  00000000  00002f68  2**0
                  CONTENTS, ALLOC, LOAD, RELOC, READONLY, CODE
 16 .text._ZN5Print7printlnEPK19__FlashStringHelper 00000024  00000000  00000000  00002f70  2**0
                  CONTENTS, ALLOC, LOAD, RELOC, READONLY, CODE
 17 .text._ZN5Print7printlnERK6String 00000024  00000000  00000000  00002f94  2**0
                  CONTENTS, ALLOC, LOAD, RELOC, READONLY, CODE
 18 .text._ZN5Print7printlnEPKc 00000024  00000000  00000000  00002fb8  2**0
                  CONTENTS, ALLOC, LOAD, RELOC, READONLY, CODE
 19 .text._ZN5Print7printlnEc 00000024  00000000  00000000  00002fdc  2**0
                  CONTENTS, ALLOC, LOAD, RELOC, READONLY, CODE
 20 .text._ZN5Print7printlnERK9Printable 00000024  00000000  00000000  00003000  2**0
                  CONTENTS, ALLOC, LOAD, RELOC, READONLY, CODE
 21 .text._ZN5Print11printNumberEmh 000000b2  00000000  00000000  00003024  2**0
                  CONTENTS, ALLOC, LOAD, RELOC, READONLY, CODE
 22 .text._ZN5Print5printEli 00000094  00000000  00000000  000030d6  2**0
                  CONTENTS, ALLOC, LOAD, RELOC, READONLY, CODE
 23 .text._ZN5Print5printEii 00000010  00000000  00000000  0000316a  2**0
                  CONTENTS, ALLOC, LOAD, RELOC, READONLY, CODE
 24 .text._ZN5Print7printlnEii 00000030  00000000  00000000  0000317a  2**0
                  CONTENTS, ALLOC, LOAD, RELOC, READONLY, CODE
 25 .text._ZN5Print7printlnEli 00000024  00000000  00000000  000031aa  2**0
                  CONTENTS, ALLOC, LOAD, RELOC, READONLY, CODE
 26 .text._ZN5Print5printEmi 0000001a  00000000  00000000  000031ce  2**0
                  CONTENTS, ALLOC, LOAD, RELOC, READONLY, CODE
 27 .text._ZN5Print5printEhi 0000000e  00000000  00000000  000031e8  2**0
                  CONTENTS, ALLOC, LOAD, RELOC, READONLY, CODE
 28 .text._ZN5Print7printlnEhi 0000002e  00000000  00000000  000031f6  2**0
                  CONTENTS, ALLOC, LOAD, RELOC, READONLY, CODE
 29 .text._ZN5Print5printEji 0000000c  00000000  00000000  00003224  2**0
                  CONTENTS, ALLOC, LOAD, RELOC, READONLY, CODE
 30 .text._ZN5Print7printlnEji 0000002c  00000000  00000000  00003230  2**0
                  CONTENTS, ALLOC, LOAD, RELOC, READONLY, CODE
 31 .text._ZN5Print7printlnEmi 00000024  00000000  00000000  0000325c  2**0
                  CONTENTS, ALLOC, LOAD, RELOC, READONLY, CODE
 32 .text._ZN5Print10printFloatEdh 000001d6  00000000  00000000  00003280  2**0
                  CONTENTS, ALLOC, LOAD, RELOC, READONLY, CODE
 33 .text._ZN5Print5printEdi 00000004  00000000  00000000  00003456  2**0
                  CONTENTS, ALLOC, LOAD, RELOC, READONLY, CODE
 34 .text._ZN5Print7printlnEdi 00000024  00000000  00000000  0000345a  2**0
                  CONTENTS, ALLOC, LOAD, RELOC, READONLY, CODE
 35 .rodata._ZTV5Print 00000008  00000000  00000000  0000347e  2**0
                  CONTENTS, ALLOC, LOAD, RELOC, READONLY, DATA
 36 .comment      00000012  00000000  00000000  00003486  2**0
                  CONTENTS, READONLY

Disassembly of section .text._ZN5Print5writeEPKhj:

00000000 <_ZN5Print5writeEPKhj>:
  n += println();
  return n;
}

size_t Print::println(double num, int digits)
{
   0:	cf 92       	push	r12
  size_t n = print(num, digits);
  n += println();
  return n;
}
  6e:	df 92       	Address 0x000000000000006e is out of bounds.
.word	0xffff	; ????
  70:	ef 92       	Address 0x0000000000000070 is out of bounds.
.word	0xffff	; ????
  72:	ff 92       	Address 0x0000000000000072 is out of bounds.
.word	0xffff	; ????
  74:	0f 93       	Address 0x0000000000000074 is out of bounds.
.word	0xffff	; ????
  76:	1f 93       	Address 0x0000000000000076 is out of bounds.
.word	0xffff	; ????
  78:	cf 93       	Address 0x0000000000000078 is out of bounds.
.word	0xffff	; ????
  7a:	df 93       	Address 0x000000000000007a is out of bounds.
.word	0xffff	; ????
  7c:	7c 01       	Address 0x000000000000007c is out of bounds.
.word	0xffff	; ????
  7e:	6a 01       	Address 0x000000000000007e is out of bounds.
.word	0xffff	; ????
  80:	eb 01       	Address 0x0000000000000080 is out of bounds.
.word	0xffff	; ????
  82:	00 e0       	Address 0x0000000000000082 is out of bounds.
.word	0xffff	; ????
  84:	10 e0       	Address 0x0000000000000084 is out of bounds.
.word	0xffff	; ????
  86:	0c 15       	Address 0x0000000000000086 is out of bounds.
.word	0xffff	; ????
  88:	1d 05       	Address 0x0000000000000088 is out of bounds.
.word	0xffff	; ????
  8a:	01 f0       	Address 0x000000000000008a is out of bounds.
.word	0xffff	; ????
  8c:	69 91       	Address 0x000000000000008c is out of bounds.
.word	0xffff	; ????
  8e:	d7 01       	Address 0x000000000000008e is out of bounds.
.word	0xffff	; ????
  90:	ed 91       	Address 0x0000000000000090 is out of bounds.
.word	0xffff	; ????
  92:	fc 91       	Address 0x0000000000000092 is out of bounds.
.word	0xffff	; ????
  94:	01 90       	Address 0x0000000000000094 is out of bounds.
.word	0xffff	; ????
  96:	f0 81       	Address 0x0000000000000096 is out of bounds.
.word	0xffff	; ????
  98:	e0 2d       	Address 0x0000000000000098 is out of bounds.
.word	0xffff	; ????
  9a:	c7 01       	Address 0x000000000000009a is out of bounds.
.word	0xffff	; ????
  9c:	09 95       	Address 0x000000000000009c is out of bounds.
.word	0xffff	; ????
  9e:	89 2b       	Address 0x000000000000009e is out of bounds.
.word	0xffff	; ????
  a0:	01 f0       	Address 0x00000000000000a0 is out of bounds.
.word	0xffff	; ????
  a2:	0f 5f       	Address 0x00000000000000a2 is out of bounds.
.word	0xffff	; ????
  a4:	1f 4f       	Address 0x00000000000000a4 is out of bounds.
.word	0xffff	; ????
  a6:	00 c0       	Address 0x00000000000000a6 is out of bounds.
.word	0xffff	; ????
  a8:	c8 01       	Address 0x00000000000000a8 is out of bounds.
.word	0xffff	; ????
  aa:	df 91       	Address 0x00000000000000aa is out of bounds.
.word	0xffff	; ????
  ac:	cf 91       	Address 0x00000000000000ac is out of bounds.
.word	0xffff	; ????
  ae:	1f 91       	Address 0x00000000000000ae is out of bounds.
.word	0xffff	; ????
  b0:	0f 91       	Address 0x00000000000000b0 is out of bounds.
.word	0xffff	; ????
  b2:	ff 90       	Address 0x00000000000000b2 is out of bounds.
.word	0xffff	; ????
  b4:	ef 90       	Address 0x00000000000000b4 is out of bounds.
.word	0xffff	; ????
  b6:	df 90       	Address 0x00000000000000b6 is out of bounds.
.word	0xffff	; ????
  b8:	cf 90       	Address 0x00000000000000b8 is out of bounds.
.word	0xffff	; ????
  ba:	08 95       	Address 0x00000000000000ba is out of bounds.
.word	0xffff	; ????

Disassembly of section .text._ZN5Print5writeEPKc:

00000128 <_ZN5Print5writeEPKc>:
 128:	61 15       	cp	r22, r1
 12a:	71 05       	cpc	r23, r1
 12c:	01 f0       	breq	.+0      	; 0x12e <_ZN5Print5writeEPKc+0x6>
 12e:	db 01       	movw	r26, r22
 130:	0d 90       	ld	r0, X+
 132:	00 20       	and	r0, r0
 134:	01 f4       	brne	.+0      	; 0x136 <_ZN5Print5writeEPKc+0xe>
 136:	ad 01       	movw	r20, r26
 138:	41 50       	subi	r20, 0x01	; 1
 13a:	51 09       	sbc	r21, r1
 13c:	46 1b       	sub	r20, r22
 13e:	57 0b       	sbc	r21, r23
 140:	dc 01       	movw	r26, r24
 142:	ed 91       	ld	r30, X+
 144:	fc 91       	ld	r31, X
 146:	02 80       	ldd	r0, Z+2	; 0x02
 148:	f3 81       	ldd	r31, Z+3	; 0x03
 14a:	e0 2d       	mov	r30, r0
 14c:	09 94       	ijmp
 14e:	80 e0       	ldi	r24, 0x00	; 0
 150:	90 e0       	ldi	r25, 0x00	; 0
 152:	08 95       	ret

Disassembly of section .text._ZN5Print5printEPK19__FlashStringHelper:

0000027c <_ZN5Print5printEPK19__FlashStringHelper>:
 27c:	ef 92       	push	r14
 27e:	ff 92       	push	r15
 280:	0f 93       	push	r16
 282:	1f 93       	push	r17
 284:	cf 93       	push	r28
 286:	df 93       	push	r29
 288:	8c 01       	movw	r16, r24
 28a:	7b 01       	movw	r14, r22
 28c:	c0 e0       	ldi	r28, 0x00	; 0
 28e:	d0 e0       	ldi	r29, 0x00	; 0
 290:	f7 01       	movw	r30, r14
 292:	ec 0f       	add	r30, r28
 294:	fd 1f       	adc	r31, r29
 296:	64 91       	lpm	r22, Z
 298:	66 23       	and	r22, r22
 29a:	01 f0       	breq	.+0      	; 0x29c <_ZN5Print5printEPK19__FlashStringHelper+0x20>
 29c:	f8 01       	movw	r30, r16
 29e:	a0 81       	ld	r26, Z
 2a0:	b1 81       	ldd	r27, Z+1	; 0x01
 2a2:	ed 91       	ld	r30, X+
 2a4:	fc 91       	ld	r31, X
 2a6:	c8 01       	movw	r24, r16
 2a8:	09 95       	icall
 2aa:	89 2b       	or	r24, r25
 2ac:	01 f0       	breq	.+0      	; 0x2ae <_ZN5Print5printEPK19__FlashStringHelper+0x32>
 2ae:	21 96       	adiw	r28, 0x01	; 1
 2b0:	00 c0       	rjmp	.+0      	; 0x2b2 <_ZN5Print5printEPK19__FlashStringHelper+0x36>
 2b2:	ce 01       	movw	r24, r28
 2b4:	df 91       	pop	r29
 2b6:	cf 91       	pop	r28
 2b8:	1f 91       	pop	r17
 2ba:	0f 91       	pop	r16
 2bc:	ff 90       	pop	r15
 2be:	ef 90       	pop	r14
 2c0:	08 95       	ret

Disassembly of section .text._ZN5Print5printERK6String:

0000053e <_ZN5Print5printERK6String>:
 53e:	dc 01       	movw	r26, r24
 540:	ed 91       	ld	r30, X+
 542:	fc 91       	ld	r31, X
 544:	db 01       	movw	r26, r22
 546:	14 96       	adiw	r26, 0x04	; 4
 548:	4d 91       	ld	r20, X+
 54a:	5c 91       	ld	r21, X
 54c:	15 97       	sbiw	r26, 0x05	; 5
 54e:	6d 91       	ld	r22, X+
 550:	7c 91       	ld	r23, X
 552:	02 80       	ldd	r0, Z+2	; 0x02
 554:	f3 81       	ldd	r31, Z+3	; 0x03
 556:	e0 2d       	mov	r30, r0
 558:	09 94       	ijmp

Disassembly of section .text._ZN5Print5printEPKc:

00000a98 <_ZN5Print5printEPKc>:
 a98:	0c 94 00 00 	jmp	0	; 0x0 <__tmp_reg__>

Disassembly of section .text._ZN5Print5printEc:

00001534 <_ZN5Print5printEc>:
    1534:	dc 01       	movw	r26, r24
    1536:	ed 91       	ld	r30, X+
    1538:	fc 91       	ld	r31, X
    153a:	01 90       	ld	r0, Z+
    153c:	f0 81       	ld	r31, Z
    153e:	e0 2d       	mov	r30, r0
    1540:	09 94       	ijmp

Disassembly of section .text._ZN5Print5printERK9Printable:

00002a76 <_ZN5Print5printERK9Printable>:
    2a76:	db 01       	movw	r26, r22
    2a78:	ed 91       	ld	r30, X+
    2a7a:	fc 91       	ld	r31, X
    2a7c:	11 97       	sbiw	r26, 0x01	; 1
    2a7e:	01 90       	ld	r0, Z+
    2a80:	f0 81       	ld	r31, Z
    2a82:	e0 2d       	mov	r30, r0
    2a84:	bc 01       	movw	r22, r24
    2a86:	cd 01       	movw	r24, r26
    2a88:	09 94       	ijmp

Disassembly of section .text._ZN5Print7printlnEv:

0000aa11 <_ZN5Print7printlnEv>:
    aa11:	60 e0       	ldi	r22, 0x00	; 0
    aa13:	70 e0       	ldi	r23, 0x00	; 0
    aa15:	0c 94 00 00 	jmp	0	; 0x0 <__tmp_reg__>

Disassembly of section .text._ZN5Print7printlnEPK19__FlashStringHelper:

0001542a <_ZN5Print7printlnEPK19__FlashStringHelper>:
   1542a:	0f 93       	push	r16
   1542c:	1f 93       	push	r17
   1542e:	cf 93       	push	r28
   15430:	df 93       	push	r29
   15432:	ec 01       	movw	r28, r24
   15434:	0e 94 00 00 	call	0	; 0x0 <__tmp_reg__>
   15438:	8c 01       	movw	r16, r24
   1543a:	ce 01       	movw	r24, r28
   1543c:	0e 94 00 00 	call	0	; 0x0 <__tmp_reg__>
   15440:	80 0f       	add	r24, r16
   15442:	91 1f       	adc	r25, r17
   15444:	df 91       	pop	r29
   15446:	cf 91       	pop	r28
   15448:	1f 91       	pop	r17
   1544a:	0f 91       	pop	r16
   1544c:	08 95       	ret

Disassembly of section .text._ZN5Print7printlnERK6String:

0002a878 <_ZN5Print7printlnERK6String>:
   2a878:	0f 93       	push	r16
   2a87a:	1f 93       	push	r17
   2a87c:	cf 93       	push	r28
   2a87e:	df 93       	push	r29
   2a880:	ec 01       	movw	r28, r24
   2a882:	0e 94 00 00 	call	0	; 0x0 <__tmp_reg__>
   2a886:	8c 01       	movw	r16, r24
   2a888:	ce 01       	movw	r24, r28
   2a88a:	0e 94 00 00 	call	0	; 0x0 <__tmp_reg__>
   2a88e:	80 0f       	add	r24, r16
   2a890:	91 1f       	adc	r25, r17
   2a892:	df 91       	pop	r29
   2a894:	cf 91       	pop	r28
   2a896:	1f 91       	pop	r17
   2a898:	0f 91       	pop	r16
   2a89a:	08 95       	ret

Disassembly of section .text._ZN5Print7printlnEPKc:

00055114 <_ZN5Print7printlnEPKc>:
   55114:	0f 93       	push	r16
   55116:	1f 93       	push	r17
   55118:	cf 93       	push	r28
   5511a:	df 93       	push	r29
   5511c:	ec 01       	movw	r28, r24
   5511e:	0e 94 00 00 	call	0	; 0x0 <__tmp_reg__>
   55122:	8c 01       	movw	r16, r24
   55124:	ce 01       	movw	r24, r28
   55126:	0e 94 00 00 	call	0	; 0x0 <__tmp_reg__>
   5512a:	80 0f       	add	r24, r16
   5512c:	91 1f       	adc	r25, r17
   5512e:	df 91       	pop	r29
   55130:	cf 91       	pop	r28
   55132:	1f 91       	pop	r17
   55134:	0f 91       	pop	r16
   55136:	08 95       	ret

Disassembly of section .text._ZN5Print7printlnEc:

000aa24c <_ZN5Print7printlnEc>:
   aa24c:	0f 93       	push	r16
   aa24e:	1f 93       	push	r17
   aa250:	cf 93       	push	r28
   aa252:	df 93       	push	r29
   aa254:	ec 01       	movw	r28, r24
   aa256:	0e 94 00 00 	call	0	; 0x0 <__tmp_reg__>
   aa25a:	8c 01       	movw	r16, r24
   aa25c:	ce 01       	movw	r24, r28
   aa25e:	0e 94 00 00 	call	0	; 0x0 <__tmp_reg__>
   aa262:	80 0f       	add	r24, r16
   aa264:	91 1f       	adc	r25, r17
   aa266:	df 91       	pop	r29
   aa268:	cf 91       	pop	r28
   aa26a:	1f 91       	pop	r17
   aa26c:	0f 91       	pop	r16
   aa26e:	08 95       	ret

Disassembly of section .text._ZN5Print7printlnERK9Printable:

001544bc <_ZN5Print7printlnERK9Printable>:
  1544bc:	0f 93       	push	r16
  1544be:	1f 93       	push	r17
  1544c0:	cf 93       	push	r28
  1544c2:	df 93       	push	r29
  1544c4:	ec 01       	movw	r28, r24
  1544c6:	0e 94 00 00 	call	0	; 0x0 <__tmp_reg__>
  1544ca:	8c 01       	movw	r16, r24
  1544cc:	ce 01       	movw	r24, r28
  1544ce:	0e 94 00 00 	call	0	; 0x0 <__tmp_reg__>
  1544d2:	80 0f       	add	r24, r16
  1544d4:	91 1f       	adc	r25, r17
  1544d6:	df 91       	pop	r29
  1544d8:	cf 91       	pop	r28
  1544da:	1f 91       	pop	r17
  1544dc:	0f 91       	pop	r16
  1544de:	08 95       	ret

Disassembly of section .text._ZN5Print11printNumberEmh:

002a899c <_ZN5Print11printNumberEmh>:
  2a899c:	8f 92       	push	r8
  2a899e:	9f 92       	push	r9
  2a89a0:	af 92       	push	r10
  2a89a2:	bf 92       	push	r11
  2a89a4:	cf 92       	push	r12
  2a89a6:	df 92       	push	r13
  2a89a8:	ef 92       	push	r14
  2a89aa:	ff 92       	push	r15
  2a89ac:	0f 93       	push	r16
  2a89ae:	1f 93       	push	r17
  2a89b0:	cf 93       	push	r28
  2a89b2:	df 93       	push	r29
  2a89b4:	cd b7       	in	r28, 0x3d	; 61
  2a89b6:	de b7       	in	r29, 0x3e	; 62
  2a89b8:	a1 97       	sbiw	r28, 0x21	; 33
  2a89ba:	0f b6       	in	r0, 0x3f	; 63
  2a89bc:	f8 94       	cli
  2a89be:	de bf       	out	0x3e, r29	; 62
  2a89c0:	0f be       	out	0x3f, r0	; 63
  2a89c2:	cd bf       	out	0x3d, r28	; 61
  2a89c4:	7c 01       	movw	r14, r24
  2a89c6:	c4 2e       	mov	r12, r20
  2a89c8:	e5 2f       	mov	r30, r21
  2a89ca:	cb 01       	movw	r24, r22
  2a89cc:	d2 2e       	mov	r13, r18
  2a89ce:	19 a2       	std	Y+33, r1	; 0x21
  2a89d0:	21 e0       	ldi	r18, 0x01	; 1
  2a89d2:	2d 15       	cp	r18, r13
  2a89d4:	00 f0       	brcs	.+0      	; 0x2a89d6 <_ZN5Print11printNumberEmh+0x3a>
  2a89d6:	2a e0       	ldi	r18, 0x0A	; 10
  2a89d8:	d2 2e       	mov	r13, r18
  2a89da:	8e 01       	movw	r16, r28
  2a89dc:	0f 5d       	subi	r16, 0xDF	; 223
  2a89de:	1f 4f       	sbci	r17, 0xFF	; 255
  2a89e0:	8d 2c       	mov	r8, r13
  2a89e2:	91 2c       	mov	r9, r1
  2a89e4:	a1 2c       	mov	r10, r1
  2a89e6:	b1 2c       	mov	r11, r1
  2a89e8:	6c 2d       	mov	r22, r12
  2a89ea:	7e 2f       	mov	r23, r30
  2a89ec:	a5 01       	movw	r20, r10
  2a89ee:	94 01       	movw	r18, r8
  2a89f0:	0e 94 00 00 	call	0	; 0x0 <__tmp_reg__>
  2a89f4:	8c 2d       	mov	r24, r12
  2a89f6:	d2 9e       	mul	r13, r18
  2a89f8:	80 19       	sub	r24, r0
  2a89fa:	11 24       	eor	r1, r1
  2a89fc:	01 50       	subi	r16, 0x01	; 1
  2a89fe:	11 09       	sbc	r17, r1
  2a8a00:	8a 30       	cpi	r24, 0x0A	; 10
  2a8a02:	00 f4       	brcc	.+0      	; 0x2a8a04 <_ZN5Print11printNumberEmh+0x68>
  2a8a04:	80 5d       	subi	r24, 0xD0	; 208
  2a8a06:	00 c0       	rjmp	.+0      	; 0x2a8a08 <_ZN5Print11printNumberEmh+0x6c>
  2a8a08:	89 5c       	subi	r24, 0xC9	; 201
  2a8a0a:	f8 01       	movw	r30, r16
  2a8a0c:	80 83       	st	Z, r24
  2a8a0e:	21 15       	cp	r18, r1
  2a8a10:	31 05       	cpc	r19, r1
  2a8a12:	41 05       	cpc	r20, r1
  2a8a14:	51 05       	cpc	r21, r1
  2a8a16:	01 f0       	breq	.+0      	; 0x2a8a18 <_ZN5Print11printNumberEmh+0x7c>
  2a8a18:	c2 2e       	mov	r12, r18
  2a8a1a:	e3 2f       	mov	r30, r19
  2a8a1c:	ca 01       	movw	r24, r20
  2a8a1e:	00 c0       	rjmp	.+0      	; 0x2a8a20 <_ZN5Print11printNumberEmh+0x84>
  2a8a20:	b8 01       	movw	r22, r16
  2a8a22:	c7 01       	movw	r24, r14
  2a8a24:	0e 94 00 00 	call	0	; 0x0 <__tmp_reg__>
  2a8a28:	a1 96       	adiw	r28, 0x21	; 33
  2a8a2a:	0f b6       	in	r0, 0x3f	; 63
  2a8a2c:	f8 94       	cli
  2a8a2e:	de bf       	out	0x3e, r29	; 62
  2a8a30:	0f be       	out	0x3f, r0	; 63
  2a8a32:	cd bf       	out	0x3d, r28	; 61
  2a8a34:	df 91       	pop	r29
  2a8a36:	cf 91       	pop	r28
  2a8a38:	1f 91       	pop	r17
  2a8a3a:	0f 91       	pop	r16
  2a8a3c:	ff 90       	pop	r15
  2a8a3e:	ef 90       	pop	r14
  2a8a40:	df 90       	pop	r13
  2a8a42:	cf 90       	pop	r12
  2a8a44:	bf 90       	pop	r11
  2a8a46:	af 90       	pop	r10
  2a8a48:	9f 90       	pop	r9
  2a8a4a:	8f 90       	pop	r8
  2a8a4c:	08 95       	ret

Disassembly of section .text._ZN5Print5printEli:

005513ea <_ZN5Print5printEli>:
  5513ea:	cf 92       	push	r12
  5513ec:	df 92       	push	r13
  5513ee:	ef 92       	push	r14
  5513f0:	ff 92       	push	r15
  5513f2:	0f 93       	push	r16
  5513f4:	1f 93       	push	r17
  5513f6:	cf 93       	push	r28
  5513f8:	df 93       	push	r29
  5513fa:	ec 01       	movw	r28, r24
  5513fc:	6a 01       	movw	r12, r20
  5513fe:	7b 01       	movw	r14, r22
  551400:	21 15       	cp	r18, r1
  551402:	31 05       	cpc	r19, r1
  551404:	01 f4       	brne	.+0      	; 0x551406 <_ZN5Print5printEli+0x1c>
  551406:	e8 81       	ld	r30, Y
  551408:	f9 81       	ldd	r31, Y+1	; 0x01
  55140a:	01 90       	ld	r0, Z+
  55140c:	f0 81       	ld	r31, Z
  55140e:	e0 2d       	mov	r30, r0
  551410:	64 2f       	mov	r22, r20
  551412:	df 91       	pop	r29
  551414:	cf 91       	pop	r28
  551416:	1f 91       	pop	r17
  551418:	0f 91       	pop	r16
  55141a:	ff 90       	pop	r15
  55141c:	ef 90       	pop	r14
  55141e:	df 90       	pop	r13
  551420:	cf 90       	pop	r12
  551422:	09 94       	ijmp
  551424:	2a 30       	cpi	r18, 0x0A	; 10
  551426:	31 05       	cpc	r19, r1
  551428:	01 f4       	brne	.+0      	; 0x55142a <_ZN5Print5printEli+0x40>
  55142a:	77 ff       	sbrs	r23, 7
  55142c:	00 c0       	rjmp	.+0      	; 0x55142e <_ZN5Print5printEli+0x44>
  55142e:	6d e2       	ldi	r22, 0x2D	; 45
  551430:	0e 94 00 00 	call	0	; 0x0 <__tmp_reg__>
  551434:	8c 01       	movw	r16, r24
  551436:	44 27       	eor	r20, r20
  551438:	55 27       	eor	r21, r21
  55143a:	ba 01       	movw	r22, r20
  55143c:	4c 19       	sub	r20, r12
  55143e:	5d 09       	sbc	r21, r13
  551440:	6e 09       	sbc	r22, r14
  551442:	7f 09       	sbc	r23, r15
  551444:	2a e0       	ldi	r18, 0x0A	; 10
  551446:	ce 01       	movw	r24, r28
  551448:	0e 94 00 00 	call	0	; 0x0 <__tmp_reg__>
  55144c:	80 0f       	add	r24, r16
  55144e:	91 1f       	adc	r25, r17
  551450:	df 91       	pop	r29
  551452:	cf 91       	pop	r28
  551454:	1f 91       	pop	r17
  551456:	0f 91       	pop	r16
  551458:	ff 90       	pop	r15
  55145a:	ef 90       	pop	r14
  55145c:	df 90       	pop	r13
  55145e:	cf 90       	pop	r12
  551460:	08 95       	ret
  551462:	2a e0       	ldi	r18, 0x0A	; 10
  551464:	b7 01       	movw	r22, r14
  551466:	a6 01       	movw	r20, r12
  551468:	ce 01       	movw	r24, r28
  55146a:	df 91       	pop	r29
  55146c:	cf 91       	pop	r28
  55146e:	1f 91       	pop	r17
  551470:	0f 91       	pop	r16
  551472:	ff 90       	pop	r15
  551474:	ef 90       	pop	r14
  551476:	df 90       	pop	r13
  551478:	cf 90       	pop	r12
  55147a:	0c 94 00 00 	jmp	0	; 0x0 <__tmp_reg__>

Disassembly of section .text._ZN5Print5printEii:

00aa2868 <_ZN5Print5printEii>:
  aa2868:	9a 01       	movw	r18, r20
  aa286a:	ab 01       	movw	r20, r22
  aa286c:	66 27       	eor	r22, r22
  aa286e:	57 fd       	sbrc	r21, 7
  aa2870:	60 95       	com	r22
  aa2872:	76 2f       	mov	r23, r22
  aa2874:	0c 94 00 00 	jmp	0	; 0x0 <__tmp_reg__>

Disassembly of section .text._ZN5Print7printlnEii:

015450e0 <_ZN5Print7printlnEii>:
 15450e0:	0f 93       	push	r16
 15450e2:	1f 93       	push	r17
 15450e4:	cf 93       	push	r28
 15450e6:	df 93       	push	r29
 15450e8:	ec 01       	movw	r28, r24
 15450ea:	9a 01       	movw	r18, r20
 15450ec:	ab 01       	movw	r20, r22
 15450ee:	66 27       	eor	r22, r22
 15450f0:	57 fd       	sbrc	r21, 7
 15450f2:	60 95       	com	r22
 15450f4:	76 2f       	mov	r23, r22
 15450f6:	0e 94 00 00 	call	0	; 0x0 <__tmp_reg__>
 15450fa:	8c 01       	movw	r16, r24
 15450fc:	ce 01       	movw	r24, r28
 15450fe:	0e 94 00 00 	call	0	; 0x0 <__tmp_reg__>
 1545102:	80 0f       	add	r24, r16
 1545104:	91 1f       	adc	r25, r17
 1545106:	df 91       	pop	r29
 1545108:	cf 91       	pop	r28
 154510a:	1f 91       	pop	r17
 154510c:	0f 91       	pop	r16
 154510e:	08 95       	ret

Disassembly of section .text._ZN5Print7printlnEli:

02a8a1f0 <_ZN5Print7printlnEli>:
 2a8a1f0:	0f 93       	push	r16
 2a8a1f2:	1f 93       	push	r17
 2a8a1f4:	cf 93       	push	r28
 2a8a1f6:	df 93       	push	r29
 2a8a1f8:	ec 01       	movw	r28, r24
 2a8a1fa:	0e 94 00 00 	call	0	; 0x0 <__tmp_reg__>
 2a8a1fe:	8c 01       	movw	r16, r24
 2a8a200:	ce 01       	movw	r24, r28
 2a8a202:	0e 94 00 00 	call	0	; 0x0 <__tmp_reg__>
 2a8a206:	80 0f       	add	r24, r16
 2a8a208:	91 1f       	adc	r25, r17
 2a8a20a:	df 91       	pop	r29
 2a8a20c:	cf 91       	pop	r28
 2a8a20e:	1f 91       	pop	r17
 2a8a210:	0f 91       	pop	r16
 2a8a212:	08 95       	ret

Disassembly of section .text._ZN5Print5printEmi:

05514404 <_ZN5Print5printEmi>:
 5514404:	21 15       	cp	r18, r1
 5514406:	31 05       	cpc	r19, r1
 5514408:	01 f4       	brne	.+0      	; 0x551440a <_ZN5Print5printEmi+0x6>
 551440a:	dc 01       	movw	r26, r24
 551440c:	ed 91       	ld	r30, X+
 551440e:	fc 91       	ld	r31, X
 5514410:	01 90       	ld	r0, Z+
 5514412:	f0 81       	ld	r31, Z
 5514414:	e0 2d       	mov	r30, r0
 5514416:	64 2f       	mov	r22, r20
 5514418:	09 94       	ijmp
 551441a:	0c 94 00 00 	jmp	0	; 0x0 <__tmp_reg__>

Disassembly of section .text._ZN5Print5printEhi:

0aa28822 <_ZN5Print5printEhi>:
 aa28822:	9a 01       	movw	r18, r20
 aa28824:	46 2f       	mov	r20, r22
 aa28826:	50 e0       	ldi	r21, 0x00	; 0
 aa28828:	60 e0       	ldi	r22, 0x00	; 0
 aa2882a:	70 e0       	ldi	r23, 0x00	; 0
 aa2882c:	0c 94 00 00 	jmp	0	; 0x0 <__tmp_reg__>

Disassembly of section .text._ZN5Print7printlnEhi:

15451052 <_ZN5Print7printlnEhi>:
15451052:	0f 93       	push	r16
15451054:	1f 93       	push	r17
15451056:	cf 93       	push	r28
15451058:	df 93       	push	r29
1545105a:	ec 01       	movw	r28, r24
1545105c:	9a 01       	movw	r18, r20
1545105e:	46 2f       	mov	r20, r22
15451060:	50 e0       	ldi	r21, 0x00	; 0
15451062:	60 e0       	ldi	r22, 0x00	; 0
15451064:	70 e0       	ldi	r23, 0x00	; 0
15451066:	0e 94 00 00 	call	0	; 0x0 <__tmp_reg__>
1545106a:	8c 01       	movw	r16, r24
1545106c:	ce 01       	movw	r24, r28
1545106e:	0e 94 00 00 	call	0	; 0x0 <__tmp_reg__>
15451072:	80 0f       	add	r24, r16
15451074:	91 1f       	adc	r25, r17
15451076:	df 91       	pop	r29
15451078:	cf 91       	pop	r28
1545107a:	1f 91       	pop	r17
1545107c:	0f 91       	pop	r16
1545107e:	08 95       	ret

Disassembly of section .text._ZN5Print5printEji:

2a8a20d2 <_ZN5Print5printEji>:
2a8a20d2:	9a 01       	movw	r18, r20
2a8a20d4:	ab 01       	movw	r20, r22
2a8a20d6:	60 e0       	ldi	r22, 0x00	; 0
2a8a20d8:	70 e0       	ldi	r23, 0x00	; 0
2a8a20da:	0c 94 00 00 	jmp	0	; 0x0 <__tmp_reg__>

Disassembly of section .text._ZN5Print7printlnEji:

551441b0 <_ZN5Print7printlnEji>:
551441b0:	0f 93       	push	r16
551441b2:	1f 93       	push	r17
551441b4:	cf 93       	push	r28
551441b6:	df 93       	push	r29
551441b8:	ec 01       	movw	r28, r24
551441ba:	9a 01       	movw	r18, r20
551441bc:	ab 01       	movw	r20, r22
551441be:	60 e0       	ldi	r22, 0x00	; 0
551441c0:	70 e0       	ldi	r23, 0x00	; 0
551441c2:	0e 94 00 00 	call	0	; 0x0 <__tmp_reg__>
551441c6:	8c 01       	movw	r16, r24
551441c8:	ce 01       	movw	r24, r28
551441ca:	0e 94 00 00 	call	0	; 0x0 <__tmp_reg__>
551441ce:	80 0f       	add	r24, r16
551441d0:	91 1f       	adc	r25, r17
551441d2:	df 91       	pop	r29
551441d4:	cf 91       	pop	r28
551441d6:	1f 91       	pop	r17
551441d8:	0f 91       	pop	r16
551441da:	08 95       	ret

Disassembly of section .text._ZN5Print7printlnEmi:

aa28838c <_ZN5Print7printlnEmi>:
aa28838c:	0f 93       	push	r16
aa28838e:	1f 93       	push	r17
aa288390:	cf 93       	push	r28
aa288392:	df 93       	push	r29
aa288394:	ec 01       	movw	r28, r24
aa288396:	0e 94 00 00 	call	0	; 0x0 <__tmp_reg__>
aa28839a:	8c 01       	movw	r16, r24
aa28839c:	ce 01       	movw	r24, r28
aa28839e:	0e 94 00 00 	call	0	; 0x0 <__tmp_reg__>
aa2883a2:	80 0f       	add	r24, r16
aa2883a4:	91 1f       	adc	r25, r17
aa2883a6:	df 91       	pop	r29
aa2883a8:	cf 91       	pop	r28
aa2883aa:	1f 91       	pop	r17
aa2883ac:	0f 91       	pop	r16
aa2883ae:	08 95       	ret

Disassembly of section .text._ZN5Print10printFloatEdh:

5451073c <_ZN5Print10printFloatEdh>:
5451073c:	4f 92       	push	r4
5451073e:	5f 92       	push	r5
54510740:	6f 92       	push	r6
54510742:	7f 92       	push	r7
54510744:	8f 92       	push	r8
54510746:	9f 92       	push	r9
54510748:	af 92       	push	r10
5451074a:	bf 92       	push	r11
5451074c:	cf 92       	push	r12
5451074e:	df 92       	push	r13
54510750:	ef 92       	push	r14
54510752:	ff 92       	push	r15
54510754:	0f 93       	push	r16
54510756:	1f 93       	push	r17
54510758:	cf 93       	push	r28
5451075a:	df 93       	push	r29
5451075c:	ec 01       	movw	r28, r24
5451075e:	6a 01       	movw	r12, r20
54510760:	7b 01       	movw	r14, r22
54510762:	b2 2e       	mov	r11, r18
54510764:	9a 01       	movw	r18, r20
54510766:	ab 01       	movw	r20, r22
54510768:	c7 01       	movw	r24, r14
5451076a:	b6 01       	movw	r22, r12
5451076c:	0e 94 00 00 	call	0	; 0x0 <__tmp_reg__>
54510770:	88 23       	and	r24, r24
54510772:	01 f0       	breq	.+0      	; 0x54510774 <_ZN5Print5printEji+0x29c6e6a2>
54510774:	60 e0       	ldi	r22, 0x00	; 0
54510776:	70 e0       	ldi	r23, 0x00	; 0
54510778:	00 c0       	rjmp	.+0      	; 0x5451077a <_ZN5Print5printEji+0x29c6e6a8>
5451077a:	26 01       	movw	r4, r12
5451077c:	37 01       	movw	r6, r14
5451077e:	e8 94       	clt
54510780:	77 f8       	bld	r7, 7
54510782:	2f ef       	ldi	r18, 0xFF	; 255
54510784:	3f ef       	ldi	r19, 0xFF	; 255
54510786:	4f e7       	ldi	r20, 0x7F	; 127
54510788:	5f e7       	ldi	r21, 0x7F	; 127
5451078a:	c3 01       	movw	r24, r6
5451078c:	b2 01       	movw	r22, r4
5451078e:	0e 94 00 00 	call	0	; 0x0 <__tmp_reg__>
54510792:	81 11       	cpse	r24, r1
54510794:	00 c0       	rjmp	.+0      	; 0x54510796 <_ZN5Print5printEji+0x29c6e6c4>
54510796:	2f ef       	ldi	r18, 0xFF	; 255
54510798:	3f ef       	ldi	r19, 0xFF	; 255
5451079a:	4f e7       	ldi	r20, 0x7F	; 127
5451079c:	5f e7       	ldi	r21, 0x7F	; 127
5451079e:	c3 01       	movw	r24, r6
545107a0:	b2 01       	movw	r22, r4
545107a2:	0e 94 00 00 	call	0	; 0x0 <__tmp_reg__>
545107a6:	18 16       	cp	r1, r24
545107a8:	04 f4       	brge	.+0      	; 0x545107aa <_ZN5Print5printEji+0x29c6e6d8>
545107aa:	60 e0       	ldi	r22, 0x00	; 0
545107ac:	70 e0       	ldi	r23, 0x00	; 0
545107ae:	00 c0       	rjmp	.+0      	; 0x545107b0 <_ZN5Print5printEji+0x29c6e6de>
545107b0:	2f ef       	ldi	r18, 0xFF	; 255
545107b2:	3f ef       	ldi	r19, 0xFF	; 255
545107b4:	4f e7       	ldi	r20, 0x7F	; 127
545107b6:	5f e4       	ldi	r21, 0x4F	; 79
545107b8:	c7 01       	movw	r24, r14
545107ba:	b6 01       	movw	r22, r12
545107bc:	0e 94 00 00 	call	0	; 0x0 <__tmp_reg__>
545107c0:	18 16       	cp	r1, r24
545107c2:	04 f4       	brge	.+0      	; 0x545107c4 <_ZN5Print5printEji+0x29c6e6f2>
545107c4:	60 e0       	ldi	r22, 0x00	; 0
545107c6:	70 e0       	ldi	r23, 0x00	; 0
545107c8:	ce 01       	movw	r24, r28
545107ca:	df 91       	pop	r29
545107cc:	cf 91       	pop	r28
545107ce:	1f 91       	pop	r17
545107d0:	0f 91       	pop	r16
545107d2:	ff 90       	pop	r15
545107d4:	ef 90       	pop	r14
545107d6:	df 90       	pop	r13
545107d8:	cf 90       	pop	r12
545107da:	bf 90       	pop	r11
545107dc:	af 90       	pop	r10
545107de:	9f 90       	pop	r9
545107e0:	8f 90       	pop	r8
545107e2:	7f 90       	pop	r7
545107e4:	6f 90       	pop	r6
545107e6:	5f 90       	pop	r5
545107e8:	4f 90       	pop	r4
545107ea:	0c 94 00 00 	jmp	0	; 0x0 <__tmp_reg__>
545107ee:	2f ef       	ldi	r18, 0xFF	; 255
545107f0:	3f ef       	ldi	r19, 0xFF	; 255
545107f2:	4f e7       	ldi	r20, 0x7F	; 127
545107f4:	5f ec       	ldi	r21, 0xCF	; 207
545107f6:	c7 01       	movw	r24, r14
545107f8:	b6 01       	movw	r22, r12
545107fa:	0e 94 00 00 	call	0	; 0x0 <__tmp_reg__>
545107fe:	87 fd       	sbrc	r24, 7
54510800:	00 c0       	rjmp	.+0      	; 0x54510802 <_ZN5Print5printEji+0x29c6e730>
54510802:	20 e0       	ldi	r18, 0x00	; 0
54510804:	30 e0       	ldi	r19, 0x00	; 0
54510806:	a9 01       	movw	r20, r18
54510808:	c7 01       	movw	r24, r14
5451080a:	b6 01       	movw	r22, r12
5451080c:	0e 94 00 00 	call	0	; 0x0 <__tmp_reg__>
54510810:	87 ff       	sbrs	r24, 7
54510812:	00 c0       	rjmp	.+0      	; 0x54510814 <_ZN5Print5printEji+0x29c6e742>
54510814:	6d e2       	ldi	r22, 0x2D	; 45
54510816:	ce 01       	movw	r24, r28
54510818:	0e 94 00 00 	call	0	; 0x0 <__tmp_reg__>
5451081c:	8c 01       	movw	r16, r24
5451081e:	f7 fa       	bst	r15, 7
54510820:	f0 94       	com	r15
54510822:	f7 f8       	bld	r15, 7
54510824:	f0 94       	com	r15
54510826:	00 c0       	rjmp	.+0      	; 0x54510828 <_ZN5Print5printEji+0x29c6e756>
54510828:	00 e0       	ldi	r16, 0x00	; 0
5451082a:	10 e0       	ldi	r17, 0x00	; 0
5451082c:	a1 2c       	mov	r10, r1
5451082e:	60 e0       	ldi	r22, 0x00	; 0
54510830:	70 e0       	ldi	r23, 0x00	; 0
54510832:	80 e0       	ldi	r24, 0x00	; 0
54510834:	9f e3       	ldi	r25, 0x3F	; 63
54510836:	ab 14       	cp	r10, r11
54510838:	01 f0       	breq	.+0      	; 0x5451083a <_ZN5Print5printEji+0x29c6e768>
5451083a:	20 e0       	ldi	r18, 0x00	; 0
5451083c:	30 e0       	ldi	r19, 0x00	; 0
5451083e:	40 e2       	ldi	r20, 0x20	; 32
54510840:	51 e4       	ldi	r21, 0x41	; 65
54510842:	0e 94 00 00 	call	0	; 0x0 <__tmp_reg__>
54510846:	a3 94       	inc	r10
54510848:	00 c0       	rjmp	.+0      	; 0x5451084a <_ZN5Print5printEji+0x29c6e778>
5451084a:	9b 01       	movw	r18, r22
5451084c:	ac 01       	movw	r20, r24
5451084e:	c7 01       	movw	r24, r14
54510850:	b6 01       	movw	r22, r12
54510852:	0e 94 00 00 	call	0	; 0x0 <__tmp_reg__>
54510856:	6b 01       	movw	r12, r22
54510858:	7c 01       	movw	r14, r24
5451085a:	0e 94 00 00 	call	0	; 0x0 <__tmp_reg__>
5451085e:	2b 01       	movw	r4, r22
54510860:	3c 01       	movw	r6, r24
54510862:	0e 94 00 00 	call	0	; 0x0 <__tmp_reg__>
54510866:	9b 01       	movw	r18, r22
54510868:	ac 01       	movw	r20, r24
5451086a:	c7 01       	movw	r24, r14
5451086c:	b6 01       	movw	r22, r12
5451086e:	0e 94 00 00 	call	0	; 0x0 <__tmp_reg__>
54510872:	6b 01       	movw	r12, r22
54510874:	7c 01       	movw	r14, r24
54510876:	2a e0       	ldi	r18, 0x0A	; 10
54510878:	b3 01       	movw	r22, r6
5451087a:	a2 01       	movw	r20, r4
5451087c:	ce 01       	movw	r24, r28
5451087e:	0e 94 00 00 	call	0	; 0x0 <__tmp_reg__>
54510882:	08 0f       	add	r16, r24
54510884:	19 1f       	adc	r17, r25
54510886:	bb 20       	and	r11, r11
54510888:	01 f0       	breq	.+0      	; 0x5451088a <_ZN5Print5printEji+0x29c6e7b8>
5451088a:	60 e0       	ldi	r22, 0x00	; 0
5451088c:	70 e0       	ldi	r23, 0x00	; 0
5451088e:	ce 01       	movw	r24, r28
54510890:	0e 94 00 00 	call	0	; 0x0 <__tmp_reg__>
54510894:	08 0f       	add	r16, r24
54510896:	19 1f       	adc	r17, r25
54510898:	7b 2c       	mov	r7, r11
5451089a:	77 20       	and	r7, r7
5451089c:	01 f0       	breq	.+0      	; 0x5451089e <_ZN5Print5printEji+0x29c6e7cc>
5451089e:	20 e0       	ldi	r18, 0x00	; 0
545108a0:	30 e0       	ldi	r19, 0x00	; 0
545108a2:	40 e2       	ldi	r20, 0x20	; 32
545108a4:	51 e4       	ldi	r21, 0x41	; 65
545108a6:	c7 01       	movw	r24, r14
545108a8:	b6 01       	movw	r22, r12
545108aa:	0e 94 00 00 	call	0	; 0x0 <__tmp_reg__>
545108ae:	6b 01       	movw	r12, r22
545108b0:	7c 01       	movw	r14, r24
545108b2:	0e 94 00 00 	call	0	; 0x0 <__tmp_reg__>
545108b6:	4b 01       	movw	r8, r22
545108b8:	aa 24       	eor	r10, r10
545108ba:	97 fc       	sbrc	r9, 7
545108bc:	a0 94       	com	r10
545108be:	ba 2c       	mov	r11, r10
545108c0:	2a e0       	ldi	r18, 0x0A	; 10
545108c2:	30 e0       	ldi	r19, 0x00	; 0
545108c4:	b5 01       	movw	r22, r10
545108c6:	a4 01       	movw	r20, r8
545108c8:	ce 01       	movw	r24, r28
545108ca:	0e 94 00 00 	call	0	; 0x0 <__tmp_reg__>
545108ce:	08 0f       	add	r16, r24
545108d0:	19 1f       	adc	r17, r25
545108d2:	c5 01       	movw	r24, r10
545108d4:	b4 01       	movw	r22, r8
545108d6:	0e 94 00 00 	call	0	; 0x0 <__tmp_reg__>
545108da:	9b 01       	movw	r18, r22
545108dc:	ac 01       	movw	r20, r24
545108de:	c7 01       	movw	r24, r14
545108e0:	b6 01       	movw	r22, r12
545108e2:	0e 94 00 00 	call	0	; 0x0 <__tmp_reg__>
545108e6:	6b 01       	movw	r12, r22
545108e8:	7c 01       	movw	r14, r24
545108ea:	7a 94       	dec	r7
545108ec:	00 c0       	rjmp	.+0      	; 0x545108ee <_ZN5Print5printEji+0x29c6e81c>
545108ee:	c8 01       	movw	r24, r16
545108f0:	df 91       	pop	r29
545108f2:	cf 91       	pop	r28
545108f4:	1f 91       	pop	r17
545108f6:	0f 91       	pop	r16
545108f8:	ff 90       	pop	r15
545108fa:	ef 90       	pop	r14
545108fc:	df 90       	pop	r13
545108fe:	cf 90       	pop	r12
54510900:	bf 90       	pop	r11
54510902:	af 90       	pop	r10
54510904:	9f 90       	pop	r9
54510906:	8f 90       	pop	r8
54510908:	7f 90       	pop	r7
5451090a:	6f 90       	pop	r6
5451090c:	5f 90       	pop	r5
5451090e:	4f 90       	pop	r4
54510910:	08 95       	ret

Disassembly of section .text._ZN5Print5printEdi:

a8a2104e <_ZN5Print5printEdi>:
a8a2104e:	0c 94 00 00 	jmp	0	; 0x0 <__tmp_reg__>

Disassembly of section .text._ZN5Print7printlnEdi:

514420a0 <_ZN5Print7printlnEdi>:
514420a0:	0f 93       	push	r16
514420a2:	1f 93       	push	r17
514420a4:	cf 93       	push	r28
514420a6:	df 93       	push	r29
514420a8:	ec 01       	movw	r28, r24
514420aa:	0e 94 00 00 	call	0	; 0x0 <__tmp_reg__>
514420ae:	8c 01       	movw	r16, r24
514420b0:	ce 01       	movw	r24, r28
514420b2:	0e 94 00 00 	call	0	; 0x0 <__tmp_reg__>
514420b6:	80 0f       	add	r24, r16
514420b8:	91 1f       	adc	r25, r17
514420ba:	df 91       	pop	r29
514420bc:	cf 91       	pop	r28
514420be:	1f 91       	pop	r17
514420c0:	0f 91       	pop	r16
514420c2:	08 95       	ret

Stream.o:     file format elf32-avr

Sections:
Idx Name          Size      VMA       LMA       File off  Algn
  0 .text         00000000  00000000  00000000  00000034  2**0
                  CONTENTS, ALLOC, LOAD, READONLY, CODE
  1 .data         00000040  00000000  00000000  00000034  2**0
                  CONTENTS, ALLOC, LOAD, DATA
  2 .bss          00000000  00000000  00000000  00000074  2**0
                  ALLOC
  3 .stab         000012e4  00000000  00000000  00000074  2**2
                  CONTENTS, RELOC, READONLY, DEBUGGING
  4 .stabstr      000018b8  00000000  00000000  00001358  2**0
                  CONTENTS, READONLY, DEBUGGING
  5 .text._ZN6Stream9timedReadEv 0000005c  00000000  00000000  00002c10  2**0
                  CONTENTS, ALLOC, LOAD, RELOC, READONLY, CODE
  6 .text._ZN6Stream9timedPeekEv 0000005c  00000000  00000000  00002c6c  2**0
                  CONTENTS, ALLOC, LOAD, RELOC, READONLY, CODE
  7 .text._ZN6Stream13peekNextDigitE13LookaheadModeb 0000007e  00000000  00000000  00002cc8  2**0
                  CONTENTS, ALLOC, LOAD, RELOC, READONLY, CODE
  8 .text._ZN6Stream10setTimeoutEm 0000000c  00000000  00000000  00002d46  2**0
                  CONTENTS, ALLOC, LOAD, READONLY, CODE
  9 .text._ZN6Stream8parseIntE13LookaheadModec 000000dc  00000000  00000000  00002d52  2**0
                  CONTENTS, ALLOC, LOAD, RELOC, READONLY, CODE
 10 .text._ZN6Stream10parseFloatE13LookaheadModec 00000134  00000000  00000000  00002e2e  2**0
                  CONTENTS, ALLOC, LOAD, RELOC, READONLY, CODE
 11 .text._ZN6Stream9readBytesEPcj 00000046  00000000  00000000  00002f62  2**0
                  CONTENTS, ALLOC, LOAD, RELOC, READONLY, CODE
 12 .text._ZN6Stream14readBytesUntilEcPcj 00000066  00000000  00000000  00002fa8  2**0
                  CONTENTS, ALLOC, LOAD, RELOC, READONLY, CODE
 13 .rodata.str1.1 00000001  00000000  00000000  0000300e  2**0
                  CONTENTS, ALLOC, LOAD, READONLY, DATA
 14 .text._ZN6Stream10readStringEv 00000034  00000000  00000000  0000300f  2**0
                  CONTENTS, ALLOC, LOAD, RELOC, READONLY, CODE
 15 .text._ZN6Stream15readStringUntilEc 0000004c  00000000  00000000  00003043  2**0
                  CONTENTS, ALLOC, LOAD, RELOC, READONLY, CODE
 16 .text._ZN6Stream9findMultiEPNS_11MultiTargetEi 00000132  00000000  00000000  0000308f  2**0
                  CONTENTS, ALLOC, LOAD, RELOC, READONLY, CODE
 17 .text._ZN6Stream9findUntilEPcjS0_j.part.0 0000004a  00000000  00000000  000031c1  2**0
                  CONTENTS, ALLOC, LOAD, RELOC, READONLY, CODE
 18 .text._ZN6Stream9findUntilEPcjS0_j 00000074  00000000  00000000  0000320b  2**0
                  CONTENTS, ALLOC, LOAD, RELOC, READONLY, CODE
 19 .text._ZN6Stream9findUntilEPcS0_ 00000034  00000000  00000000  0000327f  2**0
                  CONTENTS, ALLOC, LOAD, RELOC, READONLY, CODE
 20 .text._ZN6Stream4findEPcj 00000004  00000000  00000000  000032b3  2**0
                  CONTENTS, ALLOC, LOAD, RELOC, READONLY, CODE
 21 .text._ZN6Stream4findEPc 00000016  00000000  00000000  000032b7  2**0
                  CONTENTS, ALLOC, LOAD, RELOC, READONLY, CODE
 22 .comment      00000012  00000000  00000000  000032cd  2**0
                  CONTENTS, READONLY

Disassembly of section .text._ZN6Stream9timedReadEv:

00000000 <_ZN6Stream9timedReadEv>:
}

 // find returns true if the target string is found
bool  Stream::find(char *target)
{
  return findUntil(target, strlen(target), NULL, 0);
   0:	0f 93       	push	r16
  42:	1f 93       	ldd	r19, Y+7	; 0x07
  44:	cf 93       	cp	r22, r16
  46:	df 93       	cpc	r23, r17
  48:	ec 01       	cpc	r24, r18
  4a:	0e 94       	cpc	r25, r19
  4c:	00 00       	brcs	.+0      	; 0x4e <_ZN6Stream9timedReadEv+0xe>
  4e:	68 87       	ldi	r24, 0xFF	; 255
  50:	79 87       	ldi	r25, 0xFF	; 255
  52:	8a 87       	pop	r29
  54:	9b 87       	pop	r28
  56:	e8 81       	pop	r17
  58:	f9 81       	pop	r16
  5a:	06 80       	ret
  5c:	f7 81       	Address 0x000000000000005c is out of bounds.
.word	0xffff	; ????
  5e:	e0 2d       	Address 0x000000000000005e is out of bounds.
.word	0xffff	; ????
  60:	ce 01       	Address 0x0000000000000060 is out of bounds.
.word	0xffff	; ????
  62:	09 95       	Address 0x0000000000000062 is out of bounds.
.word	0xffff	; ????
  64:	97 ff       	Address 0x0000000000000064 is out of bounds.
.word	0xffff	; ????
  66:	00 c0       	Address 0x0000000000000066 is out of bounds.
.word	0xffff	; ????
  68:	0e 94       	Address 0x0000000000000068 is out of bounds.
.word	0xffff	; ????
  6a:	00 00       	Address 0x000000000000006a is out of bounds.
.word	0xffff	; ????
  6c:	08 85       	Address 0x000000000000006c is out of bounds.
.word	0xffff	; ????
  6e:	19 85       	Address 0x000000000000006e is out of bounds.
.word	0xffff	; ????
  70:	2a 85       	Address 0x0000000000000070 is out of bounds.
.word	0xffff	; ????
  72:	3b 85       	Address 0x0000000000000072 is out of bounds.
.word	0xffff	; ????
  74:	60 1b       	Address 0x0000000000000074 is out of bounds.
.word	0xffff	; ????
  76:	71 0b       	Address 0x0000000000000076 is out of bounds.
.word	0xffff	; ????
  78:	82 0b       	Address 0x0000000000000078 is out of bounds.
.word	0xffff	; ????
  7a:	93 0b       	Address 0x000000000000007a is out of bounds.
.word	0xffff	; ????
  7c:	0c 81       	Address 0x000000000000007c is out of bounds.
.word	0xffff	; ????
  7e:	1d 81       	Address 0x000000000000007e is out of bounds.
.word	0xffff	; ????
  80:	2e 81       	Address 0x0000000000000080 is out of bounds.
.word	0xffff	; ????
  82:	3f 81       	Address 0x0000000000000082 is out of bounds.
.word	0xffff	; ????
  84:	60 17       	Address 0x0000000000000084 is out of bounds.
.word	0xffff	; ????
  86:	71 07       	Address 0x0000000000000086 is out of bounds.
.word	0xffff	; ????
  88:	82 07       	Address 0x0000000000000088 is out of bounds.
.word	0xffff	; ????
  8a:	93 07       	Address 0x000000000000008a is out of bounds.
.word	0xffff	; ????
  8c:	00 f0       	Address 0x000000000000008c is out of bounds.
.word	0xffff	; ????
  8e:	8f ef       	Address 0x000000000000008e is out of bounds.
.word	0xffff	; ????
  90:	9f ef       	Address 0x0000000000000090 is out of bounds.
.word	0xffff	; ????
  92:	df 91       	Address 0x0000000000000092 is out of bounds.
.word	0xffff	; ????
  94:	cf 91       	Address 0x0000000000000094 is out of bounds.
.word	0xffff	; ????
  96:	1f 91       	Address 0x0000000000000096 is out of bounds.
.word	0xffff	; ????
  98:	0f 91       	Address 0x0000000000000098 is out of bounds.
.word	0xffff	; ????
  9a:	08 95       	Address 0x000000000000009a is out of bounds.
.word	0xffff	; ????

Disassembly of section .text._ZN6Stream9timedPeekEv:

000000dc <_ZN6Stream9timedPeekEv>:
  dc:	0f 93       	push	r16
  de:	1f 93       	push	r17
  e0:	cf 93       	push	r28
  e2:	df 93       	push	r29
  e4:	ec 01       	movw	r28, r24
  e6:	0e 94 00 00 	call	0	; 0x0 <__tmp_reg__>
  ea:	68 87       	std	Y+8, r22	; 0x08
  ec:	79 87       	std	Y+9, r23	; 0x09
  ee:	8a 87       	std	Y+10, r24	; 0x0a
  f0:	9b 87       	std	Y+11, r25	; 0x0b
  f2:	e8 81       	ld	r30, Y
  f4:	f9 81       	ldd	r31, Y+1	; 0x01
  f6:	00 84       	ldd	r0, Z+8	; 0x08
  f8:	f1 85       	ldd	r31, Z+9	; 0x09
  fa:	e0 2d       	mov	r30, r0
  fc:	ce 01       	movw	r24, r28
  fe:	09 95       	icall
 100:	97 ff       	sbrs	r25, 7
 102:	00 c0       	rjmp	.+0      	; 0x104 <_ZN6Stream9timedPeekEv+0x28>
 104:	0e 94 00 00 	call	0	; 0x0 <__tmp_reg__>
 108:	08 85       	ldd	r16, Y+8	; 0x08
 10a:	19 85       	ldd	r17, Y+9	; 0x09
 10c:	2a 85       	ldd	r18, Y+10	; 0x0a
 10e:	3b 85       	ldd	r19, Y+11	; 0x0b
 110:	60 1b       	sub	r22, r16
 112:	71 0b       	sbc	r23, r17
 114:	82 0b       	sbc	r24, r18
 116:	93 0b       	sbc	r25, r19
 118:	0c 81       	ldd	r16, Y+4	; 0x04
 11a:	1d 81       	ldd	r17, Y+5	; 0x05
 11c:	2e 81       	ldd	r18, Y+6	; 0x06
 11e:	3f 81       	ldd	r19, Y+7	; 0x07
 120:	60 17       	cp	r22, r16
 122:	71 07       	cpc	r23, r17
 124:	82 07       	cpc	r24, r18
 126:	93 07       	cpc	r25, r19
 128:	00 f0       	brcs	.+0      	; 0x12a <_ZN6Stream9timedPeekEv+0x4e>
 12a:	8f ef       	ldi	r24, 0xFF	; 255
 12c:	9f ef       	ldi	r25, 0xFF	; 255
 12e:	df 91       	pop	r29
 130:	cf 91       	pop	r28
 132:	1f 91       	pop	r17
 134:	0f 91       	pop	r16
 136:	08 95       	ret

Disassembly of section .text._ZN6Stream13peekNextDigitE13LookaheadModeb:

00000214 <_ZN6Stream13peekNextDigitE13LookaheadModeb>:
 214:	0f 93       	push	r16
 216:	1f 93       	push	r17
 218:	cf 93       	push	r28
 21a:	df 93       	push	r29
 21c:	ec 01       	movw	r28, r24
 21e:	16 2f       	mov	r17, r22
 220:	04 2f       	mov	r16, r20
 222:	ce 01       	movw	r24, r28
 224:	0e 94 00 00 	call	0	; 0x0 <__tmp_reg__>
 228:	9c 01       	movw	r18, r24
 22a:	97 fd       	sbrc	r25, 7
 22c:	00 c0       	rjmp	.+0      	; 0x22e <_ZN6Stream13peekNextDigitE13LookaheadModeb+0x1a>
 22e:	8d 32       	cpi	r24, 0x2D	; 45
 230:	91 05       	cpc	r25, r1
 232:	01 f0       	breq	.+0      	; 0x234 <_ZN6Stream13peekNextDigitE13LookaheadModeb+0x20>
 234:	c0 97       	sbiw	r24, 0x30	; 48
 236:	0a 97       	sbiw	r24, 0x0a	; 10
 238:	00 f0       	brcs	.+0      	; 0x23a <_ZN6Stream13peekNextDigitE13LookaheadModeb+0x26>
 23a:	00 23       	and	r16, r16
 23c:	01 f0       	breq	.+0      	; 0x23e <_ZN6Stream13peekNextDigitE13LookaheadModeb+0x2a>
 23e:	2e 32       	cpi	r18, 0x2E	; 46
 240:	31 05       	cpc	r19, r1
 242:	01 f0       	breq	.+0      	; 0x244 <_ZN6Stream13peekNextDigitE13LookaheadModeb+0x30>
 244:	11 30       	cpi	r17, 0x01	; 1
 246:	01 f0       	breq	.+0      	; 0x248 <_ZN6Stream13peekNextDigitE13LookaheadModeb+0x34>
 248:	12 30       	cpi	r17, 0x02	; 2
 24a:	01 f4       	brne	.+0      	; 0x24c <_ZN6Stream13peekNextDigitE13LookaheadModeb+0x38>
 24c:	2d 30       	cpi	r18, 0x0D	; 13
 24e:	31 05       	cpc	r19, r1
 250:	01 f0       	breq	.+0      	; 0x252 <_ZN6Stream13peekNextDigitE13LookaheadModeb+0x3e>
 252:	04 f4       	brge	.+0      	; 0x254 <_ZN6Stream13peekNextDigitE13LookaheadModeb+0x40>
 254:	29 50       	subi	r18, 0x09	; 9
 256:	31 09       	sbc	r19, r1
 258:	22 30       	cpi	r18, 0x02	; 2
 25a:	31 05       	cpc	r19, r1
 25c:	00 f0       	brcs	.+0      	; 0x25e <_ZN6Stream13peekNextDigitE13LookaheadModeb+0x4a>
 25e:	00 c0       	rjmp	.+0      	; 0x260 <_ZN6Stream13peekNextDigitE13LookaheadModeb+0x4c>
 260:	20 32       	cpi	r18, 0x20	; 32
 262:	31 05       	cpc	r19, r1
 264:	01 f4       	brne	.+0      	; 0x266 <_ZN6Stream13peekNextDigitE13LookaheadModeb+0x52>
 266:	e8 81       	ld	r30, Y
 268:	f9 81       	ldd	r31, Y+1	; 0x01
 26a:	06 80       	ldd	r0, Z+6	; 0x06
 26c:	f7 81       	ldd	r31, Z+7	; 0x07
 26e:	e0 2d       	mov	r30, r0
 270:	ce 01       	movw	r24, r28
 272:	09 95       	icall
 274:	00 c0       	rjmp	.+0      	; 0x276 <_ZN6Stream13peekNextDigitE13LookaheadModeb+0x62>
 276:	8d e2       	ldi	r24, 0x2D	; 45
 278:	00 c0       	rjmp	.+0      	; 0x27a <_ZN6Stream13peekNextDigitE13LookaheadModeb+0x66>
 27a:	c9 01       	movw	r24, r18
 27c:	00 c0       	rjmp	.+0      	; 0x27e <_ZN6Stream13peekNextDigitE13LookaheadModeb+0x6a>
 27e:	8e e2       	ldi	r24, 0x2E	; 46
 280:	90 e0       	ldi	r25, 0x00	; 0
 282:	00 c0       	rjmp	.+0      	; 0x284 <_ZN6Stream13peekNextDigitE13LookaheadModeb+0x70>
 284:	8f ef       	ldi	r24, 0xFF	; 255
 286:	9f ef       	ldi	r25, 0xFF	; 255
 288:	df 91       	pop	r29
 28a:	cf 91       	pop	r28
 28c:	1f 91       	pop	r17
 28e:	0f 91       	pop	r16
 290:	08 95       	ret

Disassembly of section .text._ZN6Stream10setTimeoutEm:

000004a6 <_ZN6Stream10setTimeoutEm>:
 4a6:	fc 01       	movw	r30, r24
 4a8:	44 83       	std	Z+4, r20	; 0x04
 4aa:	55 83       	std	Z+5, r21	; 0x05
 4ac:	66 83       	std	Z+6, r22	; 0x06
 4ae:	77 83       	std	Z+7, r23	; 0x07
 4b0:	08 95       	ret

Disassembly of section .text._ZN6Stream8parseIntE13LookaheadModec:

00000958 <_ZN6Stream8parseIntE13LookaheadModec>:
 958:	cf 92       	push	r12
 95a:	df 92       	push	r13
 95c:	ff 92       	push	r15
 95e:	0f 93       	push	r16
 960:	1f 93       	push	r17
 962:	cf 93       	push	r28
 964:	df 93       	push	r29
 966:	00 d0       	rcall	.+0      	; 0x968 <_ZN6Stream8parseIntE13LookaheadModec+0x10>
 968:	00 d0       	rcall	.+0      	; 0x96a <_ZN6Stream8parseIntE13LookaheadModec+0x12>
 96a:	cd b7       	in	r28, 0x3d	; 61
 96c:	de b7       	in	r29, 0x3e	; 62
 96e:	6c 01       	movw	r12, r24
 970:	04 2f       	mov	r16, r20
 972:	40 e0       	ldi	r20, 0x00	; 0
 974:	0e 94 00 00 	call	0	; 0x0 <__tmp_reg__>
 978:	fc 01       	movw	r30, r24
 97a:	97 fd       	sbrc	r25, 7
 97c:	00 c0       	rjmp	.+0      	; 0x97e <_ZN6Stream8parseIntE13LookaheadModec+0x26>
 97e:	20 e0       	ldi	r18, 0x00	; 0
 980:	30 e0       	ldi	r19, 0x00	; 0
 982:	a9 01       	movw	r20, r18
 984:	f1 2c       	mov	r15, r1
 986:	10 e0       	ldi	r17, 0x00	; 0
 988:	e0 17       	cp	r30, r16
 98a:	f1 07       	cpc	r31, r17
 98c:	01 f0       	breq	.+0      	; 0x98e <_ZN6Stream8parseIntE13LookaheadModec+0x36>
 98e:	ed 32       	cpi	r30, 0x2D	; 45
 990:	f1 05       	cpc	r31, r1
 992:	01 f0       	breq	.+0      	; 0x994 <_ZN6Stream8parseIntE13LookaheadModec+0x3c>
 994:	cf 01       	movw	r24, r30
 996:	c0 97       	sbiw	r24, 0x30	; 48
 998:	0a 97       	sbiw	r24, 0x0a	; 10
 99a:	00 f4       	brcc	.+0      	; 0x99c <_ZN6Stream8parseIntE13LookaheadModec+0x44>
 99c:	aa e0       	ldi	r26, 0x0A	; 10
 99e:	b0 e0       	ldi	r27, 0x00	; 0
 9a0:	0e 94 00 00 	call	0	; 0x0 <__tmp_reg__>
 9a4:	9b 01       	movw	r18, r22
 9a6:	ac 01       	movw	r20, r24
 9a8:	cf 01       	movw	r24, r30
 9aa:	aa 27       	eor	r26, r26
 9ac:	97 fd       	sbrc	r25, 7
 9ae:	a0 95       	com	r26
 9b0:	ba 2f       	mov	r27, r26
 9b2:	28 0f       	add	r18, r24
 9b4:	39 1f       	adc	r19, r25
 9b6:	4a 1f       	adc	r20, r26
 9b8:	5b 1f       	adc	r21, r27
 9ba:	20 53       	subi	r18, 0x30	; 48
 9bc:	31 09       	sbc	r19, r1
 9be:	41 09       	sbc	r20, r1
 9c0:	51 09       	sbc	r21, r1
 9c2:	00 c0       	rjmp	.+0      	; 0x9c4 <_ZN6Stream8parseIntE13LookaheadModec+0x6c>
 9c4:	ff 24       	eor	r15, r15
 9c6:	f3 94       	inc	r15
 9c8:	d6 01       	movw	r26, r12
 9ca:	ed 91       	ld	r30, X+
 9cc:	fc 91       	ld	r31, X
 9ce:	06 80       	ldd	r0, Z+6	; 0x06
 9d0:	f7 81       	ldd	r31, Z+7	; 0x07
 9d2:	e0 2d       	mov	r30, r0
 9d4:	c6 01       	movw	r24, r12
 9d6:	29 83       	std	Y+1, r18	; 0x01
 9d8:	3a 83       	std	Y+2, r19	; 0x02
 9da:	4b 83       	std	Y+3, r20	; 0x03
 9dc:	5c 83       	std	Y+4, r21	; 0x04
 9de:	09 95       	icall
 9e0:	c6 01       	movw	r24, r12
 9e2:	0e 94 00 00 	call	0	; 0x0 <__tmp_reg__>
 9e6:	fc 01       	movw	r30, r24
 9e8:	c0 97       	sbiw	r24, 0x30	; 48
 9ea:	29 81       	ldd	r18, Y+1	; 0x01
 9ec:	3a 81       	ldd	r19, Y+2	; 0x02
 9ee:	4b 81       	ldd	r20, Y+3	; 0x03
 9f0:	5c 81       	ldd	r21, Y+4	; 0x04
 9f2:	0a 97       	sbiw	r24, 0x0a	; 10
 9f4:	00 f0       	brcs	.+0      	; 0x9f6 <_ZN6Stream8parseIntE13LookaheadModec+0x9e>
 9f6:	e0 17       	cp	r30, r16
 9f8:	f1 07       	cpc	r31, r17
 9fa:	01 f0       	breq	.+0      	; 0x9fc <_ZN6Stream8parseIntE13LookaheadModec+0xa4>
 9fc:	ff 20       	and	r15, r15
 9fe:	01 f0       	breq	.+0      	; 0xa00 <_ZN6Stream8parseIntE13LookaheadModec+0xa8>
 a00:	66 27       	eor	r22, r22
 a02:	77 27       	eor	r23, r23
 a04:	cb 01       	movw	r24, r22
 a06:	62 1b       	sub	r22, r18
 a08:	73 0b       	sbc	r23, r19
 a0a:	84 0b       	sbc	r24, r20
 a0c:	95 0b       	sbc	r25, r21
 a0e:	00 c0       	rjmp	.+0      	; 0xa10 <_ZN6Stream8parseIntE13LookaheadModec+0xb8>
 a10:	60 e0       	ldi	r22, 0x00	; 0
 a12:	70 e0       	ldi	r23, 0x00	; 0
 a14:	cb 01       	movw	r24, r22
 a16:	00 c0       	rjmp	.+0      	; 0xa18 <_ZN6Stream8parseIntE13LookaheadModec+0xc0>
 a18:	ca 01       	movw	r24, r20
 a1a:	b9 01       	movw	r22, r18
 a1c:	0f 90       	pop	r0
 a1e:	0f 90       	pop	r0
 a20:	0f 90       	pop	r0
 a22:	0f 90       	pop	r0
 a24:	df 91       	pop	r29
 a26:	cf 91       	pop	r28
 a28:	1f 91       	pop	r17
 a2a:	0f 91       	pop	r16
 a2c:	ff 90       	pop	r15
 a2e:	df 90       	pop	r13
 a30:	cf 90       	pop	r12
 a32:	08 95       	ret

Disassembly of section .text._ZN6Stream10parseFloatE13LookaheadModec:

0000138c <_ZN6Stream10parseFloatE13LookaheadModec>:
    138c:	6f 92       	push	r6
    138e:	7f 92       	push	r7
    1390:	8f 92       	push	r8
    1392:	9f 92       	push	r9
    1394:	af 92       	push	r10
    1396:	bf 92       	push	r11
    1398:	cf 92       	push	r12
    139a:	df 92       	push	r13
    139c:	ef 92       	push	r14
    139e:	ff 92       	push	r15
    13a0:	0f 93       	push	r16
    13a2:	1f 93       	push	r17
    13a4:	cf 93       	push	r28
    13a6:	df 93       	push	r29
    13a8:	ec 01       	movw	r28, r24
    13aa:	04 2f       	mov	r16, r20
    13ac:	41 e0       	ldi	r20, 0x01	; 1
    13ae:	0e 94 00 00 	call	0	; 0x0 <__tmp_reg__>
    13b2:	fc 01       	movw	r30, r24
    13b4:	97 fd       	sbrc	r25, 7
    13b6:	00 c0       	rjmp	.+0      	; 0x13b8 <_ZN6Stream10parseFloatE13LookaheadModec+0x2c>
    13b8:	81 2c       	mov	r8, r1
    13ba:	91 2c       	mov	r9, r1
    13bc:	80 e8       	ldi	r24, 0x80	; 128
    13be:	a8 2e       	mov	r10, r24
    13c0:	8f e3       	ldi	r24, 0x3F	; 63
    13c2:	b8 2e       	mov	r11, r24
    13c4:	c1 2c       	mov	r12, r1
    13c6:	d1 2c       	mov	r13, r1
    13c8:	76 01       	movw	r14, r12
    13ca:	71 2c       	mov	r7, r1
    13cc:	61 2c       	mov	r6, r1
    13ce:	10 e0       	ldi	r17, 0x00	; 0
    13d0:	e0 17       	cp	r30, r16
    13d2:	f1 07       	cpc	r31, r17
    13d4:	01 f0       	breq	.+0      	; 0x13d6 <_ZN6Stream10parseFloatE13LookaheadModec+0x4a>
    13d6:	ed 32       	cpi	r30, 0x2D	; 45
    13d8:	f1 05       	cpc	r31, r1
    13da:	01 f0       	breq	.+0      	; 0x13dc <_ZN6Stream10parseFloatE13LookaheadModec+0x50>
    13dc:	ee 32       	cpi	r30, 0x2E	; 46
    13de:	f1 05       	cpc	r31, r1
    13e0:	01 f0       	breq	.+0      	; 0x13e2 <_ZN6Stream10parseFloatE13LookaheadModec+0x56>
    13e2:	cf 01       	movw	r24, r30
    13e4:	c0 97       	sbiw	r24, 0x30	; 48
    13e6:	0a 97       	sbiw	r24, 0x0a	; 10
    13e8:	00 f4       	brcc	.+0      	; 0x13ea <_ZN6Stream10parseFloatE13LookaheadModec+0x5e>
    13ea:	aa e0       	ldi	r26, 0x0A	; 10
    13ec:	b0 e0       	ldi	r27, 0x00	; 0
    13ee:	a7 01       	movw	r20, r14
    13f0:	96 01       	movw	r18, r12
    13f2:	0e 94 00 00 	call	0	; 0x0 <__tmp_reg__>
    13f6:	6b 01       	movw	r12, r22
    13f8:	7c 01       	movw	r14, r24
    13fa:	cf 01       	movw	r24, r30
    13fc:	aa 27       	eor	r26, r26
    13fe:	97 fd       	sbrc	r25, 7
    1400:	a0 95       	com	r26
    1402:	ba 2f       	mov	r27, r26
    1404:	c8 0e       	add	r12, r24
    1406:	d9 1e       	adc	r13, r25
    1408:	ea 1e       	adc	r14, r26
    140a:	fb 1e       	adc	r15, r27
    140c:	80 e3       	ldi	r24, 0x30	; 48
    140e:	c8 1a       	sub	r12, r24
    1410:	d1 08       	sbc	r13, r1
    1412:	e1 08       	sbc	r14, r1
    1414:	f1 08       	sbc	r15, r1
    1416:	77 20       	and	r7, r7
    1418:	01 f0       	breq	.+0      	; 0x141a <_ZN6Stream10parseFloatE13LookaheadModec+0x8e>
    141a:	2d ec       	ldi	r18, 0xCD	; 205
    141c:	3c ec       	ldi	r19, 0xCC	; 204
    141e:	4c ec       	ldi	r20, 0xCC	; 204
    1420:	5d e3       	ldi	r21, 0x3D	; 61
    1422:	c5 01       	movw	r24, r10
    1424:	b4 01       	movw	r22, r8
    1426:	0e 94 00 00 	call	0	; 0x0 <__tmp_reg__>
    142a:	4b 01       	movw	r8, r22
    142c:	5c 01       	movw	r10, r24
    142e:	00 c0       	rjmp	.+0      	; 0x1430 <_ZN6Stream10parseFloatE13LookaheadModec+0xa4>
    1430:	66 24       	eor	r6, r6
    1432:	63 94       	inc	r6
    1434:	00 c0       	rjmp	.+0      	; 0x1436 <_ZN6Stream10parseFloatE13LookaheadModec+0xaa>
    1436:	77 24       	eor	r7, r7
    1438:	73 94       	inc	r7
    143a:	e8 81       	ld	r30, Y
    143c:	f9 81       	ldd	r31, Y+1	; 0x01
    143e:	06 80       	ldd	r0, Z+6	; 0x06
    1440:	f7 81       	ldd	r31, Z+7	; 0x07
    1442:	e0 2d       	mov	r30, r0
    1444:	ce 01       	movw	r24, r28
    1446:	09 95       	icall
    1448:	ce 01       	movw	r24, r28
    144a:	0e 94 00 00 	call	0	; 0x0 <__tmp_reg__>
    144e:	fc 01       	movw	r30, r24
    1450:	c0 97       	sbiw	r24, 0x30	; 48
    1452:	0a 97       	sbiw	r24, 0x0a	; 10
    1454:	00 f4       	brcc	.+0      	; 0x1456 <_ZN6Stream10parseFloatE13LookaheadModec+0xca>
    1456:	00 c0       	rjmp	.+0      	; 0x1458 <_ZN6Stream10parseFloatE13LookaheadModec+0xcc>
    1458:	ee 32       	cpi	r30, 0x2E	; 46
    145a:	f1 05       	cpc	r31, r1
    145c:	01 f4       	brne	.+0      	; 0x145e <_ZN6Stream10parseFloatE13LookaheadModec+0xd2>
    145e:	77 20       	and	r7, r7
    1460:	01 f4       	brne	.+0      	; 0x1462 <_ZN6Stream10parseFloatE13LookaheadModec+0xd6>
    1462:	00 c0       	rjmp	.+0      	; 0x1464 <_ZN6Stream10parseFloatE13LookaheadModec+0xd8>
    1464:	e0 17       	cp	r30, r16
    1466:	f1 07       	cpc	r31, r17
    1468:	01 f4       	brne	.+0      	; 0x146a <_ZN6Stream10parseFloatE13LookaheadModec+0xde>
    146a:	00 c0       	rjmp	.+0      	; 0x146c <_ZN6Stream10parseFloatE13LookaheadModec+0xe0>
    146c:	66 20       	and	r6, r6
    146e:	01 f0       	breq	.+0      	; 0x1470 <_ZN6Stream10parseFloatE13LookaheadModec+0xe4>
    1470:	f0 94       	com	r15
    1472:	e0 94       	com	r14
    1474:	d0 94       	com	r13
    1476:	c0 94       	com	r12
    1478:	c1 1c       	adc	r12, r1
    147a:	d1 1c       	adc	r13, r1
    147c:	e1 1c       	adc	r14, r1
    147e:	f1 1c       	adc	r15, r1
    1480:	c7 01       	movw	r24, r14
    1482:	b6 01       	movw	r22, r12
    1484:	77 20       	and	r7, r7
    1486:	01 f0       	breq	.+0      	; 0x1488 <_ZN6Stream10parseFloatE13LookaheadModec+0xfc>
    1488:	0e 94 00 00 	call	0	; 0x0 <__tmp_reg__>
    148c:	a5 01       	movw	r20, r10
    148e:	94 01       	movw	r18, r8
    1490:	0e 94 00 00 	call	0	; 0x0 <__tmp_reg__>
    1494:	00 c0       	rjmp	.+0      	; 0x1496 <_ZN6Stream10parseFloatE13LookaheadModec+0x10a>
    1496:	0e 94 00 00 	call	0	; 0x0 <__tmp_reg__>
    149a:	00 c0       	rjmp	.+0      	; 0x149c <_ZN6Stream10parseFloatE13LookaheadModec+0x110>
    149c:	60 e0       	ldi	r22, 0x00	; 0
    149e:	70 e0       	ldi	r23, 0x00	; 0
    14a0:	cb 01       	movw	r24, r22
    14a2:	df 91       	pop	r29
    14a4:	cf 91       	pop	r28
    14a6:	1f 91       	pop	r17
    14a8:	0f 91       	pop	r16
    14aa:	ff 90       	pop	r15
    14ac:	ef 90       	pop	r14
    14ae:	df 90       	pop	r13
    14b0:	cf 90       	pop	r12
    14b2:	bf 90       	pop	r11
    14b4:	af 90       	pop	r10
    14b6:	9f 90       	pop	r9
    14b8:	8f 90       	pop	r8
    14ba:	7f 90       	pop	r7
    14bc:	6f 90       	pop	r6
    14be:	08 95       	ret

Disassembly of section .text._ZN6Stream9readBytesEPcj:

0000284c <_ZN6Stream9readBytesEPcj>:
    284c:	cf 92       	push	r12
    284e:	df 92       	push	r13
    2850:	ef 92       	push	r14
    2852:	ff 92       	push	r15
    2854:	0f 93       	push	r16
    2856:	1f 93       	push	r17
    2858:	cf 93       	push	r28
    285a:	df 93       	push	r29
    285c:	7c 01       	movw	r14, r24
    285e:	6a 01       	movw	r12, r20
    2860:	eb 01       	movw	r28, r22
    2862:	00 e0       	ldi	r16, 0x00	; 0
    2864:	10 e0       	ldi	r17, 0x00	; 0
    2866:	0c 15       	cp	r16, r12
    2868:	1d 05       	cpc	r17, r13
    286a:	01 f0       	breq	.+0      	; 0x286c <_ZN6Stream9readBytesEPcj+0x20>
    286c:	c7 01       	movw	r24, r14
    286e:	0e 94 00 00 	call	0	; 0x0 <__tmp_reg__>
    2872:	97 fd       	sbrc	r25, 7
    2874:	00 c0       	rjmp	.+0      	; 0x2876 <_ZN6Stream9readBytesEPcj+0x2a>
    2876:	89 93       	st	Y+, r24
    2878:	0f 5f       	subi	r16, 0xFF	; 255
    287a:	1f 4f       	sbci	r17, 0xFF	; 255
    287c:	00 c0       	rjmp	.+0      	; 0x287e <_ZN6Stream9readBytesEPcj+0x32>
    287e:	c8 01       	movw	r24, r16
    2880:	df 91       	pop	r29
    2882:	cf 91       	pop	r28
    2884:	1f 91       	pop	r17
    2886:	0f 91       	pop	r16
    2888:	ff 90       	pop	r15
    288a:	ef 90       	pop	r14
    288c:	df 90       	pop	r13
    288e:	cf 90       	pop	r12
    2890:	08 95       	ret

Disassembly of section .text._ZN6Stream14readBytesUntilEcPcj:

000050de <_ZN6Stream14readBytesUntilEcPcj>:
    50de:	af 92       	push	r10
    50e0:	bf 92       	push	r11
    50e2:	cf 92       	push	r12
    50e4:	df 92       	push	r13
    50e6:	ef 92       	push	r14
    50e8:	ff 92       	push	r15
    50ea:	0f 93       	push	r16
    50ec:	1f 93       	push	r17
    50ee:	cf 93       	push	r28
    50f0:	df 93       	push	r29
    50f2:	6c 01       	movw	r12, r24
    50f4:	79 01       	movw	r14, r18
    50f6:	21 15       	cp	r18, r1
    50f8:	31 05       	cpc	r19, r1
    50fa:	01 f0       	breq	.+0      	; 0x50fc <_ZN6Stream14readBytesUntilEcPcj+0x1e>
    50fc:	8a 01       	movw	r16, r20
    50fe:	c0 e0       	ldi	r28, 0x00	; 0
    5100:	d0 e0       	ldi	r29, 0x00	; 0
    5102:	a6 2e       	mov	r10, r22
    5104:	b1 2c       	mov	r11, r1
    5106:	c6 01       	movw	r24, r12
    5108:	0e 94 00 00 	call	0	; 0x0 <__tmp_reg__>
    510c:	97 fd       	sbrc	r25, 7
    510e:	00 c0       	rjmp	.+0      	; 0x5110 <_ZN6Stream14readBytesUntilEcPcj+0x32>
    5110:	8a 15       	cp	r24, r10
    5112:	9b 05       	cpc	r25, r11
    5114:	01 f0       	breq	.+0      	; 0x5116 <_ZN6Stream14readBytesUntilEcPcj+0x38>
    5116:	f8 01       	movw	r30, r16
    5118:	81 93       	st	Z+, r24
    511a:	8f 01       	movw	r16, r30
    511c:	21 96       	adiw	r28, 0x01	; 1
    511e:	ce 15       	cp	r28, r14
    5120:	df 05       	cpc	r29, r15
    5122:	01 f4       	brne	.+0      	; 0x5124 <_ZN6Stream14readBytesUntilEcPcj+0x46>
    5124:	00 c0       	rjmp	.+0      	; 0x5126 <_ZN6Stream14readBytesUntilEcPcj+0x48>
    5126:	80 e0       	ldi	r24, 0x00	; 0
    5128:	90 e0       	ldi	r25, 0x00	; 0
    512a:	00 c0       	rjmp	.+0      	; 0x512c <_ZN6Stream14readBytesUntilEcPcj+0x4e>
    512c:	ce 01       	movw	r24, r28
    512e:	df 91       	pop	r29
    5130:	cf 91       	pop	r28
    5132:	1f 91       	pop	r17
    5134:	0f 91       	pop	r16
    5136:	ff 90       	pop	r15
    5138:	ef 90       	pop	r14
    513a:	df 90       	pop	r13
    513c:	cf 90       	pop	r12
    513e:	bf 90       	pop	r11
    5140:	af 90       	pop	r10
    5142:	08 95       	ret

Disassembly of section .text._ZN6Stream10readStringEv:

00014445 <_ZN6Stream10readStringEv>:
   14445:	0f 93       	push	r16
   14447:	1f 93       	push	r17
   14449:	cf 93       	push	r28
   1444b:	df 93       	push	r29
   1444d:	ec 01       	movw	r28, r24
   1444f:	8b 01       	movw	r16, r22
   14451:	60 e0       	ldi	r22, 0x00	; 0
   14453:	70 e0       	ldi	r23, 0x00	; 0
   14455:	0e 94 00 00 	call	0	; 0x0 <__tmp_reg__>
   14459:	c8 01       	movw	r24, r16
   1445b:	0e 94 00 00 	call	0	; 0x0 <__tmp_reg__>
   1445f:	97 fd       	sbrc	r25, 7
   14461:	00 c0       	rjmp	.+0      	; 0x14463 <_ZN6Stream10readStringEv+0x1e>
   14463:	68 2f       	mov	r22, r24
   14465:	ce 01       	movw	r24, r28
   14467:	0e 94 00 00 	call	0	; 0x0 <__tmp_reg__>
   1446b:	00 c0       	rjmp	.+0      	; 0x1446d <_ZN6Stream10readStringEv+0x28>
   1446d:	ce 01       	movw	r24, r28
   1446f:	df 91       	pop	r29
   14471:	cf 91       	pop	r28
   14473:	1f 91       	pop	r17
   14475:	0f 91       	pop	r16
   14477:	08 95       	ret

Disassembly of section .text._ZN6Stream15readStringUntilEc:

000288be <_ZN6Stream15readStringUntilEc>:
   288be:	ef 92       	push	r14
   288c0:	ff 92       	push	r15
   288c2:	0f 93       	push	r16
   288c4:	1f 93       	push	r17
   288c6:	cf 93       	push	r28
   288c8:	df 93       	push	r29
   288ca:	ec 01       	movw	r28, r24
   288cc:	8b 01       	movw	r16, r22
   288ce:	e4 2e       	mov	r14, r20
   288d0:	60 e0       	ldi	r22, 0x00	; 0
   288d2:	70 e0       	ldi	r23, 0x00	; 0
   288d4:	0e 94 00 00 	call	0	; 0x0 <__tmp_reg__>
   288d8:	c8 01       	movw	r24, r16
   288da:	0e 94 00 00 	call	0	; 0x0 <__tmp_reg__>
   288de:	f1 2c       	mov	r15, r1
   288e0:	97 fd       	sbrc	r25, 7
   288e2:	00 c0       	rjmp	.+0      	; 0x288e4 <_ZN6Stream15readStringUntilEc+0x26>
   288e4:	8e 15       	cp	r24, r14
   288e6:	9f 05       	cpc	r25, r15
   288e8:	01 f0       	breq	.+0      	; 0x288ea <_ZN6Stream15readStringUntilEc+0x2c>
   288ea:	68 2f       	mov	r22, r24
   288ec:	ce 01       	movw	r24, r28
   288ee:	0e 94 00 00 	call	0	; 0x0 <__tmp_reg__>
   288f2:	c8 01       	movw	r24, r16
   288f4:	0e 94 00 00 	call	0	; 0x0 <__tmp_reg__>
   288f8:	00 c0       	rjmp	.+0      	; 0x288fa <_ZN6Stream15readStringUntilEc+0x3c>
   288fa:	ce 01       	movw	r24, r28
   288fc:	df 91       	pop	r29
   288fe:	cf 91       	pop	r28
   28900:	1f 91       	pop	r17
   28902:	0f 91       	pop	r16
   28904:	ff 90       	pop	r15
   28906:	ef 90       	pop	r14
   28908:	08 95       	ret

Disassembly of section .text._ZN6Stream9findMultiEPNS_11MultiTargetEi:

000511c8 <_ZN6Stream9findMultiEPNS_11MultiTargetEi>:
   511c8:	4f 92       	push	r4
   511ca:	5f 92       	push	r5
   511cc:	6f 92       	push	r6
   511ce:	7f 92       	push	r7
   511d0:	8f 92       	push	r8
   511d2:	9f 92       	push	r9
   511d4:	af 92       	push	r10
   511d6:	bf 92       	push	r11
   511d8:	cf 92       	push	r12
   511da:	df 92       	push	r13
   511dc:	ef 92       	push	r14
   511de:	ff 92       	push	r15
   511e0:	0f 93       	push	r16
   511e2:	1f 93       	push	r17
   511e4:	cf 93       	push	r28
   511e6:	df 93       	push	r29
   511e8:	4c 01       	movw	r8, r24
   511ea:	eb 01       	movw	r28, r22
   511ec:	86 e0       	ldi	r24, 0x06	; 6
   511ee:	84 9f       	mul	r24, r20
   511f0:	80 01       	movw	r16, r0
   511f2:	85 9f       	mul	r24, r21
   511f4:	10 0d       	add	r17, r0
   511f6:	11 24       	eor	r1, r1
   511f8:	06 0f       	add	r16, r22
   511fa:	17 1f       	adc	r17, r23
   511fc:	fb 01       	movw	r30, r22
   511fe:	e0 17       	cp	r30, r16
   51200:	f1 07       	cpc	r31, r17
   51202:	00 f4       	brcc	.+0      	; 0x51204 <_ZN6Stream9findMultiEPNS_11MultiTargetEi+0x3c>
   51204:	82 81       	ldd	r24, Z+2	; 0x02
   51206:	93 81       	ldd	r25, Z+3	; 0x03
   51208:	89 2b       	or	r24, r25
   5120a:	01 f0       	breq	.+0      	; 0x5120c <_ZN6Stream9findMultiEPNS_11MultiTargetEi+0x44>
   5120c:	36 96       	adiw	r30, 0x06	; 6
   5120e:	00 c0       	rjmp	.+0      	; 0x51210 <_ZN6Stream9findMultiEPNS_11MultiTargetEi+0x48>
   51210:	40 81       	ld	r20, Z
   51212:	51 81       	ldd	r21, Z+1	; 0x01
   51214:	64 81       	ldd	r22, Z+4	; 0x04
   51216:	75 81       	ldd	r23, Z+5	; 0x05
   51218:	da 01       	movw	r26, r20
   5121a:	a6 0f       	add	r26, r22
   5121c:	b7 1f       	adc	r27, r23
   5121e:	2c 91       	ld	r18, X
   51220:	30 e0       	ldi	r19, 0x00	; 0
   51222:	82 17       	cp	r24, r18
   51224:	93 07       	cpc	r25, r19
   51226:	01 f4       	brne	.+0      	; 0x51228 <_ZN6Stream9findMultiEPNS_11MultiTargetEi+0x60>
   51228:	6f 5f       	subi	r22, 0xFF	; 255
   5122a:	7f 4f       	sbci	r23, 0xFF	; 255
   5122c:	75 83       	std	Z+5, r23	; 0x05
   5122e:	64 83       	std	Z+4, r22	; 0x04
   51230:	22 81       	ldd	r18, Z+2	; 0x02
   51232:	33 81       	ldd	r19, Z+3	; 0x03
   51234:	62 17       	cp	r22, r18
   51236:	73 07       	cpc	r23, r19
   51238:	01 f0       	breq	.+0      	; 0x5123a <_ZN6Stream9findMultiEPNS_11MultiTargetEi+0x72>
   5123a:	36 96       	adiw	r30, 0x06	; 6
   5123c:	e0 17       	cp	r30, r16
   5123e:	f1 07       	cpc	r31, r17
   51240:	00 f0       	brcs	.+0      	; 0x51242 <_ZN6Stream9findMultiEPNS_11MultiTargetEi+0x7a>
   51242:	c4 01       	movw	r24, r8
   51244:	0e 94 00 00 	call	0	; 0x0 <__tmp_reg__>
   51248:	97 fd       	sbrc	r25, 7
   5124a:	00 c0       	rjmp	.+0      	; 0x5124c <_ZN6Stream9findMultiEPNS_11MultiTargetEi+0x84>
   5124c:	fe 01       	movw	r30, r28
   5124e:	00 c0       	rjmp	.+0      	; 0x51250 <_ZN6Stream9findMultiEPNS_11MultiTargetEi+0x88>
   51250:	ec 1b       	sub	r30, r28
   51252:	fd 0b       	sbc	r31, r29
   51254:	f5 95       	asr	r31
   51256:	e7 95       	ror	r30
   51258:	2b ea       	ldi	r18, 0xAB	; 171
   5125a:	3a ea       	ldi	r19, 0xAA	; 170
   5125c:	e2 9f       	mul	r30, r18
   5125e:	c0 01       	movw	r24, r0
   51260:	e3 9f       	mul	r30, r19
   51262:	90 0d       	add	r25, r0
   51264:	f2 9f       	mul	r31, r18
   51266:	90 0d       	add	r25, r0
   51268:	11 24       	eor	r1, r1
   5126a:	00 c0       	rjmp	.+0      	; 0x5126c <_ZN6Stream9findMultiEPNS_11MultiTargetEi+0xa4>
   5126c:	61 15       	cp	r22, r1
   5126e:	71 05       	cpc	r23, r1
   51270:	01 f0       	breq	.+0      	; 0x51272 <_ZN6Stream9findMultiEPNS_11MultiTargetEi+0xaa>
   51272:	a4 80       	ldd	r10, Z+4	; 0x04
   51274:	b5 80       	ldd	r11, Z+5	; 0x05
   51276:	95 01       	movw	r18, r10
   51278:	21 50       	subi	r18, 0x01	; 1
   5127a:	31 09       	sbc	r19, r1
   5127c:	35 83       	std	Z+5, r19	; 0x05
   5127e:	24 83       	std	Z+4, r18	; 0x04
   51280:	da 01       	movw	r26, r20
   51282:	a2 0f       	add	r26, r18
   51284:	b3 1f       	adc	r27, r19
   51286:	ac 91       	ld	r26, X
   51288:	b0 e0       	ldi	r27, 0x00	; 0
   5128a:	8a 17       	cp	r24, r26
   5128c:	9b 07       	cpc	r25, r27
   5128e:	01 f4       	brne	.+0      	; 0x51290 <_ZN6Stream9findMultiEPNS_11MultiTargetEi+0xc8>
   51290:	21 15       	cp	r18, r1
   51292:	31 05       	cpc	r19, r1
   51294:	01 f0       	breq	.+0      	; 0x51296 <_ZN6Stream9findMultiEPNS_11MultiTargetEi+0xce>
   51296:	6a 01       	movw	r12, r20
   51298:	7b 01       	movw	r14, r22
   5129a:	e2 1a       	sub	r14, r18
   5129c:	f3 0a       	sbc	r15, r19
   5129e:	e4 0e       	add	r14, r20
   512a0:	f5 1e       	adc	r15, r21
   512a2:	41 2c       	mov	r4, r1
   512a4:	51 2c       	mov	r5, r1
   512a6:	d6 01       	movw	r26, r12
   512a8:	6d 90       	ld	r6, X+
   512aa:	6d 01       	movw	r12, r26
   512ac:	d7 01       	movw	r26, r14
   512ae:	7d 90       	ld	r7, X+
   512b0:	7d 01       	movw	r14, r26
   512b2:	67 10       	cpse	r6, r7
   512b4:	00 c0       	rjmp	.+0      	; 0x512b6 <_ZN6Stream9findMultiEPNS_11MultiTargetEi+0xee>
   512b6:	bf ef       	ldi	r27, 0xFF	; 255
   512b8:	4b 1a       	sub	r4, r27
   512ba:	5b 0a       	sbc	r5, r27
   512bc:	42 16       	cp	r4, r18
   512be:	53 06       	cpc	r5, r19
   512c0:	00 f0       	brcs	.+0      	; 0x512c2 <_ZN6Stream9findMultiEPNS_11MultiTargetEi+0xfa>
   512c2:	42 16       	cp	r4, r18
   512c4:	53 06       	cpc	r5, r19
   512c6:	01 f4       	brne	.+0      	; 0x512c8 <_ZN6Stream9findMultiEPNS_11MultiTargetEi+0x100>
   512c8:	b5 82       	std	Z+5, r11	; 0x05
   512ca:	a4 82       	std	Z+4, r10	; 0x04
   512cc:	00 c0       	rjmp	.+0      	; 0x512ce <_ZN6Stream9findMultiEPNS_11MultiTargetEi+0x106>
   512ce:	23 2b       	or	r18, r19
   512d0:	01 f4       	brne	.+0      	; 0x512d2 <_ZN6Stream9findMultiEPNS_11MultiTargetEi+0x10a>
   512d2:	00 c0       	rjmp	.+0      	; 0x512d4 <_ZN6Stream9findMultiEPNS_11MultiTargetEi+0x10c>
   512d4:	8f ef       	ldi	r24, 0xFF	; 255
   512d6:	9f ef       	ldi	r25, 0xFF	; 255
   512d8:	df 91       	pop	r29
   512da:	cf 91       	pop	r28
   512dc:	1f 91       	pop	r17
   512de:	0f 91       	pop	r16
   512e0:	ff 90       	pop	r15
   512e2:	ef 90       	pop	r14
   512e4:	df 90       	pop	r13
   512e6:	cf 90       	pop	r12
   512e8:	bf 90       	pop	r11
   512ea:	af 90       	pop	r10
   512ec:	9f 90       	pop	r9
   512ee:	8f 90       	pop	r8
   512f0:	7f 90       	pop	r7
   512f2:	6f 90       	pop	r6
   512f4:	5f 90       	pop	r5
   512f6:	4f 90       	pop	r4
   512f8:	08 95       	ret

Disassembly of section .text._ZN6Stream9findUntilEPcjS0_j.part.0:

000a24c2 <_ZN6Stream9findUntilEPcjS0_j.part.0>:
   a24c2:	cf 93       	push	r28
   a24c4:	df 93       	push	r29
   a24c6:	00 d0       	rcall	.+0      	; 0xa24c8 <_ZN6Stream9findUntilEPcjS0_j.part.0+0x6>
   a24c8:	00 d0       	rcall	.+0      	; 0xa24ca <_ZN6Stream9findUntilEPcjS0_j.part.0+0x8>
   a24ca:	00 d0       	rcall	.+0      	; 0xa24cc <_ZN6Stream9findUntilEPcjS0_j.part.0+0xa>
   a24cc:	cd b7       	in	r28, 0x3d	; 61
   a24ce:	de b7       	in	r29, 0x3e	; 62
   a24d0:	fe 01       	movw	r30, r28
   a24d2:	31 96       	adiw	r30, 0x01	; 1
   a24d4:	26 e0       	ldi	r18, 0x06	; 6
   a24d6:	df 01       	movw	r26, r30
   a24d8:	1d 92       	st	X+, r1
   a24da:	2a 95       	dec	r18
   a24dc:	01 f4       	brne	.+0      	; 0xa24de <_ZN6Stream9findUntilEPcjS0_j.part.0+0x1c>
   a24de:	7a 83       	std	Y+2, r23	; 0x02
   a24e0:	69 83       	std	Y+1, r22	; 0x01
   a24e2:	5c 83       	std	Y+4, r21	; 0x04
   a24e4:	4b 83       	std	Y+3, r20	; 0x03
   a24e6:	41 e0       	ldi	r20, 0x01	; 1
   a24e8:	50 e0       	ldi	r21, 0x00	; 0
   a24ea:	bf 01       	movw	r22, r30
   a24ec:	0e 94 00 00 	call	0	; 0x0 <__tmp_reg__>
   a24f0:	21 e0       	ldi	r18, 0x01	; 1
   a24f2:	89 2b       	or	r24, r25
   a24f4:	01 f0       	breq	.+0      	; 0xa24f6 <_ZN6Stream9findUntilEPcjS0_j.part.0+0x34>
   a24f6:	20 e0       	ldi	r18, 0x00	; 0
   a24f8:	82 2f       	mov	r24, r18
   a24fa:	26 96       	adiw	r28, 0x06	; 6
   a24fc:	0f b6       	in	r0, 0x3f	; 63
   a24fe:	f8 94       	cli
   a2500:	de bf       	out	0x3e, r29	; 62
   a2502:	0f be       	out	0x3f, r0	; 63
   a2504:	cd bf       	out	0x3d, r28	; 61
   a2506:	df 91       	pop	r29
   a2508:	cf 91       	pop	r28
   a250a:	08 95       	ret

Disassembly of section .text._ZN6Stream9findUntilEPcjS0_j:

001449ce <_ZN6Stream9findUntilEPcjS0_j>:
  1449ce:	ff 92       	push	r15
  1449d0:	0f 93       	push	r16
  1449d2:	1f 93       	push	r17
  1449d4:	cf 93       	push	r28
  1449d6:	df 93       	push	r29
  1449d8:	cd b7       	in	r28, 0x3d	; 61
  1449da:	de b7       	in	r29, 0x3e	; 62
  1449dc:	2c 97       	sbiw	r28, 0x0c	; 12
  1449de:	0f b6       	in	r0, 0x3f	; 63
  1449e0:	f8 94       	cli
  1449e2:	de bf       	out	0x3e, r29	; 62
  1449e4:	0f be       	out	0x3f, r0	; 63
  1449e6:	cd bf       	out	0x3d, r28	; 61
  1449e8:	21 15       	cp	r18, r1
  1449ea:	31 05       	cpc	r19, r1
  1449ec:	01 f4       	brne	.+0      	; 0x1449ee <_ZN6Stream9findUntilEPcjS0_j+0x20>
  1449ee:	0e 94 00 00 	call	0	; 0x0 <__tmp_reg__>
  1449f2:	28 2f       	mov	r18, r24
  1449f4:	00 c0       	rjmp	.+0      	; 0x1449f6 <_ZN6Stream9findUntilEPcjS0_j+0x28>
  1449f6:	fe 01       	movw	r30, r28
  1449f8:	31 96       	adiw	r30, 0x01	; 1
  1449fa:	ac e0       	ldi	r26, 0x0C	; 12
  1449fc:	fa 2e       	mov	r15, r26
  1449fe:	df 01       	movw	r26, r30
  144a00:	1d 92       	st	X+, r1
  144a02:	fa 94       	dec	r15
  144a04:	01 f4       	brne	.+0      	; 0x144a06 <_ZN6Stream9findUntilEPcjS0_j+0x38>
  144a06:	7a 83       	std	Y+2, r23	; 0x02
  144a08:	69 83       	std	Y+1, r22	; 0x01
  144a0a:	5c 83       	std	Y+4, r21	; 0x04
  144a0c:	4b 83       	std	Y+3, r20	; 0x03
  144a0e:	38 87       	std	Y+8, r19	; 0x08
  144a10:	2f 83       	std	Y+7, r18	; 0x07
  144a12:	1a 87       	std	Y+10, r17	; 0x0a
  144a14:	09 87       	std	Y+9, r16	; 0x09
  144a16:	42 e0       	ldi	r20, 0x02	; 2
  144a18:	50 e0       	ldi	r21, 0x00	; 0
  144a1a:	bf 01       	movw	r22, r30
  144a1c:	0e 94 00 00 	call	0	; 0x0 <__tmp_reg__>
  144a20:	21 e0       	ldi	r18, 0x01	; 1
  144a22:	89 2b       	or	r24, r25
  144a24:	01 f0       	breq	.+0      	; 0x144a26 <_ZN6Stream9findUntilEPcjS0_j+0x58>
  144a26:	20 e0       	ldi	r18, 0x00	; 0
  144a28:	82 2f       	mov	r24, r18
  144a2a:	2c 96       	adiw	r28, 0x0c	; 12
  144a2c:	0f b6       	in	r0, 0x3f	; 63
  144a2e:	f8 94       	cli
  144a30:	de bf       	out	0x3e, r29	; 62
  144a32:	0f be       	out	0x3f, r0	; 63
  144a34:	cd bf       	out	0x3d, r28	; 61
  144a36:	df 91       	pop	r29
  144a38:	cf 91       	pop	r28
  144a3a:	1f 91       	pop	r17
  144a3c:	0f 91       	pop	r16
  144a3e:	ff 90       	pop	r15
  144a40:	08 95       	ret

Disassembly of section .text._ZN6Stream9findUntilEPcS0_:

00289410 <_ZN6Stream9findUntilEPcS0_>:
  289410:	0f 93       	push	r16
  289412:	1f 93       	push	r17
  289414:	9a 01       	movw	r18, r20
  289416:	fa 01       	movw	r30, r20
  289418:	01 90       	ld	r0, Z+
  28941a:	00 20       	and	r0, r0
  28941c:	01 f4       	brne	.+0      	; 0x28941e <_ZN6Stream9findUntilEPcS0_+0xe>
  28941e:	8f 01       	movw	r16, r30
  289420:	01 50       	subi	r16, 0x01	; 1
  289422:	11 09       	sbc	r17, r1
  289424:	04 1b       	sub	r16, r20
  289426:	15 0b       	sbc	r17, r21
  289428:	fb 01       	movw	r30, r22
  28942a:	01 90       	ld	r0, Z+
  28942c:	00 20       	and	r0, r0
  28942e:	01 f4       	brne	.+0      	; 0x289430 <_ZN6Stream9findUntilEPcS0_+0x20>
  289430:	af 01       	movw	r20, r30
  289432:	41 50       	subi	r20, 0x01	; 1
  289434:	51 09       	sbc	r21, r1
  289436:	46 1b       	sub	r20, r22
  289438:	57 0b       	sbc	r21, r23
  28943a:	0e 94 00 00 	call	0	; 0x0 <__tmp_reg__>
  28943e:	1f 91       	pop	r17
  289440:	0f 91       	pop	r16
  289442:	08 95       	ret

Disassembly of section .text._ZN6Stream4findEPcj:

00512854 <_ZN6Stream4findEPcj>:
  512854:	0c 94 00 00 	jmp	0	; 0x0 <__tmp_reg__>

Disassembly of section .text._ZN6Stream4findEPc:

00a250ac <_ZN6Stream4findEPc>:
  a250ac:	fb 01       	movw	r30, r22
  a250ae:	01 90       	ld	r0, Z+
  a250b0:	00 20       	and	r0, r0
  a250b2:	01 f4       	brne	.+0      	; 0xa250b4 <_ZN6Stream4findEPc+0x8>
  a250b4:	af 01       	movw	r20, r30
  a250b6:	41 50       	subi	r20, 0x01	; 1
  a250b8:	51 09       	sbc	r21, r1
  a250ba:	46 1b       	sub	r20, r22
  a250bc:	57 0b       	sbc	r21, r23
  a250be:	0c 94 00 00 	jmp	0	; 0x0 <__tmp_reg__>

Tone.o:     file format elf32-avr

Sections:
Idx Name          Size      VMA       LMA       File off  Algn
  0 .text         00000000  00000000  00000000  00000034  2**0
                  CONTENTS, ALLOC, LOAD, READONLY, CODE
  1 .data         00000010  00000000  00000000  00000034  2**0
                  CONTENTS, ALLOC, LOAD, DATA
  2 .bss          00000000  00000000  00000000  00000044  2**0
                  ALLOC
  3 .stab         00000d98  00000000  00000000  00000044  2**2
                  CONTENTS, RELOC, READONLY, DEBUGGING
  4 .stabstr      000013f7  00000000  00000000  00000ddc  2**0
                  CONTENTS, READONLY, DEBUGGING
  5 .text._Z4tonehjm 0000041e  00000000  00000000  000021d3  2**0
                  CONTENTS, ALLOC, LOAD, RELOC, READONLY, CODE
  6 .text._Z12disableTimerh 00000040  00000000  00000000  000025f1  2**0
                  CONTENTS, ALLOC, LOAD, RELOC, READONLY, CODE
  7 .text._Z6noToneh 0000002a  00000000  00000000  00002631  2**0
                  CONTENTS, ALLOC, LOAD, RELOC, READONLY, CODE
  8 .text.__vector_7 000000b8  00000000  00000000  0000265b  2**0
                  CONTENTS, ALLOC, LOAD, RELOC, READONLY, CODE
  9 .progmem.data._ZL21tone_pin_to_timer_PGM 00000001  00000000  00000000  00002713  2**0
                  CONTENTS, ALLOC, LOAD, READONLY, DATA
 10 .data._ZL9tone_pins 00000001  00000000  00000000  00002714  2**0
                  CONTENTS, ALLOC, LOAD, DATA
 11 .bss.timer2_pin_mask 00000001  00000000  00000000  00002715  2**0
                  ALLOC
 12 .bss.timer2_pin_port 00000002  00000000  00000000  00002715  2**0
                  ALLOC
 13 .bss.timer2_toggle_count 00000004  00000000  00000000  00002715  2**0
                  ALLOC
 14 .bss.timer1_pin_mask 00000001  00000000  00000000  00002715  2**0
                  ALLOC
 15 .bss.timer1_pin_port 00000002  00000000  00000000  00002715  2**0
                  ALLOC
 16 .bss.timer1_toggle_count 00000004  00000000  00000000  00002715  2**0
                  ALLOC
 17 .bss.timer0_pin_mask 00000001  00000000  00000000  00002715  2**0
                  ALLOC
 18 .bss.timer0_pin_port 00000002  00000000  00000000  00002715  2**0
                  ALLOC
 19 .bss.timer0_toggle_count 00000004  00000000  00000000  00002715  2**0
                  ALLOC
 20 .comment      00000012  00000000  00000000  00002715  2**0
                  CONTENTS, READONLY

Disassembly of section .text._Z4tonehjm:

00000000 <_Z4tonehjm>:
#endif


#ifdef USE_TIMER2
ISR(TIMER2_COMPA_vect)
{
   0:	3f 92       	push	r3
  12:	4f 92       	push	r12
  14:	5f 92       	push	r13
  16:	6f 92       	push	r14
  18:	7f 92       	push	r15
  1a:	8f 92       	push	r16
  1c:	9f 92       	push	r17
  1e:	af 92       	push	r28
  20:	bf 92       	push	r29

  if (timer2_toggle_count != 0)
  22:	cf 92       	rcall	.+0      	; 0x24 <_Z4tonehjm+0x14>
  24:	df 92       	rcall	.+0      	; 0x26 <_Z4tonehjm+0x16>
  26:	ef 92       	in	r28, 0x3d	; 61
  28:	ff 92       	in	r29, 0x3e	; 62
  2a:	0f 93       	movw	r16, r22
  2c:	1f 93       	movw	r4, r18
  2e:	cf 93       	movw	r6, r20
  30:	df 93 00 d0 	lds	r25, 0x0000
  34:	00 d0       	cp	r25, r24
  36:	cd b7       	breq	.+0      	; 0x38 <_Z4tonehjm+0x28>
  38:	de b7       	cpi	r25, 0xFF	; 255
  {
    // toggle the pin
    *timer2_pin_port ^= timer2_pin_mask;
  3a:	8b 01       	breq	.+0      	; 0x3c <_Z4tonehjm+0x2c>
  3c:	29 01       	rjmp	.+0      	; 0x3e <_Z4tonehjm+0x2e>
  3e:	3a 01       	rjmp	.+0      	; 0x40 <_Z4tonehjm+0x30>
  40:	90 91       	ldi	r30, 0x00	; 0
  42:	00 00       	ldi	r31, 0x00	; 0
  44:	98 17       	lpm	r3, Z
  46:	01 f0       	rjmp	.+0      	; 0x48 <_Z4tonehjm+0x38>
  48:	9f 3f 01 f0 	sts	0x0000, r24

    if (timer2_toggle_count > 0)
  4c:	00 c0       	ldi	r30, 0x00	; 0
  4e:	00 c0       	ldi	r31, 0x00	; 0
  50:	e0 e0       	lpm	r30, Z
  52:	f0 e0       	cpi	r30, 0xFF	; 255
  54:	34 90       	brne	.+0      	; 0x56 <_Z4tonehjm+0x46>
  56:	00 c0       	rjmp	.+0      	; 0x58 <_Z4tonehjm+0x48>
  58:	80 93       	cpi	r30, 0x01	; 1
  5a:	00 00       	breq	.+0      	; 0x5c <_Z4tonehjm+0x4c>
  5c:	e0 e0       	cpi	r30, 0x02	; 2
  5e:	f0 e0       	brne	.+0      	; 0x60 <_Z4tonehjm+0x50>
  60:	e4 91       	rjmp	.+0      	; 0x62 <_Z4tonehjm+0x52>
  62:	ef 3f       	cpse	r30, r1
  64:	01 f4       	rjmp	.+0      	; 0x66 <_Z4tonehjm+0x56>
      timer2_toggle_count--;
  66:	00 c0       	out	0x24, r1	; 36
  68:	e1 30       	out	0x25, r1	; 37
  6a:	01 f0       	in	r25, 0x24	; 36
  6c:	e2 30       	ori	r25, 0x02	; 2
  6e:	01 f4       	out	0x24, r25	; 36
  70:	00 c0       	in	r25, 0x25	; 37
  72:	e1 11       	ori	r25, 0x01	; 1
  74:	00 c0       	out	0x25, r25	; 37
  76:	14 bc       	mov	r18, r24
  78:	15 bc       	ldi	r19, 0x00	; 0
  7a:	94 b5       	movw	r30, r18
  7c:	92 60       	subi	r30, 0x00	; 0
  7e:	94 bd       	sbci	r31, 0x00	; 0
  80:	95 b5       	lpm	r30, Z
  82:	91 60       	ldi	r31, 0x00	; 0
  84:	95 bd       	add	r30, r30
  86:	28 2f       	adc	r31, r31
  88:	30 e0       	subi	r30, 0x00	; 0
  8a:	f9 01       	sbci	r31, 0x00	; 0
  8c:	e0 50       	lpm	r20, Z+
  else
  {
    // need to call noTone() so that the tone_pins[] entry is reset, so the
    // timer gets initialized next time we call tone().
    // XXX: this assumes timer 2 is always the first one used.
    noTone(tone_pins[0]);
  8e:	f0 40       	lpm	r21, Z
  90:	e4 91 f0 e0 	sts	0x0000, r21
  94:	ee 0f ff 1f 	sts	0x0000, r20
//    disableTimer(2);
//    *timer2_pin_port &= ~(timer2_pin_mask);  // keep pin low after stop
  }
}
  98:	e0 50       	movw	r30, r18
  9a:	f0 40       	subi	r30, 0x00	; 0
  9c:	45 91       	sbci	r31, 0x00	; 0
  9e:	54 91       	lpm	r18, Z
  a0:	50 93 00 00 	sts	0x0000, r18
  a4:	40 93       	mov	r3, r1
  a6:	00 00       	rjmp	.+0      	; 0xa8 <_Z4tonehjm+0x98>
  a8:	f9 01 e0 50 	sts	0x0080, r1
  ac:	f0 40 24 91 	sts	0x0081, r1
  b0:	20 93 00 00 	lds	r25, 0x0081
  b4:	31 2c       	ori	r25, 0x08	; 8
  b6:	00 c0 10 92 	sts	0x0081, r25
  ba:	80 00 10 92 	lds	r25, 0x0081
  be:	81 00       	ori	r25, 0x01	; 1
  c0:	90 91 81 00 	sts	0x0081, r25
  c4:	98 60       	mov	r18, r24
  c6:	90 93       	ldi	r19, 0x00	; 0
  c8:	81 00       	movw	r30, r18
  ca:	90 91       	subi	r30, 0x00	; 0
  cc:	81 00       	sbci	r31, 0x00	; 0
  ce:	91 60       	lpm	r30, Z
  d0:	90 93       	ldi	r31, 0x00	; 0
  d2:	81 00       	add	r30, r30
  d4:	28 2f       	adc	r31, r31
  d6:	30 e0       	subi	r30, 0x00	; 0
  d8:	f9 01       	sbci	r31, 0x00	; 0
  da:	e0 50       	lpm	r20, Z+
  dc:	f0 40       	lpm	r21, Z
  de:	e4 91 f0 e0 	sts	0x0000, r21
  e2:	ee 0f ff 1f 	sts	0x0000, r20
  e6:	e0 50       	movw	r30, r18
  e8:	f0 40       	subi	r30, 0x00	; 0
  ea:	45 91       	sbci	r31, 0x00	; 0
  ec:	54 91       	lpm	r18, Z
  ee:	50 93 00 00 	sts	0x0000, r18
  f2:	40 93       	eor	r3, r3
  f4:	00 00       	inc	r3
  f6:	f9 01       	rjmp	.+0      	; 0xf8 <_Z4tonehjm+0xe8>
  f8:	e0 50 f0 40 	sts	0x00B0, r1
  fc:	24 91 20 93 	sts	0x00B1, r1
 100:	00 00 33 24 	lds	r25, 0x00B0
 104:	33 94       	ori	r25, 0x02	; 2
 106:	00 c0 10 92 	sts	0x00B0, r25
 10a:	b0 00 10 92 	lds	r25, 0x00B1
 10e:	b1 00       	ori	r25, 0x01	; 1
 110:	90 91 b0 00 	sts	0x00B1, r25
 114:	92 60       	mov	r18, r24
 116:	90 93       	ldi	r19, 0x00	; 0
 118:	b0 00       	movw	r30, r18
 11a:	90 91       	subi	r30, 0x00	; 0
 11c:	b1 00       	sbci	r31, 0x00	; 0
 11e:	91 60       	lpm	r30, Z
 120:	90 93       	ldi	r31, 0x00	; 0
 122:	b1 00       	add	r30, r30
 124:	28 2f       	adc	r31, r31
 126:	30 e0       	subi	r30, 0x00	; 0
 128:	f9 01       	sbci	r31, 0x00	; 0
 12a:	e0 50       	lpm	r20, Z+
 12c:	f0 40       	lpm	r21, Z
 12e:	e4 91 f0 e0 	sts	0x0000, r21
 132:	ee 0f ff 1f 	sts	0x0000, r20
 136:	e0 50       	movw	r30, r18
 138:	f0 40       	subi	r30, 0x00	; 0
 13a:	45 91       	sbci	r31, 0x00	; 0
 13c:	54 91       	lpm	r18, Z
 13e:	50 93 00 00 	sts	0x0000, r18
 142:	40 93       	ldi	r21, 0x02	; 2
 144:	00 00       	mov	r3, r21
 146:	f9 01       	rjmp	.+0      	; 0x148 <_Z4tonehjm+0x138>
 148:	e0 50       	mov	r3, r30
 14a:	f0 40       	sbrc	r3, 7
 14c:	24 91       	rjmp	.+0      	; 0x14e <_Z4tonehjm+0x13e>
 14e:	20 93       	ldi	r22, 0x01	; 1
 150:	00 00 52 e0 	call	0	; 0x0 <__tmp_reg__>
 154:	35 2e       	movw	r8, r16
 156:	00 c0       	mov	r10, r1
 158:	3e 2e       	mov	r11, r1
 15a:	37 fc       	mov	r24, r3
 15c:	00 c0       	andi	r24, 0xFD	; 253
 15e:	61 e0       	breq	.+0      	; 0x160 <_Z4tonehjm+0x150>
 160:	0e 94       	rjmp	.+0      	; 0x162 <_Z4tonehjm+0x152>
 162:	00 00       	ldi	r22, 0x00	; 0
 164:	48 01       	ldi	r23, 0x12	; 18
 166:	a1 2c       	ldi	r24, 0x7A	; 122
 168:	b1 2c       	ldi	r25, 0x00	; 0
 16a:	83 2d       	movw	r20, r10
 16c:	8d 7f       	movw	r18, r8
 16e:	01 f0 00 c0 	call	0	; 0x0 <__tmp_reg__>
 172:	60 e0       	std	Y+1, r18	; 0x01
 174:	72 e1       	std	Y+2, r19	; 0x02
 176:	8a e7       	std	Y+3, r20	; 0x03
 178:	90 e0       	std	Y+4, r21	; 0x04
 17a:	a5 01       	movw	r12, r18
 17c:	94 01       	movw	r14, r20
 17e:	0e 94       	ldi	r24, 0x01	; 1
 180:	00 00       	sub	r12, r24
 182:	29 83       	sbc	r13, r1
 184:	3a 83       	sbc	r14, r1
 186:	4b 83       	sbc	r15, r1
 188:	5c 83       	ldi	r25, 0xFF	; 255
 18a:	69 01       	cp	r12, r25
 18c:	7a 01       	cpc	r13, r1
 18e:	81 e0       	cpc	r14, r1
 190:	c8 1a       	cpc	r15, r1
 192:	d1 08       	breq	.+0      	; 0x194 <_Z4tonehjm+0x184>
 194:	e1 08       	brcc	.+0      	; 0x196 <_Z4tonehjm+0x186>
 196:	f1 08       	rjmp	.+0      	; 0x198 <_Z4tonehjm+0x188>
 198:	9f ef       	ldi	r22, 0x40	; 64
 19a:	c9 16       	ldi	r23, 0x42	; 66
 19c:	d1 04       	ldi	r24, 0x0F	; 15
 19e:	e1 04       	ldi	r25, 0x00	; 0
 1a0:	f1 04       	movw	r20, r10
 1a2:	01 f0       	movw	r18, r8
 1a4:	00 f4 00 c0 	call	0	; 0x0 <__tmp_reg__>
 1a8:	60 e4       	movw	r12, r18
 1aa:	72 e4       	movw	r14, r20
 1ac:	8f e0       	ldi	r30, 0x01	; 1
 1ae:	90 e0       	sub	r12, r30
 1b0:	a5 01       	sbc	r13, r1
 1b2:	94 01       	sbc	r14, r1
 1b4:	0e 94       	sbc	r15, r1
 1b6:	00 00       	ldi	r31, 0x02	; 2
 1b8:	69 01       	cpse	r3, r31
 1ba:	7a 01       	rjmp	.+0      	; 0x1bc <_Z4tonehjm+0x1ac>
 1bc:	e1 e0       	ldi	r24, 0xFF	; 255
 1be:	ce 1a       	cp	r12, r24
 1c0:	d1 08       	cpc	r13, r1
 1c2:	e1 08       	cpc	r14, r1
 1c4:	f1 08       	cpc	r15, r1
 1c6:	f2 e0       	breq	.+0      	; 0x1c8 <_Z4tonehjm+0x1b8>
 1c8:	3f 12       	brcc	.+0      	; 0x1ca <_Z4tonehjm+0x1ba>
 1ca:	00 c0       	rjmp	.+0      	; 0x1cc <_Z4tonehjm+0x1bc>
 1cc:	8f ef       	ldi	r22, 0x90	; 144
 1ce:	c8 16       	ldi	r23, 0xD0	; 208
 1d0:	d1 04       	ldi	r24, 0x03	; 3
 1d2:	e1 04       	ldi	r25, 0x00	; 0
 1d4:	f1 04       	movw	r20, r10
 1d6:	01 f0       	movw	r18, r8
 1d8:	00 f4 00 c0 	call	0	; 0x0 <__tmp_reg__>
 1dc:	60 e9       	movw	r12, r18
 1de:	70 ed       	movw	r14, r20
 1e0:	83 e0       	ldi	r25, 0x01	; 1
 1e2:	90 e0       	sub	r12, r25
 1e4:	a5 01       	sbc	r13, r1
 1e6:	94 01       	sbc	r14, r1
 1e8:	0e 94       	sbc	r15, r1
 1ea:	00 00       	ldi	r24, 0x03	; 3
 1ec:	69 01       	rjmp	.+0      	; 0x1ee <_Z4tonehjm+0x1de>
 1ee:	7a 01       	ldi	r24, 0x02	; 2
 1f0:	91 e0       	ldi	r30, 0xFF	; 255
 1f2:	c9 1a       	cp	r12, r30
 1f4:	d1 08       	cpc	r13, r1
 1f6:	e1 08       	cpc	r14, r1
 1f8:	f1 08       	cpc	r15, r1
 1fa:	83 e0       	breq	.+0      	; 0x1fc <_Z4tonehjm+0x1ec>
 1fc:	00 c0       	brcc	.+0      	; 0x1fe <_Z4tonehjm+0x1ee>
 1fe:	82 e0       	rjmp	.+0      	; 0x200 <_Z4tonehjm+0x1f0>
 200:	ef ef       	ldi	r22, 0x48	; 72
 202:	ce 16       	ldi	r23, 0xE8	; 232
 204:	d1 04       	ldi	r24, 0x01	; 1
 206:	e1 04       	ldi	r25, 0x00	; 0
 208:	f1 04       	movw	r20, r10
 20a:	01 f0       	movw	r18, r8
 20c:	00 f4 00 c0 	call	0	; 0x0 <__tmp_reg__>
 210:	68 e4       	movw	r12, r18
 212:	78 ee       	movw	r14, r20
 214:	81 e0       	ldi	r31, 0x01	; 1
 216:	90 e0       	sub	r12, r31
 218:	a5 01       	sbc	r13, r1
 21a:	94 01       	sbc	r14, r1
 21c:	0e 94       	sbc	r15, r1
 21e:	00 00       	and	r3, r3
 220:	69 01       	breq	.+0      	; 0x222 <_Z4tonehjm+0x212>
 222:	7a 01       	ldi	r24, 0x02	; 2
 224:	f1 e0       	cpse	r3, r24
 226:	cf 1a       	rjmp	.+0      	; 0x228 <_Z4tonehjm+0x218>
 228:	d1 08       	ldi	r25, 0xFF	; 255
 22a:	e1 08       	cp	r12, r25
 22c:	f1 08       	cpc	r13, r1
 22e:	33 20       	cpc	r14, r1
 230:	01 f0       	cpc	r15, r1
 232:	82 e0       	breq	.+0      	; 0x234 <_Z4tonehjm+0x224>
 234:	38 12       	brcc	.+0      	; 0x236 <_Z4tonehjm+0x226>
 236:	00 c0       	rjmp	.+0      	; 0x238 <_Z4tonehjm+0x228>
 238:	9f ef       	ldi	r22, 0x24	; 36
 23a:	c9 16       	ldi	r23, 0xF4	; 244
 23c:	d1 04       	ldi	r24, 0x00	; 0
 23e:	e1 04       	ldi	r25, 0x00	; 0
 240:	f1 04       	movw	r20, r10
 242:	01 f0       	movw	r18, r8
 244:	00 f4 00 c0 	call	0	; 0x0 <__tmp_reg__>
 248:	64 e2       	movw	r12, r18
 24a:	74 ef       	movw	r14, r20
 24c:	80 e0       	ldi	r30, 0x01	; 1
 24e:	90 e0       	sub	r12, r30
 250:	a5 01       	sbc	r13, r1
 252:	94 01       	sbc	r14, r1
 254:	0e 94       	sbc	r15, r1
 256:	00 00       	ldi	r24, 0x05	; 5
 258:	69 01       	rjmp	.+0      	; 0x25a <_Z4tonehjm+0x24a>
 25a:	7a 01       	ldi	r24, 0x03	; 3
 25c:	e1 e0       	rjmp	.+0      	; 0x25e <_Z4tonehjm+0x24e>
 25e:	ce 1a       	ldi	r24, 0x04	; 4
 260:	d1 08       	ldi	r31, 0xFF	; 255
 262:	e1 08       	cp	r12, r31
 264:	f1 08       	cpc	r13, r1
 266:	85 e0       	cpc	r14, r1
 268:	00 c0       	cpc	r15, r1
 26a:	83 e0       	breq	.+0      	; 0x26c <_Z4tonehjm+0x25c>
 26c:	00 c0       	brcs	.+0      	; 0x26e <_Z4tonehjm+0x25e>
 26e:	84 e0       	ldi	r22, 0x12	; 18
 270:	ff ef       	ldi	r23, 0x7A	; 122
 272:	cf 16       	ldi	r24, 0x00	; 0
 274:	d1 04       	ldi	r25, 0x00	; 0
 276:	e1 04       	movw	r20, r10
 278:	f1 04       	movw	r18, r8
 27a:	01 f0 00 f0 	call	0	; 0x0 <__tmp_reg__>
 27e:	62 e1       	movw	r12, r18
 280:	7a e7       	movw	r14, r20
 282:	80 e0       	ldi	r24, 0x01	; 1
 284:	90 e0       	sub	r12, r24
 286:	a5 01       	sbc	r13, r1
 288:	94 01       	sbc	r14, r1
 28a:	0e 94       	sbc	r15, r1
 28c:	00 00       	cpse	r3, r1
 28e:	69 01       	rjmp	.+0      	; 0x290 <_Z4tonehjm+0x280>
 290:	7a 01       	ldi	r24, 0x04	; 4
 292:	81 e0       	rjmp	.+0      	; 0x294 <_Z4tonehjm+0x284>
 294:	c8 1a       	ldi	r24, 0x06	; 6
 296:	d1 08       	ldi	r25, 0xFF	; 255
 298:	e1 08       	cp	r12, r25
 29a:	f1 08       	cpc	r13, r1
 29c:	31 10       	cpc	r14, r1
 29e:	00 c0       	cpc	r15, r1
 2a0:	84 e0       	breq	.+0      	; 0x2a2 <_Z4tonehjm+0x292>
 2a2:	00 c0       	brcs	.+0      	; 0x2a4 <_Z4tonehjm+0x294>
 2a4:	86 e0       	ldd	r12, Y+1	; 0x01
 2a6:	9f ef       	ldd	r13, Y+2	; 0x02
 2a8:	c9 16       	ldd	r14, Y+3	; 0x03
 2aa:	d1 04       	ldd	r15, Y+4	; 0x04
 2ac:	e1 04       	ldi	r25, 0x0A	; 10
 2ae:	f1 04       	lsr	r15
 2b0:	01 f0       	ror	r14
 2b2:	00 f0       	ror	r13
 2b4:	c9 80       	ror	r12
 2b6:	da 80       	dec	r25
 2b8:	eb 80       	brne	.+0      	; 0x2ba <_Z4tonehjm+0x2aa>
 2ba:	fc 80       	ldi	r30, 0x01	; 1
 2bc:	9a e0       	sub	r12, r30
 2be:	f6 94       	sbc	r13, r1
 2c0:	e7 94       	sbc	r14, r1
 2c2:	d7 94       	sbc	r15, r1
 2c4:	c7 94       	and	r3, r3
 2c6:	9a 95       	breq	.+0      	; 0x2c8 <_Z4tonehjm+0x2b8>
 2c8:	01 f4       	ldi	r24, 0x07	; 7
 2ca:	e1 e0       	rjmp	.+0      	; 0x2cc <_Z4tonehjm+0x2bc>
 2cc:	ce 1a       	ldi	r24, 0x01	; 1
 2ce:	d1 08       	and	r3, r3
 2d0:	e1 08       	breq	.+0      	; 0x2d2 <_Z4tonehjm+0x2c2>
 2d2:	f1 08       	rjmp	.+0      	; 0x2d4 <_Z4tonehjm+0x2c4>
 2d4:	33 20       	ldi	r24, 0x05	; 5
 2d6:	01 f0       	in	r25, 0x25	; 37
 2d8:	87 e0       	andi	r25, 0xF8	; 248
 2da:	00 c0       	or	r25, r24
 2dc:	81 e0       	out	0x25, r25	; 37
 2de:	33 20       	rjmp	.+0      	; 0x2e0 <_Z4tonehjm+0x2d0>
 2e0:	01 f0       	ldi	r24, 0x02	; 2
 2e2:	00 c0 85 e0 	lds	r25, 0x00B1
 2e6:	95 b5       	andi	r25, 0xF8	; 248
 2e8:	98 7f       	or	r25, r24
 2ea:	98 2b 95 bd 	sts	0x00B1, r25
 2ee:	00 c0       	rjmp	.+0      	; 0x2f0 <_Z4tonehjm+0x2e0>
 2f0:	82 e0       	ldi	r22, 0x00	; 0
 2f2:	90 91       	ldi	r23, 0x12	; 18
 2f4:	b1 00       	ldi	r24, 0x7A	; 122
 2f6:	98 7f       	ldi	r25, 0x00	; 0
 2f8:	98 2b       	movw	r20, r10
 2fa:	90 93       	movw	r18, r8
 2fc:	b1 00 00 c0 	call	0	; 0x0 <__tmp_reg__>
 300:	60 e0       	movw	r12, r18
 302:	72 e1       	movw	r14, r20
 304:	8a e7       	ldi	r31, 0x01	; 1
 306:	90 e0       	sub	r12, r31
 308:	a5 01       	sbc	r13, r1
 30a:	94 01       	sbc	r14, r1
 30c:	0e 94       	sbc	r15, r1
 30e:	00 00       	cp	r12, r1
 310:	69 01       	cpc	r13, r1
 312:	7a 01       	ldi	r24, 0x01	; 1
 314:	f1 e0       	cpc	r14, r24
 316:	cf 1a       	cpc	r15, r1
 318:	d1 08       	brcs	.+0      	; 0x31a <_Z4tonehjm+0x30a>
 31a:	e1 08       	ldi	r22, 0x48	; 72
 31c:	f1 08       	ldi	r23, 0xE8	; 232
 31e:	c1 14       	ldi	r24, 0x01	; 1
 320:	d1 04       	ldi	r25, 0x00	; 0
 322:	81 e0       	movw	r20, r10
 324:	e8 06       	movw	r18, r8
 326:	f1 04 00 f0 	call	0	; 0x0 <__tmp_reg__>
 32a:	68 e4       	movw	r12, r18
 32c:	78 ee       	movw	r14, r20
 32e:	81 e0       	ldi	r25, 0x01	; 1
 330:	90 e0       	sub	r12, r25
 332:	a5 01       	sbc	r13, r1
 334:	94 01       	sbc	r14, r1
 336:	0e 94       	sbc	r15, r1
 338:	00 00       	ldi	r25, 0x03	; 3
 33a:	69 01       	rjmp	.+0      	; 0x33c <_Z4tonehjm+0x32c>
 33c:	7a 01       	ldi	r25, 0x01	; 1
 33e:	91 e0       	ldi	r30, 0x01	; 1
 340:	c9 1a       	cpse	r3, r30
 342:	d1 08       	rjmp	.+0      	; 0x344 <_Z4tonehjm+0x334>
 344:	e1 08 f1 08 	lds	r24, 0x0081
 348:	93 e0       	andi	r24, 0xF8	; 248
 34a:	00 c0       	or	r24, r25
 34c:	91 e0 e1 e0 	sts	0x0081, r24
 350:	3e 12       	cp	r4, r1
 352:	00 c0       	cpc	r5, r1
 354:	80 91       	cpc	r6, r1
 356:	81 00       	cpc	r7, r1
 358:	88 7f       	breq	.+0      	; 0x35a <_Z4tonehjm+0x34a>
 35a:	89 2b       	movw	r26, r16
 35c:	80 93       	add	r26, r26
 35e:	81 00       	adc	r27, r27
 360:	41 14       	movw	r20, r6
 362:	51 04       	movw	r18, r4
 364:	61 04 71 04 	call	0	; 0x0 <__tmp_reg__>
 368:	01 f0       	ldi	r18, 0xE8	; 232
 36a:	d8 01       	ldi	r19, 0x03	; 3
 36c:	aa 0f       	ldi	r20, 0x00	; 0
 36e:	bb 1f       	ldi	r21, 0x00	; 0
 370:	a3 01 92 01 	call	0	; 0x0 <__tmp_reg__>
 374:	0e 94       	rjmp	.+0      	; 0x376 <_Z4tonehjm+0x366>
 376:	00 00       	ldi	r18, 0xFF	; 255
 378:	28 ee       	ldi	r19, 0xFF	; 255
 37a:	33 e0       	movw	r20, r18
 37c:	40 e0       	ldi	r31, 0x01	; 1
 37e:	50 e0       	cp	r3, r31
 380:	0e 94       	breq	.+0      	; 0x382 <_Z4tonehjm+0x372>
 382:	00 00       	ldi	r24, 0x02	; 2
 384:	00 c0       	cp	r3, r24
 386:	2f ef       	breq	.+0      	; 0x388 <_Z4tonehjm+0x378>
 388:	3f ef       	cpse	r3, r1
 38a:	a9 01       	rjmp	.+0      	; 0x38c <_Z4tonehjm+0x37c>
 38c:	f1 e0       	out	0x27, r12	; 39
 38e:	3f 16 01 f0 	sts	0x0000, r18
 392:	82 e0 38 16 	sts	0x0000, r19
 396:	01 f0 31 10 	sts	0x0000, r20
 39a:	00 c0 c7 bc 	sts	0x0000, r21
 39e:	20 93 00 00 	lds	r24, 0x006E
 3a2:	30 93       	ori	r24, 0x02	; 2
 3a4:	00 00 40 93 	sts	0x006E, r24
 3a8:	00 00       	rjmp	.+0      	; 0x3aa <_Z4tonehjm+0x39a>
 3aa:	50 93 00 00 	sts	0x0089, r13
 3ae:	80 91 6e 00 	sts	0x0088, r12
 3b2:	82 60 80 93 	sts	0x0000, r18
 3b6:	6e 00 00 c0 	sts	0x0000, r19
 3ba:	d0 92 89 00 	sts	0x0000, r20
 3be:	c0 92 88 00 	sts	0x0000, r21
 3c2:	20 93 00 00 	lds	r24, 0x006F
 3c6:	30 93       	ori	r24, 0x02	; 2
 3c8:	00 00 40 93 	sts	0x006F, r24
 3cc:	00 00       	rjmp	.+0      	; 0x3ce <_Z4tonehjm+0x3be>
 3ce:	50 93 00 00 	sts	0x00B3, r12
 3d2:	80 91 6f 00 	sts	0x0000, r18
 3d6:	82 60 80 93 	sts	0x0000, r19
 3da:	6f 00 00 c0 	sts	0x0000, r20
 3de:	c0 92 b3 00 	sts	0x0000, r21
 3e2:	20 93 00 00 	lds	r24, 0x0070
 3e6:	30 93       	ori	r24, 0x02	; 2
 3e8:	00 00 40 93 	sts	0x0070, r24
 3ec:	00 00       	rjmp	.+0      	; 0x3ee <_Z4tonehjm+0x3de>
 3ee:	50 93       	ldi	r24, 0x04	; 4
 3f0:	00 00       	rjmp	.+0      	; 0x3f2 <_Z4tonehjm+0x3e2>
 3f2:	80 91       	pop	r0
 3f4:	70 00       	pop	r0
 3f6:	82 60       	pop	r0
 3f8:	80 93       	pop	r0
 3fa:	70 00       	pop	r29
 3fc:	00 c0       	pop	r28
 3fe:	84 e0       	pop	r17
 400:	00 c0       	pop	r16
 402:	0f 90       	pop	r15
 404:	0f 90       	pop	r14
 406:	0f 90       	pop	r13
 408:	0f 90       	pop	r12
 40a:	df 91       	pop	r11
 40c:	cf 91       	pop	r10
 40e:	1f 91       	pop	r9
 410:	0f 91       	pop	r8
 412:	ff 90       	pop	r7
 414:	ef 90       	pop	r6
 416:	df 90       	pop	r5
 418:	cf 90       	pop	r4
 41a:	bf 90       	pop	r3
 41c:	af 90       	ret
 41e:	9f 90       	Address 0x000000000000041e is out of bounds.
.word	0xffff	; ????
 420:	8f 90       	Address 0x0000000000000420 is out of bounds.
.word	0xffff	; ????
 422:	7f 90       	Address 0x0000000000000422 is out of bounds.
.word	0xffff	; ????
 424:	6f 90       	Address 0x0000000000000424 is out of bounds.
.word	0xffff	; ????
 426:	5f 90       	Address 0x0000000000000426 is out of bounds.
.word	0xffff	; ????
 428:	4f 90       	Address 0x0000000000000428 is out of bounds.
.word	0xffff	; ????
 42a:	3f 90       	Address 0x000000000000042a is out of bounds.
.word	0xffff	; ????
 42c:	08 95       	Address 0x000000000000042c is out of bounds.
.word	0xffff	; ????

Disassembly of section .text._Z12disableTimerh:

0000043e <_Z12disableTimerh>:
 43e:	81 30       	cpi	r24, 0x01	; 1
 440:	01 f0       	breq	.+0      	; 0x442 <_Z12disableTimerh+0x4>
 442:	00 f0       	brcs	.+0      	; 0x444 <_Z12disableTimerh+0x6>
 444:	82 30       	cpi	r24, 0x02	; 2
 446:	01 f0       	breq	.+0      	; 0x448 <_Z12disableTimerh+0xa>
 448:	08 95       	ret
 44a:	10 92 6e 00 	sts	0x006E, r1
 44e:	08 95       	ret
 450:	80 91 6f 00 	lds	r24, 0x006F
 454:	8d 7f       	andi	r24, 0xFD	; 253
 456:	80 93 6f 00 	sts	0x006F, r24
 45a:	08 95       	ret
 45c:	80 91 70 00 	lds	r24, 0x0070
 460:	8d 7f       	andi	r24, 0xFD	; 253
 462:	80 93 70 00 	sts	0x0070, r24
 466:	81 e0       	ldi	r24, 0x01	; 1
 468:	80 93 b0 00 	sts	0x00B0, r24
 46c:	80 91 b1 00 	lds	r24, 0x00B1
 470:	88 7f       	andi	r24, 0xF8	; 248
 472:	84 60       	ori	r24, 0x04	; 4
 474:	80 93 b1 00 	sts	0x00B1, r24
 478:	10 92 b3 00 	sts	0x00B3, r1
 47c:	08 95       	ret

Disassembly of section .text._Z6noToneh:

000008bc <_Z6noToneh>:
 8bc:	cf 93       	push	r28
 8be:	c8 2f       	mov	r28, r24
 8c0:	80 91 00 00 	lds	r24, 0x0000
 8c4:	8c 13       	cpse	r24, r28
 8c6:	00 c0       	rjmp	.+0      	; 0x8c8 <_Z6noToneh+0xc>
 8c8:	e0 e0       	ldi	r30, 0x00	; 0
 8ca:	f0 e0       	ldi	r31, 0x00	; 0
 8cc:	84 91       	lpm	r24, Z
 8ce:	9f ef       	ldi	r25, 0xFF	; 255
 8d0:	90 93 00 00 	sts	0x0000, r25
 8d4:	00 c0       	rjmp	.+0      	; 0x8d6 <_Z6noToneh+0x1a>
 8d6:	8f ef       	ldi	r24, 0xFF	; 255
 8d8:	0e 94 00 00 	call	0	; 0x0 <__tmp_reg__>
 8dc:	60 e0       	ldi	r22, 0x00	; 0
 8de:	8c 2f       	mov	r24, r28
 8e0:	cf 91       	pop	r28
 8e2:	0c 94 00 00 	jmp	0	; 0x0 <__tmp_reg__>

Disassembly of section .text.__vector_7:

000011a2 <__vector_7>:
    11a2:	1f 92       	push	r1
    11a4:	0f 92       	push	r0
    11a6:	0f b6       	in	r0, 0x3f	; 63
    11a8:	0f 92       	push	r0
    11aa:	11 24       	eor	r1, r1
    11ac:	2f 93       	push	r18
    11ae:	3f 93       	push	r19
    11b0:	4f 93       	push	r20
    11b2:	5f 93       	push	r21
    11b4:	6f 93       	push	r22
    11b6:	7f 93       	push	r23
    11b8:	8f 93       	push	r24
    11ba:	9f 93       	push	r25
    11bc:	af 93       	push	r26
    11be:	bf 93       	push	r27
    11c0:	ef 93       	push	r30
    11c2:	ff 93       	push	r31
    11c4:	80 91 00 00 	lds	r24, 0x0000
    11c8:	90 91 00 00 	lds	r25, 0x0000
    11cc:	a0 91 00 00 	lds	r26, 0x0000
    11d0:	b0 91 00 00 	lds	r27, 0x0000
    11d4:	89 2b       	or	r24, r25
    11d6:	8a 2b       	or	r24, r26
    11d8:	8b 2b       	or	r24, r27
    11da:	01 f0       	breq	.+0      	; 0x11dc <__vector_7+0x3a>
    11dc:	90 91 00 00 	lds	r25, 0x0000
    11e0:	e0 91 00 00 	lds	r30, 0x0000
    11e4:	f0 91 00 00 	lds	r31, 0x0000
    11e8:	80 81       	ld	r24, Z
    11ea:	89 27       	eor	r24, r25
    11ec:	80 83       	st	Z, r24
    11ee:	80 91 00 00 	lds	r24, 0x0000
    11f2:	90 91 00 00 	lds	r25, 0x0000
    11f6:	a0 91 00 00 	lds	r26, 0x0000
    11fa:	b0 91 00 00 	lds	r27, 0x0000
    11fe:	18 16       	cp	r1, r24
    1200:	19 06       	cpc	r1, r25
    1202:	1a 06       	cpc	r1, r26
    1204:	1b 06       	cpc	r1, r27
    1206:	04 f4       	brge	.+0      	; 0x1208 <__vector_7+0x66>
    1208:	80 91 00 00 	lds	r24, 0x0000
    120c:	90 91 00 00 	lds	r25, 0x0000
    1210:	a0 91 00 00 	lds	r26, 0x0000
    1214:	b0 91 00 00 	lds	r27, 0x0000
    1218:	01 97       	sbiw	r24, 0x01	; 1
    121a:	a1 09       	sbc	r26, r1
    121c:	b1 09       	sbc	r27, r1
    121e:	80 93 00 00 	sts	0x0000, r24
    1222:	90 93 00 00 	sts	0x0000, r25
    1226:	a0 93 00 00 	sts	0x0000, r26
    122a:	b0 93 00 00 	sts	0x0000, r27
    122e:	00 c0       	rjmp	.+0      	; 0x1230 <__vector_7+0x8e>
    1230:	80 91 00 00 	lds	r24, 0x0000
    1234:	0e 94 00 00 	call	0	; 0x0 <__tmp_reg__>
    1238:	ff 91       	pop	r31
    123a:	ef 91       	pop	r30
    123c:	bf 91       	pop	r27
    123e:	af 91       	pop	r26
    1240:	9f 91       	pop	r25
    1242:	8f 91       	pop	r24
    1244:	7f 91       	pop	r23
    1246:	6f 91       	pop	r22
    1248:	5f 91       	pop	r21
    124a:	4f 91       	pop	r20
    124c:	3f 91       	pop	r19
    124e:	2f 91       	pop	r18
    1250:	0f 90       	pop	r0
    1252:	0f be       	out	0x3f, r0	; 63
    1254:	0f 90       	pop	r0
    1256:	1f 90       	pop	r1
    1258:	18 95       	reti

USBCore.o:     file format elf32-avr

Sections:
Idx Name          Size      VMA       LMA       File off  Algn
  0 .text         00000000  00000000  00000000  00000034  2**0
                  CONTENTS, ALLOC, LOAD, READONLY, CODE
  1 .data         00000000  00000000  00000000  00000034  2**0
                  CONTENTS, ALLOC, LOAD, DATA
  2 .bss          00000000  00000000  00000000  00000034  2**0
                  ALLOC
  3 .stab         0000069c  00000000  00000000  00000034  2**2
                  CONTENTS, RELOC, READONLY, DEBUGGING
  4 .stabstr      000011ab  00000000  00000000  000006d0  2**0
                  CONTENTS, READONLY, DEBUGGING
  5 .comment      00000012  00000000  00000000  0000187b  2**0
                  CONTENTS, READONLY

WInterrupts.o:     file format elf32-avr

Sections:
Idx Name          Size      VMA       LMA       File off  Algn
  0 .text         00000000  00000000  00000000  00000034  2**0
                  CONTENTS, ALLOC, LOAD, READONLY, CODE
  1 .data         00000000  00000000  00000000  00000034  2**0
                  CONTENTS, ALLOC, LOAD, DATA
  2 .bss          00000000  00000000  00000000  00000034  2**0
                  ALLOC
  3 .stab         000007d4  00000000  00000000  00000034  2**2
                  CONTENTS, RELOC, READONLY, DEBUGGING
  4 .stabstr      00001057  00000000  00000000  00000808  2**0
                  CONTENTS, READONLY, DEBUGGING
  5 .text.nothing 00000002  00000000  00000000  0000185f  2**0
                  CONTENTS, ALLOC, LOAD, READONLY, CODE
  6 .text.attachInterrupt 00000040  00000000  00000000  00001861  2**0
                  CONTENTS, ALLOC, LOAD, RELOC, READONLY, CODE
  7 .text.detachInterrupt 00000024  00000000  00000000  000018a1  2**0
                  CONTENTS, ALLOC, LOAD, RELOC, READONLY, CODE
  8 .text.__vector_1 0000004e  00000000  00000000  000018c5  2**0
                  CONTENTS, ALLOC, LOAD, RELOC, READONLY, CODE
  9 .text.__vector_2 0000004e  00000000  00000000  00001913  2**0
                  CONTENTS, ALLOC, LOAD, RELOC, READONLY, CODE
 10 .data.intFunc 00000004  00000000  00000000  00001961  2**0
                  CONTENTS, ALLOC, LOAD, RELOC, DATA
 11 .comment      00000012  00000000  00000000  00001965  2**0
                  CONTENTS, READONLY

Disassembly of section .text.nothing:

00000000 <nothing>:

ISR(INT0_vect) {
    intFunc[EXTERNAL_INT_0]();
}

ISR(INT1_vect) {
   0:	08 95       	ret

Disassembly of section .text.attachInterrupt:

00000000 <attachInterrupt>:
   2:	82 30       	brcc	.+0      	; 0x4 <attachInterrupt+0x2>
   4:	00 f4       	mov	r30, r24
   6:	e8 2f       	ldi	r31, 0x00	; 0
   8:	f0 e0       	add	r30, r30
   a:	ee 0f       	adc	r31, r31
   c:	ff 1f       	subi	r30, 0x00	; 0
   e:	e0 50       	sbci	r31, 0x00	; 0
  10:	f0 40       	std	Z+1, r23	; 0x01
  12:	71 83       	st	Z, r22
  14:	60 83       	cpi	r24, 0x01	; 1
  16:	81 30       	breq	.+0      	; 0x18 <attachInterrupt+0x16>
  18:	01 f0 80 91 	lds	r24, 0x0069
  1c:	69 00       	andi	r24, 0xFC	; 252
  1e:	8c 7f       	or	r24, r20
  20:	84 2b 80 93 	sts	0x0069, r24
    intFunc[EXTERNAL_INT_1]();
  24:	69 00       	sbi	0x1d, 0	; 29
  26:	e8 9a       	ret
  28:	08 95 80 91 	lds	r24, 0x0069
}
  2c:	69 00       	add	r20, r20
  2e:	44 0f       	adc	r21, r21
  30:	55 1f       	add	r20, r20
  32:	44 0f       	adc	r21, r21
  34:	55 1f       	andi	r24, 0xF3	; 243
  36:	83 7f       	or	r24, r20
  38:	84 2b 80 93 	sts	0x0069, r24
  3c:	69 00       	sbi	0x1d, 1	; 29
  3e:	e9 9a       	ret
  40:	08 95       	Address 0x0000000000000040 is out of bounds.
.word	0xffff	; ????

Disassembly of section .text.detachInterrupt:

00000044 <detachInterrupt>:
  44:	82 30       	cpi	r24, 0x02	; 2
  46:	00 f4       	brcc	.+0      	; 0x48 <detachInterrupt+0x4>
  48:	81 30       	cpi	r24, 0x01	; 1
  4a:	01 f0       	breq	.+0      	; 0x4c <detachInterrupt+0x8>
  4c:	e8 98       	cbi	0x1d, 0	; 29
  4e:	00 c0       	rjmp	.+0      	; 0x50 <detachInterrupt+0xc>
  50:	e9 98       	cbi	0x1d, 1	; 29
  52:	e8 2f       	mov	r30, r24
  54:	f0 e0       	ldi	r31, 0x00	; 0
  56:	ee 0f       	add	r30, r30
  58:	ff 1f       	adc	r31, r31
  5a:	e0 50       	subi	r30, 0x00	; 0
  5c:	f0 40       	sbci	r31, 0x00	; 0
  5e:	80 e0       	ldi	r24, 0x00	; 0
  60:	90 e0       	ldi	r25, 0x00	; 0
  62:	91 83       	std	Z+1, r25	; 0x01
  64:	80 83       	st	Z, r24
  66:	08 95       	ret

Disassembly of section .text.__vector_1:

000000ac <__vector_1>:
  ac:	1f 92       	push	r1
  ae:	0f 92       	push	r0
  b0:	0f b6       	in	r0, 0x3f	; 63
  b2:	0f 92       	push	r0
  b4:	11 24       	eor	r1, r1
  b6:	2f 93       	push	r18
  b8:	3f 93       	push	r19
  ba:	4f 93       	push	r20
  bc:	5f 93       	push	r21
  be:	6f 93       	push	r22
  c0:	7f 93       	push	r23
  c2:	8f 93       	push	r24
  c4:	9f 93       	push	r25
  c6:	af 93       	push	r26
  c8:	bf 93       	push	r27
  ca:	ef 93       	push	r30
  cc:	ff 93       	push	r31
  ce:	e0 91 00 00 	lds	r30, 0x0000
  d2:	f0 91 00 00 	lds	r31, 0x0000
  d6:	09 95       	icall
  d8:	ff 91       	pop	r31
  da:	ef 91       	pop	r30
  dc:	bf 91       	pop	r27
  de:	af 91       	pop	r26
  e0:	9f 91       	pop	r25
  e2:	8f 91       	pop	r24
  e4:	7f 91       	pop	r23
  e6:	6f 91       	pop	r22
  e8:	5f 91       	pop	r21
  ea:	4f 91       	pop	r20
  ec:	3f 91       	pop	r19
  ee:	2f 91       	pop	r18
  f0:	0f 90       	pop	r0
  f2:	0f be       	out	0x3f, r0	; 63
  f4:	0f 90       	pop	r0
  f6:	1f 90       	pop	r1
  f8:	18 95       	reti

Disassembly of section .text.__vector_2:

000001a6 <__vector_2>:
 1a6:	1f 92       	push	r1
 1a8:	0f 92       	push	r0
 1aa:	0f b6       	in	r0, 0x3f	; 63
 1ac:	0f 92       	push	r0
 1ae:	11 24       	eor	r1, r1
 1b0:	2f 93       	push	r18
 1b2:	3f 93       	push	r19
 1b4:	4f 93       	push	r20
 1b6:	5f 93       	push	r21
 1b8:	6f 93       	push	r22
 1ba:	7f 93       	push	r23
 1bc:	8f 93       	push	r24
 1be:	9f 93       	push	r25
 1c0:	af 93       	push	r26
 1c2:	bf 93       	push	r27
 1c4:	ef 93       	push	r30
 1c6:	ff 93       	push	r31
 1c8:	e0 91 00 00 	lds	r30, 0x0000
 1cc:	f0 91 00 00 	lds	r31, 0x0000
 1d0:	09 95       	icall
 1d2:	ff 91       	pop	r31
 1d4:	ef 91       	pop	r30
 1d6:	bf 91       	pop	r27
 1d8:	af 91       	pop	r26
 1da:	9f 91       	pop	r25
 1dc:	8f 91       	pop	r24
 1de:	7f 91       	pop	r23
 1e0:	6f 91       	pop	r22
 1e2:	5f 91       	pop	r21
 1e4:	4f 91       	pop	r20
 1e6:	3f 91       	pop	r19
 1e8:	2f 91       	pop	r18
 1ea:	0f 90       	pop	r0
 1ec:	0f be       	out	0x3f, r0	; 63
 1ee:	0f 90       	pop	r0
 1f0:	1f 90       	pop	r1
 1f2:	18 95       	reti

WMath.o:     file format elf32-avr

Sections:
Idx Name          Size      VMA       LMA       File off  Algn
  0 .text         00000000  00000000  00000000  00000034  2**0
                  CONTENTS, ALLOC, LOAD, READONLY, CODE
  1 .data         00000018  00000000  00000000  00000034  2**0
                  CONTENTS, ALLOC, LOAD, DATA
  2 .bss          00000000  00000000  00000000  0000004c  2**0
                  ALLOC
  3 .stab         00000528  00000000  00000000  0000004c  2**2
                  CONTENTS, RELOC, READONLY, DEBUGGING
  4 .stabstr      00000b11  00000000  00000000  00000574  2**0
                  CONTENTS, READONLY, DEBUGGING
  5 .text._Z10randomSeedm 00000010  00000000  00000000  00001085  2**0
                  CONTENTS, ALLOC, LOAD, RELOC, READONLY, CODE
  6 .text._Z6randoml 00000048  00000000  00000000  00001095  2**0
                  CONTENTS, ALLOC, LOAD, RELOC, READONLY, CODE
  7 .text._Z6randomll 00000038  00000000  00000000  000010dd  2**0
                  CONTENTS, ALLOC, LOAD, RELOC, READONLY, CODE
  8 .text._Z3maplllll 0000008e  00000000  00000000  00001115  2**0
                  CONTENTS, ALLOC, LOAD, RELOC, READONLY, CODE
  9 .text._Z8makeWordj 00000002  00000000  00000000  000011a3  2**0
                  CONTENTS, ALLOC, LOAD, READONLY, CODE
 10 .text._Z8makeWordhh 0000000a  00000000  00000000  000011a5  2**0
                  CONTENTS, ALLOC, LOAD, READONLY, CODE
 11 .comment      00000012  00000000  00000000  000011af  2**0
                  CONTENTS, READONLY

Disassembly of section .text._Z10randomSeedm:

00000000 <_Z10randomSeedm>:
{
  return (x - in_min) * (out_max - out_min) / (in_max - in_min) + out_min;
}

unsigned int makeWord(unsigned int w) { return w; }
unsigned int makeWord(unsigned char h, unsigned char l) { return (h << 8) | l; }
   0:	61 15       	cp	r22, r1
  1a:	71 05       	Address 0x000000000000001a is out of bounds.
.word	0xffff	; ????
  1c:	81 05       	Address 0x000000000000001c is out of bounds.
.word	0xffff	; ????
  1e:	91 05       	Address 0x000000000000001e is out of bounds.
.word	0xffff	; ????
  20:	01 f0       	Address 0x0000000000000020 is out of bounds.
.word	0xffff	; ????
  22:	0c 94       	Address 0x0000000000000022 is out of bounds.
.word	0xffff	; ????
  24:	00 00       	Address 0x0000000000000024 is out of bounds.
.word	0xffff	; ????
  26:	08 95       	Address 0x0000000000000026 is out of bounds.
.word	0xffff	; ????

Disassembly of section .text._Z6randoml:

00000040 <_Z6randoml>:
  40:	cf 93       	push	r28
  42:	df 93       	push	r29
  44:	00 d0       	rcall	.+0      	; 0x46 <_Z6randoml+0x6>
  46:	00 d0       	rcall	.+0      	; 0x48 <_Z6randoml+0x8>
  48:	cd b7       	in	r28, 0x3d	; 61
  4a:	de b7       	in	r29, 0x3e	; 62
  4c:	9b 01       	movw	r18, r22
  4e:	ac 01       	movw	r20, r24
  50:	61 15       	cp	r22, r1
  52:	71 05       	cpc	r23, r1
  54:	81 05       	cpc	r24, r1
  56:	91 05       	cpc	r25, r1
  58:	01 f0       	breq	.+0      	; 0x5a <_Z6randoml+0x1a>
  5a:	69 83       	std	Y+1, r22	; 0x01
  5c:	3a 83       	std	Y+2, r19	; 0x02
  5e:	4b 83       	std	Y+3, r20	; 0x03
  60:	5c 83       	std	Y+4, r21	; 0x04
  62:	0e 94 00 00 	call	0	; 0x0 <__tmp_reg__>
  66:	29 81       	ldd	r18, Y+1	; 0x01
  68:	3a 81       	ldd	r19, Y+2	; 0x02
  6a:	4b 81       	ldd	r20, Y+3	; 0x03
  6c:	5c 81       	ldd	r21, Y+4	; 0x04
  6e:	0e 94 00 00 	call	0	; 0x0 <__tmp_reg__>
  72:	00 c0       	rjmp	.+0      	; 0x74 <_Z6randoml+0x34>
  74:	60 e0       	ldi	r22, 0x00	; 0
  76:	70 e0       	ldi	r23, 0x00	; 0
  78:	cb 01       	movw	r24, r22
  7a:	0f 90       	pop	r0
  7c:	0f 90       	pop	r0
  7e:	0f 90       	pop	r0
  80:	0f 90       	pop	r0
  82:	df 91       	pop	r29
  84:	cf 91       	pop	r28
  86:	08 95       	ret

Disassembly of section .text._Z6randomll:

000000c8 <_Z6randomll>:
  c8:	cf 92       	push	r12
  ca:	df 92       	push	r13
  cc:	ef 92       	push	r14
  ce:	ff 92       	push	r15
  d0:	6b 01       	movw	r12, r22
  d2:	7c 01       	movw	r14, r24
  d4:	62 17       	cp	r22, r18
  d6:	73 07       	cpc	r23, r19
  d8:	84 07       	cpc	r24, r20
  da:	95 07       	cpc	r25, r21
  dc:	04 f4       	brge	.+0      	; 0xde <_Z6randomll+0x16>
  de:	ca 01       	movw	r24, r20
  e0:	b9 01       	movw	r22, r18
  e2:	6c 19       	sub	r22, r12
  e4:	7d 09       	sbc	r23, r13
  e6:	8e 09       	sbc	r24, r14
  e8:	9f 09       	sbc	r25, r15
  ea:	0e 94 00 00 	call	0	; 0x0 <__tmp_reg__>
  ee:	6c 0d       	add	r22, r12
  f0:	7d 1d       	adc	r23, r13
  f2:	8e 1d       	adc	r24, r14
  f4:	9f 1d       	adc	r25, r15
  f6:	ff 90       	pop	r15
  f8:	ef 90       	pop	r14
  fa:	df 90       	pop	r13
  fc:	cf 90       	pop	r12
  fe:	08 95       	ret

Disassembly of section .text._Z3maplllll:

000001c8 <_Z3maplllll>:
 1c8:	4f 92       	push	r4
 1ca:	5f 92       	push	r5
 1cc:	6f 92       	push	r6
 1ce:	7f 92       	push	r7
 1d0:	af 92       	push	r10
 1d2:	bf 92       	push	r11
 1d4:	cf 92       	push	r12
 1d6:	df 92       	push	r13
 1d8:	ef 92       	push	r14
 1da:	ff 92       	push	r15
 1dc:	0f 93       	push	r16
 1de:	1f 93       	push	r17
 1e0:	cf 93       	push	r28
 1e2:	df 93       	push	r29
 1e4:	cd b7       	in	r28, 0x3d	; 61
 1e6:	de b7       	in	r29, 0x3e	; 62
 1e8:	29 01       	movw	r4, r18
 1ea:	3a 01       	movw	r6, r20
 1ec:	62 1b       	sub	r22, r18
 1ee:	73 0b       	sbc	r23, r19
 1f0:	84 0b       	sbc	r24, r20
 1f2:	95 0b       	sbc	r25, r21
 1f4:	29 89       	ldd	r18, Y+17	; 0x11
 1f6:	3a 89       	ldd	r19, Y+18	; 0x12
 1f8:	4b 89       	ldd	r20, Y+19	; 0x13
 1fa:	5c 89       	ldd	r21, Y+20	; 0x14
 1fc:	2a 19       	sub	r18, r10
 1fe:	3b 09       	sbc	r19, r11
 200:	4c 09       	sbc	r20, r12
 202:	5d 09       	sbc	r21, r13
 204:	29 8b       	std	Y+17, r18	; 0x11
 206:	3a 8b       	std	Y+18, r19	; 0x12
 208:	4b 8b       	std	Y+19, r20	; 0x13
 20a:	5c 8b       	std	Y+20, r21	; 0x14
 20c:	9b 01       	movw	r18, r22
 20e:	ac 01       	movw	r20, r24
 210:	69 89       	ldd	r22, Y+17	; 0x11
 212:	7a 89       	ldd	r23, Y+18	; 0x12
 214:	8b 89       	ldd	r24, Y+19	; 0x13
 216:	9c 89       	ldd	r25, Y+20	; 0x14
 218:	0e 94 00 00 	call	0	; 0x0 <__tmp_reg__>
 21c:	e4 18       	sub	r14, r4
 21e:	f5 08       	sbc	r15, r5
 220:	06 09       	sbc	r16, r6
 222:	17 09       	sbc	r17, r7
 224:	a8 01       	movw	r20, r16
 226:	97 01       	movw	r18, r14
 228:	0e 94 00 00 	call	0	; 0x0 <__tmp_reg__>
 22c:	2a 0d       	add	r18, r10
 22e:	3b 1d       	adc	r19, r11
 230:	4c 1d       	adc	r20, r12
 232:	5d 1d       	adc	r21, r13
 234:	ca 01       	movw	r24, r20
 236:	b9 01       	movw	r22, r18
 238:	df 91       	pop	r29
 23a:	cf 91       	pop	r28
 23c:	1f 91       	pop	r17
 23e:	0f 91       	pop	r16
 240:	ff 90       	pop	r15
 242:	ef 90       	pop	r14
 244:	df 90       	pop	r13
 246:	cf 90       	pop	r12
 248:	bf 90       	pop	r11
 24a:	af 90       	pop	r10
 24c:	7f 90       	pop	r7
 24e:	6f 90       	pop	r6
 250:	5f 90       	pop	r5
 252:	4f 90       	pop	r4
 254:	08 95       	ret

Disassembly of section .text._Z8makeWordj:

0000041e <_Z8makeWordj>:
 41e:	08 95       	ret

Disassembly of section .text._Z8makeWordhh:

0000083e <_Z8makeWordhh>:
 83e:	70 e0       	ldi	r23, 0x00	; 0
 840:	9b 01       	movw	r18, r22
 842:	38 2b       	or	r19, r24
 844:	c9 01       	movw	r24, r18
 846:	08 95       	ret

WString.o:     file format elf32-avr

Sections:
Idx Name          Size      VMA       LMA       File off  Algn
  0 .text         00000000  00000000  00000000  00000034  2**0
                  CONTENTS, ALLOC, LOAD, READONLY, CODE
  1 .data         00000134  00000000  00000000  00000034  2**0
                  CONTENTS, ALLOC, LOAD, DATA
  2 .bss          00000000  00000000  00000000  00000168  2**0
                  ALLOC
  3 .stab         00002acc  00000000  00000000  00000168  2**2
                  CONTENTS, RELOC, READONLY, DEBUGGING
  4 .stabstr      00002468  00000000  00000000  00002c34  2**0
                  CONTENTS, READONLY, DEBUGGING
  5 .text._ZN6StringD2Ev 0000000a  00000000  00000000  0000509c  2**0
                  CONTENTS, ALLOC, LOAD, RELOC, READONLY, CODE
  6 .text._ZN6String10invalidateEv 00000024  00000000  00000000  000050a6  2**0
                  CONTENTS, ALLOC, LOAD, RELOC, READONLY, CODE
  7 .text._ZN6String12changeBufferEj 00000034  00000000  00000000  000050ca  2**0
                  CONTENTS, ALLOC, LOAD, RELOC, READONLY, CODE
  8 .text._ZN6String7reserveEj 00000038  00000000  00000000  000050fe  2**0
                  CONTENTS, ALLOC, LOAD, RELOC, READONLY, CODE
  9 .text._ZN6String4copyEPKcj 00000042  00000000  00000000  00005136  2**0
                  CONTENTS, ALLOC, LOAD, RELOC, READONLY, CODE
 10 .text._ZN6StringC2EPKc 0000002c  00000000  00000000  00005178  2**0
                  CONTENTS, ALLOC, LOAD, RELOC, READONLY, CODE
 11 .text._ZN6String4copyEPK19__FlashStringHelperj 00000042  00000000  00000000  000051a4  2**0
                  CONTENTS, ALLOC, LOAD, RELOC, READONLY, CODE
 12 .text._ZN6StringaSERKS_ 0000002e  00000000  00000000  000051e6  2**0
                  CONTENTS, ALLOC, LOAD, RELOC, READONLY, CODE
 13 .text._ZN6StringC2ERKS_ 00000012  00000000  00000000  00005214  2**0
                  CONTENTS, ALLOC, LOAD, RELOC, READONLY, CODE
 14 .text._ZN6StringaSEPKc 00000030  00000000  00000000  00005226  2**0
                  CONTENTS, ALLOC, LOAD, RELOC, READONLY, CODE
 15 .text._ZN6StringC2Ec 00000030  00000000  00000000  00005256  2**0
                  CONTENTS, ALLOC, LOAD, RELOC, READONLY, CODE
 16 .text._ZN6StringC2Ehh 0000005a  00000000  00000000  00005286  2**0
                  CONTENTS, ALLOC, LOAD, RELOC, READONLY, CODE
 17 .text._ZN6StringC2Eih 00000058  00000000  00000000  000052e0  2**0
                  CONTENTS, ALLOC, LOAD, RELOC, READONLY, CODE
 18 .text._ZN6StringC2Ejh 00000058  00000000  00000000  00005338  2**0
                  CONTENTS, ALLOC, LOAD, RELOC, READONLY, CODE
 19 .text._ZN6StringC2Elh 0000005a  00000000  00000000  00005390  2**0
                  CONTENTS, ALLOC, LOAD, RELOC, READONLY, CODE
 20 .text._ZN6StringC2Emh 0000005a  00000000  00000000  000053ea  2**0
                  CONTENTS, ALLOC, LOAD, RELOC, READONLY, CODE
 21 .text._ZN6StringC2Efh 00000060  00000000  00000000  00005444  2**0
                  CONTENTS, ALLOC, LOAD, RELOC, READONLY, CODE
 22 .text._ZN6StringC2Edh 00000060  00000000  00000000  000054a4  2**0
                  CONTENTS, ALLOC, LOAD, RELOC, READONLY, CODE
 23 .text._ZN6StringaSEPK19__FlashStringHelper 00000042  00000000  00000000  00005504  2**0
                  CONTENTS, ALLOC, LOAD, RELOC, READONLY, CODE
 24 .text._ZN6StringC2EPK19__FlashStringHelper 00000012  00000000  00000000  00005546  2**0
                  CONTENTS, ALLOC, LOAD, RELOC, READONLY, CODE
 25 .text._ZN6String6concatEPKcj 00000058  00000000  00000000  00005558  2**0
                  CONTENTS, ALLOC, LOAD, RELOC, READONLY, CODE
 26 .text._ZN6String6concatERKS_ 0000000e  00000000  00000000  000055b0  2**0
                  CONTENTS, ALLOC, LOAD, RELOC, READONLY, CODE
 27 .text._ZN6String6concatEPKc 00000020  00000000  00000000  000055be  2**0
                  CONTENTS, ALLOC, LOAD, RELOC, READONLY, CODE
 28 .text._ZN6String6concatEc 00000026  00000000  00000000  000055de  2**0
                  CONTENTS, ALLOC, LOAD, RELOC, READONLY, CODE
 29 .text._ZN6String6concatEh 0000005a  00000000  00000000  00005604  2**0
                  CONTENTS, ALLOC, LOAD, RELOC, READONLY, CODE
 30 .text._ZN6String6concatEi 00000064  00000000  00000000  0000565e  2**0
                  CONTENTS, ALLOC, LOAD, RELOC, READONLY, CODE
 31 .text._ZN6String6concatEj 00000064  00000000  00000000  000056c2  2**0
                  CONTENTS, ALLOC, LOAD, RELOC, READONLY, CODE
 32 .text._ZN6String6concatEl 00000066  00000000  00000000  00005726  2**0
                  CONTENTS, ALLOC, LOAD, RELOC, READONLY, CODE
 33 .text._ZN6String6concatEm 00000066  00000000  00000000  0000578c  2**0
                  CONTENTS, ALLOC, LOAD, RELOC, READONLY, CODE
 34 .text._ZN6String6concatEf 00000064  00000000  00000000  000057f2  2**0
                  CONTENTS, ALLOC, LOAD, RELOC, READONLY, CODE
 35 .text._ZN6String6concatEd 00000064  00000000  00000000  00005856  2**0
                  CONTENTS, ALLOC, LOAD, RELOC, READONLY, CODE
 36 .text._ZN6String6concatEPK19__FlashStringHelper 0000005e  00000000  00000000  000058ba  2**0
                  CONTENTS, ALLOC, LOAD, RELOC, READONLY, CODE
 37 .text._ZplRK15StringSumHelperRK6String 00000026  00000000  00000000  00005918  2**0
                  CONTENTS, ALLOC, LOAD, RELOC, READONLY, CODE
 38 .text._ZplRK15StringSumHelperPKc 00000034  00000000  00000000  0000593e  2**0
                  CONTENTS, ALLOC, LOAD, RELOC, READONLY, CODE
 39 .text._ZplRK15StringSumHelperc 0000001c  00000000  00000000  00005972  2**0
                  CONTENTS, ALLOC, LOAD, RELOC, READONLY, CODE
 40 .text._ZplRK15StringSumHelperh 0000001c  00000000  00000000  0000598e  2**0
                  CONTENTS, ALLOC, LOAD, RELOC, READONLY, CODE
 41 .text._ZplRK15StringSumHelperi 0000001c  00000000  00000000  000059aa  2**0
                  CONTENTS, ALLOC, LOAD, RELOC, READONLY, CODE
 42 .text._ZplRK15StringSumHelperj 0000001c  00000000  00000000  000059c6  2**0
                  CONTENTS, ALLOC, LOAD, RELOC, READONLY, CODE
 43 .text._ZplRK15StringSumHelperl 0000001c  00000000  00000000  000059e2  2**0
                  CONTENTS, ALLOC, LOAD, RELOC, READONLY, CODE
 44 .text._ZplRK15StringSumHelperm 0000001c  00000000  00000000  000059fe  2**0
                  CONTENTS, ALLOC, LOAD, RELOC, READONLY, CODE
 45 .text._ZplRK15StringSumHelperf 0000001c  00000000  00000000  00005a1a  2**0
                  CONTENTS, ALLOC, LOAD, RELOC, READONLY, CODE
 46 .text._ZplRK15StringSumHelperd 0000001c  00000000  00000000  00005a36  2**0
                  CONTENTS, ALLOC, LOAD, RELOC, READONLY, CODE
 47 .text._ZplRK15StringSumHelperPK19__FlashStringHelper 0000001c  00000000  00000000  00005a52  2**0
                  CONTENTS, ALLOC, LOAD, RELOC, READONLY, CODE
 48 .text._ZNK6String9compareToERKS_ 00000060  00000000  00000000  00005a6e  2**0
                  CONTENTS, ALLOC, LOAD, RELOC, READONLY, CODE
 49 .text._ZNK6String6equalsERKS_ 00000026  00000000  00000000  00005ace  2**0
                  CONTENTS, ALLOC, LOAD, RELOC, READONLY, CODE
 50 .text._ZNK6String6equalsEPKc 0000003e  00000000  00000000  00005af4  2**0
                  CONTENTS, ALLOC, LOAD, RELOC, READONLY, CODE
 51 .text._ZNK6StringltERKS_ 0000000e  00000000  00000000  00005b32  2**0
                  CONTENTS, ALLOC, LOAD, RELOC, READONLY, CODE
 52 .text._ZNK6StringgtERKS_ 00000012  00000000  00000000  00005b40  2**0
                  CONTENTS, ALLOC, LOAD, RELOC, READONLY, CODE
 53 .text._ZNK6StringleERKS_ 00000012  00000000  00000000  00005b52  2**0
                  CONTENTS, ALLOC, LOAD, RELOC, READONLY, CODE
 54 .text._ZNK6StringgeERKS_ 00000010  00000000  00000000  00005b64  2**0
                  CONTENTS, ALLOC, LOAD, RELOC, READONLY, CODE
 55 .text._ZNK6String16equalsIgnoreCaseERKS_ 0000006a  00000000  00000000  00005b74  2**0
                  CONTENTS, ALLOC, LOAD, RELOC, READONLY, CODE
 56 .text._ZNK6String10startsWithERKS_j 00000048  00000000  00000000  00005bde  2**0
                  CONTENTS, ALLOC, LOAD, RELOC, READONLY, CODE
 57 .text._ZNK6String10startsWithERKS_ 0000001e  00000000  00000000  00005c26  2**0
                  CONTENTS, ALLOC, LOAD, RELOC, READONLY, CODE
 58 .text._ZNK6String8endsWithERKS_ 00000042  00000000  00000000  00005c44  2**0
                  CONTENTS, ALLOC, LOAD, RELOC, READONLY, CODE
 59 .text._ZN6String9setCharAtEjc 0000001c  00000000  00000000  00005c86  2**0
                  CONTENTS, ALLOC, LOAD, RELOC, READONLY, CODE
 60 .text._ZN6StringixEj 00000024  00000000  00000000  00005ca2  2**0
                  CONTENTS, ALLOC, LOAD, RELOC, READONLY, CODE
 61 .text._ZNK6StringixEj 00000022  00000000  00000000  00005cc6  2**0
                  CONTENTS, ALLOC, LOAD, RELOC, READONLY, CODE
 62 .text._ZNK6String6charAtEj 00000004  00000000  00000000  00005ce8  2**0
                  CONTENTS, ALLOC, LOAD, RELOC, READONLY, CODE
 63 .text._ZNK6String8getBytesEPhjj 00000054  00000000  00000000  00005cec  2**0
                  CONTENTS, ALLOC, LOAD, RELOC, READONLY, CODE
 64 .text._ZNK6String7indexOfEcj 00000034  00000000  00000000  00005d40  2**0
                  CONTENTS, ALLOC, LOAD, RELOC, READONLY, CODE
 65 .text._ZNK6String7indexOfEc 00000008  00000000  00000000  00005d74  2**0
                  CONTENTS, ALLOC, LOAD, RELOC, READONLY, CODE
 66 .text._ZNK6String7indexOfERKS_j 00000038  00000000  00000000  00005d7c  2**0
                  CONTENTS, ALLOC, LOAD, RELOC, READONLY, CODE
 67 .text._ZNK6String7indexOfERKS_ 00000008  00000000  00000000  00005db4  2**0
                  CONTENTS, ALLOC, LOAD, RELOC, READONLY, CODE
 68 .text._ZNK6String11lastIndexOfEcj 00000062  00000000  00000000  00005dbc  2**0
                  CONTENTS, ALLOC, LOAD, RELOC, READONLY, CODE
 69 .text._ZNK6String11lastIndexOfEc 0000000e  00000000  00000000  00005e1e  2**0
                  CONTENTS, ALLOC, LOAD, RELOC, READONLY, CODE
 70 .text._ZNK6String11lastIndexOfERKS_j 0000009c  00000000  00000000  00005e2c  2**0
                  CONTENTS, ALLOC, LOAD, RELOC, READONLY, CODE
 71 .text._ZNK6String11lastIndexOfERKS_ 00000014  00000000  00000000  00005ec8  2**0
                  CONTENTS, ALLOC, LOAD, RELOC, READONLY, CODE
 72 .rodata.str1.1 00000001  00000000  00000000  00005edc  2**0
                  CONTENTS, ALLOC, LOAD, READONLY, DATA
 73 .text._ZNK6String9substringEjj 0000008a  00000000  00000000  00005edd  2**0
                  CONTENTS, ALLOC, LOAD, RELOC, READONLY, CODE
 74 .text._ZN6String7replaceEcc 0000001c  00000000  00000000  00005f67  2**0
                  CONTENTS, ALLOC, LOAD, RELOC, READONLY, CODE
 75 .text._ZN6String7replaceERKS_S1_ 000001e6  00000000  00000000  00005f83  2**0
                  CONTENTS, ALLOC, LOAD, RELOC, READONLY, CODE
 76 .text._ZN6String6removeEjj 0000005c  00000000  00000000  00006169  2**0
                  CONTENTS, ALLOC, LOAD, RELOC, READONLY, CODE
 77 .text._ZN6String6removeEj 00000008  00000000  00000000  000061c5  2**0
                  CONTENTS, ALLOC, LOAD, RELOC, READONLY, CODE
 78 .text._ZN6String11toLowerCaseEv 00000024  00000000  00000000  000061cd  2**0
                  CONTENTS, ALLOC, LOAD, RELOC, READONLY, CODE
 79 .text._ZN6String11toUpperCaseEv 00000024  00000000  00000000  000061f1  2**0
                  CONTENTS, ALLOC, LOAD, RELOC, READONLY, CODE
 80 .text._ZN6String4trimEv 000000b4  00000000  00000000  00006215  2**0
                  CONTENTS, ALLOC, LOAD, RELOC, READONLY, CODE
 81 .text._ZNK6String5toIntEv 00000016  00000000  00000000  000062c9  2**0
                  CONTENTS, ALLOC, LOAD, RELOC, READONLY, CODE
 82 .text._ZNK6String7toFloatEv 00000016  00000000  00000000  000062df  2**0
                  CONTENTS, ALLOC, LOAD, RELOC, READONLY, CODE
 83 .bss._ZZN6StringixEjE19dummy_writable_char 00000001  00000000  00000000  000062f5  2**0
                  ALLOC
 84 .comment      00000012  00000000  00000000  000062f5  2**0
                  CONTENTS, READONLY

Disassembly of section .text._ZN6StringD2Ev:

00000000 <_ZN6StringD1Ev>:
	return 0;
}

float String::toFloat(void) const
{
	if (buffer) return float(atof(buffer));
   0:	fc 01       	movw	r30, r24
	return 0;
}
 136:	80 81       	Address 0x0000000000000136 is out of bounds.
.word	0xffff	; ????
 138:	91 81       	Address 0x0000000000000138 is out of bounds.
.word	0xffff	; ????
 13a:	0c 94       	Address 0x000000000000013a is out of bounds.
.word	0xffff	; ????
	...

Disassembly of section .text._ZN6String10invalidateEv:

00000272 <_ZN6String10invalidateEv>:
 272:	cf 93       	push	r28
 274:	df 93       	push	r29
 276:	ec 01       	movw	r28, r24
 278:	88 81       	ld	r24, Y
 27a:	99 81       	ldd	r25, Y+1	; 0x01
 27c:	00 97       	sbiw	r24, 0x00	; 0
 27e:	01 f0       	breq	.+0      	; 0x280 <_ZN6String10invalidateEv+0xe>
 280:	0e 94 00 00 	call	0	; 0x0 <__tmp_reg__>
 284:	19 82       	std	Y+1, r1	; 0x01
 286:	18 82       	st	Y, r1
 288:	1d 82       	std	Y+5, r1	; 0x05
 28a:	1c 82       	std	Y+4, r1	; 0x04
 28c:	1b 82       	std	Y+3, r1	; 0x03
 28e:	1a 82       	std	Y+2, r1	; 0x02
 290:	df 91       	pop	r29
 292:	cf 91       	pop	r28
 294:	08 95       	ret

Disassembly of section .text._ZN6String12changeBufferEj:

00000508 <_ZN6String12changeBufferEj>:
 508:	0f 93       	push	r16
 50a:	1f 93       	push	r17
 50c:	cf 93       	push	r28
 50e:	df 93       	push	r29
 510:	ec 01       	movw	r28, r24
 512:	8b 01       	movw	r16, r22
 514:	6f 5f       	subi	r22, 0xFF	; 255
 516:	7f 4f       	sbci	r23, 0xFF	; 255
 518:	88 81       	ld	r24, Y
 51a:	99 81       	ldd	r25, Y+1	; 0x01
 51c:	0e 94 00 00 	call	0	; 0x0 <__tmp_reg__>
 520:	00 97       	sbiw	r24, 0x00	; 0
 522:	01 f0       	breq	.+0      	; 0x524 <_ZN6String12changeBufferEj+0x1c>
 524:	99 83       	std	Y+1, r25	; 0x01
 526:	88 83       	st	Y, r24
 528:	1b 83       	std	Y+3, r17	; 0x03
 52a:	0a 83       	std	Y+2, r16	; 0x02
 52c:	81 e0       	ldi	r24, 0x01	; 1
 52e:	00 c0       	rjmp	.+0      	; 0x530 <_ZN6String12changeBufferEj+0x28>
 530:	80 e0       	ldi	r24, 0x00	; 0
 532:	df 91       	pop	r29
 534:	cf 91       	pop	r28
 536:	1f 91       	pop	r17
 538:	0f 91       	pop	r16
 53a:	08 95       	ret

Disassembly of section .text._ZN6String7reserveEj:

00000a44 <_ZN6String7reserveEj>:
 a44:	cf 93       	push	r28
 a46:	df 93       	push	r29
 a48:	ec 01       	movw	r28, r24
 a4a:	88 81       	ld	r24, Y
 a4c:	99 81       	ldd	r25, Y+1	; 0x01
 a4e:	89 2b       	or	r24, r25
 a50:	01 f0       	breq	.+0      	; 0xa52 <_ZN6String7reserveEj+0xe>
 a52:	8a 81       	ldd	r24, Y+2	; 0x02
 a54:	9b 81       	ldd	r25, Y+3	; 0x03
 a56:	86 17       	cp	r24, r22
 a58:	97 07       	cpc	r25, r23
 a5a:	00 f4       	brcc	.+0      	; 0xa5c <_ZN6String7reserveEj+0x18>
 a5c:	ce 01       	movw	r24, r28
 a5e:	0e 94 00 00 	call	0	; 0x0 <__tmp_reg__>
 a62:	88 23       	and	r24, r24
 a64:	01 f0       	breq	.+0      	; 0xa66 <_ZN6String7reserveEj+0x22>
 a66:	8c 81       	ldd	r24, Y+4	; 0x04
 a68:	9d 81       	ldd	r25, Y+5	; 0x05
 a6a:	89 2b       	or	r24, r25
 a6c:	01 f4       	brne	.+0      	; 0xa6e <_ZN6String7reserveEj+0x2a>
 a6e:	e8 81       	ld	r30, Y
 a70:	f9 81       	ldd	r31, Y+1	; 0x01
 a72:	10 82       	st	Z, r1
 a74:	81 e0       	ldi	r24, 0x01	; 1
 a76:	df 91       	pop	r29
 a78:	cf 91       	pop	r28
 a7a:	08 95       	ret

Disassembly of section .text._ZN6String4copyEPKcj:

000014c0 <_ZN6String4copyEPKcj>:
    14c0:	ef 92       	push	r14
    14c2:	ff 92       	push	r15
    14c4:	0f 93       	push	r16
    14c6:	1f 93       	push	r17
    14c8:	cf 93       	push	r28
    14ca:	df 93       	push	r29
    14cc:	ec 01       	movw	r28, r24
    14ce:	7b 01       	movw	r14, r22
    14d0:	8a 01       	movw	r16, r20
    14d2:	ba 01       	movw	r22, r20
    14d4:	0e 94 00 00 	call	0	; 0x0 <__tmp_reg__>
    14d8:	81 11       	cpse	r24, r1
    14da:	00 c0       	rjmp	.+0      	; 0x14dc <_ZN6String4copyEPKcj+0x1c>
    14dc:	ce 01       	movw	r24, r28
    14de:	0e 94 00 00 	call	0	; 0x0 <__tmp_reg__>
    14e2:	00 c0       	rjmp	.+0      	; 0x14e4 <_ZN6String4copyEPKcj+0x24>
    14e4:	1d 83       	std	Y+5, r17	; 0x05
    14e6:	0c 83       	std	Y+4, r16	; 0x04
    14e8:	b7 01       	movw	r22, r14
    14ea:	88 81       	ld	r24, Y
    14ec:	99 81       	ldd	r25, Y+1	; 0x01
    14ee:	0e 94 00 00 	call	0	; 0x0 <__tmp_reg__>
    14f2:	ce 01       	movw	r24, r28
    14f4:	df 91       	pop	r29
    14f6:	cf 91       	pop	r28
    14f8:	1f 91       	pop	r17
    14fa:	0f 91       	pop	r16
    14fc:	ff 90       	pop	r15
    14fe:	ef 90       	pop	r14
    1500:	08 95       	ret

Disassembly of section .text._ZN6StringC2EPKc:

000029c2 <_ZN6StringC1EPKc>:
    29c2:	fc 01       	movw	r30, r24
    29c4:	11 82       	std	Z+1, r1	; 0x01
    29c6:	10 82       	st	Z, r1
    29c8:	13 82       	std	Z+3, r1	; 0x03
    29ca:	12 82       	std	Z+2, r1	; 0x02
    29cc:	15 82       	std	Z+5, r1	; 0x05
    29ce:	14 82       	std	Z+4, r1	; 0x04
    29d0:	61 15       	cp	r22, r1
    29d2:	71 05       	cpc	r23, r1
    29d4:	01 f0       	breq	.+0      	; 0x29d6 <_ZN6StringC1EPKc+0x14>
    29d6:	fb 01       	movw	r30, r22
    29d8:	01 90       	ld	r0, Z+
    29da:	00 20       	and	r0, r0
    29dc:	01 f4       	brne	.+0      	; 0x29de <_ZN6StringC1EPKc+0x1c>
    29de:	af 01       	movw	r20, r30
    29e0:	41 50       	subi	r20, 0x01	; 1
    29e2:	51 09       	sbc	r21, r1
    29e4:	46 1b       	sub	r20, r22
    29e6:	57 0b       	sbc	r21, r23
    29e8:	0c 94 00 00 	jmp	0	; 0x0 <__tmp_reg__>
    29ec:	08 95       	ret

Disassembly of section .text._ZN6String4copyEPK19__FlashStringHelperj:

000053b0 <_ZN6String4copyEPK19__FlashStringHelperj>:
    53b0:	ef 92       	push	r14
    53b2:	ff 92       	push	r15
    53b4:	0f 93       	push	r16
    53b6:	1f 93       	push	r17
    53b8:	cf 93       	push	r28
    53ba:	df 93       	push	r29
    53bc:	ec 01       	movw	r28, r24
    53be:	7b 01       	movw	r14, r22
    53c0:	8a 01       	movw	r16, r20
    53c2:	ba 01       	movw	r22, r20
    53c4:	0e 94 00 00 	call	0	; 0x0 <__tmp_reg__>
    53c8:	81 11       	cpse	r24, r1
    53ca:	00 c0       	rjmp	.+0      	; 0x53cc <_ZN6String4copyEPK19__FlashStringHelperj+0x1c>
    53cc:	ce 01       	movw	r24, r28
    53ce:	0e 94 00 00 	call	0	; 0x0 <__tmp_reg__>
    53d2:	00 c0       	rjmp	.+0      	; 0x53d4 <_ZN6String4copyEPK19__FlashStringHelperj+0x24>
    53d4:	1d 83       	std	Y+5, r17	; 0x05
    53d6:	0c 83       	std	Y+4, r16	; 0x04
    53d8:	b7 01       	movw	r22, r14
    53da:	88 81       	ld	r24, Y
    53dc:	99 81       	ldd	r25, Y+1	; 0x01
    53de:	0e 94 00 00 	call	0	; 0x0 <__tmp_reg__>
    53e2:	ce 01       	movw	r24, r28
    53e4:	df 91       	pop	r29
    53e6:	cf 91       	pop	r28
    53e8:	1f 91       	pop	r17
    53ea:	0f 91       	pop	r16
    53ec:	ff 90       	pop	r15
    53ee:	ef 90       	pop	r14
    53f0:	08 95       	ret

Disassembly of section .text._ZN6StringaSERKS_:

0000a7a2 <_ZN6StringaSERKS_>:
    a7a2:	cf 93       	push	r28
    a7a4:	df 93       	push	r29
    a7a6:	ec 01       	movw	r28, r24
    a7a8:	fb 01       	movw	r30, r22
    a7aa:	86 17       	cp	r24, r22
    a7ac:	97 07       	cpc	r25, r23
    a7ae:	01 f0       	breq	.+0      	; 0xa7b0 <_ZN6StringaSERKS_+0xe>
    a7b0:	60 81       	ld	r22, Z
    a7b2:	71 81       	ldd	r23, Z+1	; 0x01
    a7b4:	61 15       	cp	r22, r1
    a7b6:	71 05       	cpc	r23, r1
    a7b8:	01 f0       	breq	.+0      	; 0xa7ba <_ZN6StringaSERKS_+0x18>
    a7ba:	44 81       	ldd	r20, Z+4	; 0x04
    a7bc:	55 81       	ldd	r21, Z+5	; 0x05
    a7be:	0e 94 00 00 	call	0	; 0x0 <__tmp_reg__>
    a7c2:	00 c0       	rjmp	.+0      	; 0xa7c4 <_ZN6StringaSERKS_+0x22>
    a7c4:	0e 94 00 00 	call	0	; 0x0 <__tmp_reg__>
    a7c8:	ce 01       	movw	r24, r28
    a7ca:	df 91       	pop	r29
    a7cc:	cf 91       	pop	r28
    a7ce:	08 95       	ret

Disassembly of section .text._ZN6StringC2ERKS_:

00014f72 <_ZN6StringC1ERKS_>:
   14f72:	fc 01       	movw	r30, r24
   14f74:	11 82       	std	Z+1, r1	; 0x01
   14f76:	10 82       	st	Z, r1
   14f78:	13 82       	std	Z+3, r1	; 0x03
   14f7a:	12 82       	std	Z+2, r1	; 0x02
   14f7c:	15 82       	std	Z+5, r1	; 0x05
   14f7e:	14 82       	std	Z+4, r1	; 0x04
   14f80:	0c 94 00 00 	jmp	0	; 0x0 <__tmp_reg__>

Disassembly of section .text._ZN6StringaSEPKc:

00029ef6 <_ZN6StringaSEPKc>:
   29ef6:	cf 93       	push	r28
   29ef8:	df 93       	push	r29
   29efa:	ec 01       	movw	r28, r24
   29efc:	61 15       	cp	r22, r1
   29efe:	71 05       	cpc	r23, r1
   29f00:	01 f0       	breq	.+0      	; 0x29f02 <_ZN6StringaSEPKc+0xc>
   29f02:	fb 01       	movw	r30, r22
   29f04:	01 90       	ld	r0, Z+
   29f06:	00 20       	and	r0, r0
   29f08:	01 f4       	brne	.+0      	; 0x29f0a <_ZN6StringaSEPKc+0x14>
   29f0a:	af 01       	movw	r20, r30
   29f0c:	41 50       	subi	r20, 0x01	; 1
   29f0e:	51 09       	sbc	r21, r1
   29f10:	46 1b       	sub	r20, r22
   29f12:	57 0b       	sbc	r21, r23
   29f14:	0e 94 00 00 	call	0	; 0x0 <__tmp_reg__>
   29f18:	00 c0       	rjmp	.+0      	; 0x29f1a <_ZN6StringaSEPKc+0x24>
   29f1a:	0e 94 00 00 	call	0	; 0x0 <__tmp_reg__>
   29f1e:	ce 01       	movw	r24, r28
   29f20:	df 91       	pop	r29
   29f22:	cf 91       	pop	r28
   29f24:	08 95       	ret

Disassembly of section .text._ZN6StringC2Ec:

00053e1c <_ZN6StringC1Ec>:
   53e1c:	cf 93       	push	r28
   53e1e:	df 93       	push	r29
   53e20:	00 d0       	rcall	.+0      	; 0x53e22 <_ZN6StringC1Ec+0x6>
   53e22:	cd b7       	in	r28, 0x3d	; 61
   53e24:	de b7       	in	r29, 0x3e	; 62
   53e26:	fc 01       	movw	r30, r24
   53e28:	11 82       	std	Z+1, r1	; 0x01
   53e2a:	10 82       	st	Z, r1
   53e2c:	13 82       	std	Z+3, r1	; 0x03
   53e2e:	12 82       	std	Z+2, r1	; 0x02
   53e30:	15 82       	std	Z+5, r1	; 0x05
   53e32:	14 82       	std	Z+4, r1	; 0x04
   53e34:	69 83       	std	Y+1, r22	; 0x01
   53e36:	1a 82       	std	Y+2, r1	; 0x02
   53e38:	be 01       	movw	r22, r28
   53e3a:	6f 5f       	subi	r22, 0xFF	; 255
   53e3c:	7f 4f       	sbci	r23, 0xFF	; 255
   53e3e:	0e 94 00 00 	call	0	; 0x0 <__tmp_reg__>
   53e42:	0f 90       	pop	r0
   53e44:	0f 90       	pop	r0
   53e46:	df 91       	pop	r29
   53e48:	cf 91       	pop	r28
   53e4a:	08 95       	ret

Disassembly of section .text._ZN6StringC2Ehh:

000a7c68 <_ZN6StringC1Ehh>:
   a7c68:	0f 93       	push	r16
   a7c6a:	1f 93       	push	r17
   a7c6c:	cf 93       	push	r28
   a7c6e:	df 93       	push	r29
   a7c70:	cd b7       	in	r28, 0x3d	; 61
   a7c72:	de b7       	in	r29, 0x3e	; 62
   a7c74:	29 97       	sbiw	r28, 0x09	; 9
   a7c76:	0f b6       	in	r0, 0x3f	; 63
   a7c78:	f8 94       	cli
   a7c7a:	de bf       	out	0x3e, r29	; 62
   a7c7c:	0f be       	out	0x3f, r0	; 63
   a7c7e:	cd bf       	out	0x3d, r28	; 61
   a7c80:	8c 01       	movw	r16, r24
   a7c82:	86 2f       	mov	r24, r22
   a7c84:	f8 01       	movw	r30, r16
   a7c86:	11 82       	std	Z+1, r1	; 0x01
   a7c88:	10 82       	st	Z, r1
   a7c8a:	13 82       	std	Z+3, r1	; 0x03
   a7c8c:	12 82       	std	Z+2, r1	; 0x02
   a7c8e:	15 82       	std	Z+5, r1	; 0x05
   a7c90:	14 82       	std	Z+4, r1	; 0x04
   a7c92:	50 e0       	ldi	r21, 0x00	; 0
   a7c94:	be 01       	movw	r22, r28
   a7c96:	6f 5f       	subi	r22, 0xFF	; 255
   a7c98:	7f 4f       	sbci	r23, 0xFF	; 255
   a7c9a:	90 e0       	ldi	r25, 0x00	; 0
   a7c9c:	0e 94 00 00 	call	0	; 0x0 <__tmp_reg__>
   a7ca0:	be 01       	movw	r22, r28
   a7ca2:	6f 5f       	subi	r22, 0xFF	; 255
   a7ca4:	7f 4f       	sbci	r23, 0xFF	; 255
   a7ca6:	c8 01       	movw	r24, r16
   a7ca8:	0e 94 00 00 	call	0	; 0x0 <__tmp_reg__>
   a7cac:	29 96       	adiw	r28, 0x09	; 9
   a7cae:	0f b6       	in	r0, 0x3f	; 63
   a7cb0:	f8 94       	cli
   a7cb2:	de bf       	out	0x3e, r29	; 62
   a7cb4:	0f be       	out	0x3f, r0	; 63
   a7cb6:	cd bf       	out	0x3d, r28	; 61
   a7cb8:	df 91       	pop	r29
   a7cba:	cf 91       	pop	r28
   a7cbc:	1f 91       	pop	r17
   a7cbe:	0f 91       	pop	r16
   a7cc0:	08 95       	ret

Disassembly of section .text._ZN6StringC2Eih:

0014f92a <_ZN6StringC1Eih>:
  14f92a:	0f 93       	push	r16
  14f92c:	1f 93       	push	r17
  14f92e:	cf 93       	push	r28
  14f930:	df 93       	push	r29
  14f932:	cd b7       	in	r28, 0x3d	; 61
  14f934:	de b7       	in	r29, 0x3e	; 62
  14f936:	62 97       	sbiw	r28, 0x12	; 18
  14f938:	0f b6       	in	r0, 0x3f	; 63
  14f93a:	f8 94       	cli
  14f93c:	de bf       	out	0x3e, r29	; 62
  14f93e:	0f be       	out	0x3f, r0	; 63
  14f940:	cd bf       	out	0x3d, r28	; 61
  14f942:	8c 01       	movw	r16, r24
  14f944:	cb 01       	movw	r24, r22
  14f946:	f8 01       	movw	r30, r16
  14f948:	11 82       	std	Z+1, r1	; 0x01
  14f94a:	10 82       	st	Z, r1
  14f94c:	13 82       	std	Z+3, r1	; 0x03
  14f94e:	12 82       	std	Z+2, r1	; 0x02
  14f950:	15 82       	std	Z+5, r1	; 0x05
  14f952:	14 82       	std	Z+4, r1	; 0x04
  14f954:	50 e0       	ldi	r21, 0x00	; 0
  14f956:	be 01       	movw	r22, r28
  14f958:	6f 5f       	subi	r22, 0xFF	; 255
  14f95a:	7f 4f       	sbci	r23, 0xFF	; 255
  14f95c:	0e 94 00 00 	call	0	; 0x0 <__tmp_reg__>
  14f960:	be 01       	movw	r22, r28
  14f962:	6f 5f       	subi	r22, 0xFF	; 255
  14f964:	7f 4f       	sbci	r23, 0xFF	; 255
  14f966:	c8 01       	movw	r24, r16
  14f968:	0e 94 00 00 	call	0	; 0x0 <__tmp_reg__>
  14f96c:	62 96       	adiw	r28, 0x12	; 18
  14f96e:	0f b6       	in	r0, 0x3f	; 63
  14f970:	f8 94       	cli
  14f972:	de bf       	out	0x3e, r29	; 62
  14f974:	0f be       	out	0x3f, r0	; 63
  14f976:	cd bf       	out	0x3d, r28	; 61
  14f978:	df 91       	pop	r29
  14f97a:	cf 91       	pop	r28
  14f97c:	1f 91       	pop	r17
  14f97e:	0f 91       	pop	r16
  14f980:	08 95       	ret

Disassembly of section .text._ZN6StringC2Ejh:

0029f2ac <_ZN6StringC1Ejh>:
  29f2ac:	0f 93       	push	r16
  29f2ae:	1f 93       	push	r17
  29f2b0:	cf 93       	push	r28
  29f2b2:	df 93       	push	r29
  29f2b4:	cd b7       	in	r28, 0x3d	; 61
  29f2b6:	de b7       	in	r29, 0x3e	; 62
  29f2b8:	61 97       	sbiw	r28, 0x11	; 17
  29f2ba:	0f b6       	in	r0, 0x3f	; 63
  29f2bc:	f8 94       	cli
  29f2be:	de bf       	out	0x3e, r29	; 62
  29f2c0:	0f be       	out	0x3f, r0	; 63
  29f2c2:	cd bf       	out	0x3d, r28	; 61
  29f2c4:	8c 01       	movw	r16, r24
  29f2c6:	cb 01       	movw	r24, r22
  29f2c8:	f8 01       	movw	r30, r16
  29f2ca:	11 82       	std	Z+1, r1	; 0x01
  29f2cc:	10 82       	st	Z, r1
  29f2ce:	13 82       	std	Z+3, r1	; 0x03
  29f2d0:	12 82       	std	Z+2, r1	; 0x02
  29f2d2:	15 82       	std	Z+5, r1	; 0x05
  29f2d4:	14 82       	std	Z+4, r1	; 0x04
  29f2d6:	50 e0       	ldi	r21, 0x00	; 0
  29f2d8:	be 01       	movw	r22, r28
  29f2da:	6f 5f       	subi	r22, 0xFF	; 255
  29f2dc:	7f 4f       	sbci	r23, 0xFF	; 255
  29f2de:	0e 94 00 00 	call	0	; 0x0 <__tmp_reg__>
  29f2e2:	be 01       	movw	r22, r28
  29f2e4:	6f 5f       	subi	r22, 0xFF	; 255
  29f2e6:	7f 4f       	sbci	r23, 0xFF	; 255
  29f2e8:	c8 01       	movw	r24, r16
  29f2ea:	0e 94 00 00 	call	0	; 0x0 <__tmp_reg__>
  29f2ee:	61 96       	adiw	r28, 0x11	; 17
  29f2f0:	0f b6       	in	r0, 0x3f	; 63
  29f2f2:	f8 94       	cli
  29f2f4:	de bf       	out	0x3e, r29	; 62
  29f2f6:	0f be       	out	0x3f, r0	; 63
  29f2f8:	cd bf       	out	0x3d, r28	; 61
  29f2fa:	df 91       	pop	r29
  29f2fc:	cf 91       	pop	r28
  29f2fe:	1f 91       	pop	r17
  29f300:	0f 91       	pop	r16
  29f302:	08 95       	ret

Disassembly of section .text._ZN6StringC2Elh:

0053e5b0 <_ZN6StringC1Elh>:
  53e5b0:	0f 93       	push	r16
  53e5b2:	1f 93       	push	r17
  53e5b4:	cf 93       	push	r28
  53e5b6:	df 93       	push	r29
  53e5b8:	cd b7       	in	r28, 0x3d	; 61
  53e5ba:	de b7       	in	r29, 0x3e	; 62
  53e5bc:	a2 97       	sbiw	r28, 0x22	; 34
  53e5be:	0f b6       	in	r0, 0x3f	; 63
  53e5c0:	f8 94       	cli
  53e5c2:	de bf       	out	0x3e, r29	; 62
  53e5c4:	0f be       	out	0x3f, r0	; 63
  53e5c6:	cd bf       	out	0x3d, r28	; 61
  53e5c8:	8c 01       	movw	r16, r24
  53e5ca:	cb 01       	movw	r24, r22
  53e5cc:	ba 01       	movw	r22, r20
  53e5ce:	f8 01       	movw	r30, r16
  53e5d0:	11 82       	std	Z+1, r1	; 0x01
  53e5d2:	10 82       	st	Z, r1
  53e5d4:	13 82       	std	Z+3, r1	; 0x03
  53e5d6:	12 82       	std	Z+2, r1	; 0x02
  53e5d8:	15 82       	std	Z+5, r1	; 0x05
  53e5da:	14 82       	std	Z+4, r1	; 0x04
  53e5dc:	30 e0       	ldi	r19, 0x00	; 0
  53e5de:	ae 01       	movw	r20, r28
  53e5e0:	4f 5f       	subi	r20, 0xFF	; 255
  53e5e2:	5f 4f       	sbci	r21, 0xFF	; 255
  53e5e4:	0e 94 00 00 	call	0	; 0x0 <__tmp_reg__>
  53e5e8:	be 01       	movw	r22, r28
  53e5ea:	6f 5f       	subi	r22, 0xFF	; 255
  53e5ec:	7f 4f       	sbci	r23, 0xFF	; 255
  53e5ee:	c8 01       	movw	r24, r16
  53e5f0:	0e 94 00 00 	call	0	; 0x0 <__tmp_reg__>
  53e5f4:	a2 96       	adiw	r28, 0x22	; 34
  53e5f6:	0f b6       	in	r0, 0x3f	; 63
  53e5f8:	f8 94       	cli
  53e5fa:	de bf       	out	0x3e, r29	; 62
  53e5fc:	0f be       	out	0x3f, r0	; 63
  53e5fe:	cd bf       	out	0x3d, r28	; 61
  53e600:	df 91       	pop	r29
  53e602:	cf 91       	pop	r28
  53e604:	1f 91       	pop	r17
  53e606:	0f 91       	pop	r16
  53e608:	08 95       	ret

Disassembly of section .text._ZN6StringC2Emh:

00a7cbba <_ZN6StringC1Emh>:
  a7cbba:	0f 93       	push	r16
  a7cbbc:	1f 93       	push	r17
  a7cbbe:	cf 93       	push	r28
  a7cbc0:	df 93       	push	r29
  a7cbc2:	cd b7       	in	r28, 0x3d	; 61
  a7cbc4:	de b7       	in	r29, 0x3e	; 62
  a7cbc6:	a1 97       	sbiw	r28, 0x21	; 33
  a7cbc8:	0f b6       	in	r0, 0x3f	; 63
  a7cbca:	f8 94       	cli
  a7cbcc:	de bf       	out	0x3e, r29	; 62
  a7cbce:	0f be       	out	0x3f, r0	; 63
  a7cbd0:	cd bf       	out	0x3d, r28	; 61
  a7cbd2:	8c 01       	movw	r16, r24
  a7cbd4:	cb 01       	movw	r24, r22
  a7cbd6:	ba 01       	movw	r22, r20
  a7cbd8:	f8 01       	movw	r30, r16
  a7cbda:	11 82       	std	Z+1, r1	; 0x01
  a7cbdc:	10 82       	st	Z, r1
  a7cbde:	13 82       	std	Z+3, r1	; 0x03
  a7cbe0:	12 82       	std	Z+2, r1	; 0x02
  a7cbe2:	15 82       	std	Z+5, r1	; 0x05
  a7cbe4:	14 82       	std	Z+4, r1	; 0x04
  a7cbe6:	30 e0       	ldi	r19, 0x00	; 0
  a7cbe8:	ae 01       	movw	r20, r28
  a7cbea:	4f 5f       	subi	r20, 0xFF	; 255
  a7cbec:	5f 4f       	sbci	r21, 0xFF	; 255
  a7cbee:	0e 94 00 00 	call	0	; 0x0 <__tmp_reg__>
  a7cbf2:	be 01       	movw	r22, r28
  a7cbf4:	6f 5f       	subi	r22, 0xFF	; 255
  a7cbf6:	7f 4f       	sbci	r23, 0xFF	; 255
  a7cbf8:	c8 01       	movw	r24, r16
  a7cbfa:	0e 94 00 00 	call	0	; 0x0 <__tmp_reg__>
  a7cbfe:	a1 96       	adiw	r28, 0x21	; 33
  a7cc00:	0f b6       	in	r0, 0x3f	; 63
  a7cc02:	f8 94       	cli
  a7cc04:	de bf       	out	0x3e, r29	; 62
  a7cc06:	0f be       	out	0x3f, r0	; 63
  a7cc08:	cd bf       	out	0x3d, r28	; 61
  a7cc0a:	df 91       	pop	r29
  a7cc0c:	cf 91       	pop	r28
  a7cc0e:	1f 91       	pop	r17
  a7cc10:	0f 91       	pop	r16
  a7cc12:	08 95       	ret

Disassembly of section .text._ZN6StringC2Efh:

014f97ce <_ZN6StringC1Efh>:
 14f97ce:	ef 92       	push	r14
 14f97d0:	ff 92       	push	r15
 14f97d2:	0f 93       	push	r16
 14f97d4:	1f 93       	push	r17
 14f97d6:	cf 93       	push	r28
 14f97d8:	df 93       	push	r29
 14f97da:	cd b7       	in	r28, 0x3d	; 61
 14f97dc:	de b7       	in	r29, 0x3e	; 62
 14f97de:	a1 97       	sbiw	r28, 0x21	; 33
 14f97e0:	0f b6       	in	r0, 0x3f	; 63
 14f97e2:	f8 94       	cli
 14f97e4:	de bf       	out	0x3e, r29	; 62
 14f97e6:	0f be       	out	0x3f, r0	; 63
 14f97e8:	cd bf       	out	0x3d, r28	; 61
 14f97ea:	7c 01       	movw	r14, r24
 14f97ec:	cb 01       	movw	r24, r22
 14f97ee:	ba 01       	movw	r22, r20
 14f97f0:	f7 01       	movw	r30, r14
 14f97f2:	11 82       	std	Z+1, r1	; 0x01
 14f97f4:	10 82       	st	Z, r1
 14f97f6:	13 82       	std	Z+3, r1	; 0x03
 14f97f8:	12 82       	std	Z+2, r1	; 0x02
 14f97fa:	15 82       	std	Z+5, r1	; 0x05
 14f97fc:	14 82       	std	Z+4, r1	; 0x04
 14f97fe:	42 e0       	ldi	r20, 0x02	; 2
 14f9800:	42 0f       	add	r20, r18
 14f9802:	8e 01       	movw	r16, r28
 14f9804:	0f 5f       	subi	r16, 0xFF	; 255
 14f9806:	1f 4f       	sbci	r17, 0xFF	; 255
 14f9808:	0e 94 00 00 	call	0	; 0x0 <__tmp_reg__>
 14f980c:	bc 01       	movw	r22, r24
 14f980e:	c7 01       	movw	r24, r14
 14f9810:	0e 94 00 00 	call	0	; 0x0 <__tmp_reg__>
 14f9814:	a1 96       	adiw	r28, 0x21	; 33
 14f9816:	0f b6       	in	r0, 0x3f	; 63
 14f9818:	f8 94       	cli
 14f981a:	de bf       	out	0x3e, r29	; 62
 14f981c:	0f be       	out	0x3f, r0	; 63
 14f981e:	cd bf       	out	0x3d, r28	; 61
 14f9820:	df 91       	pop	r29
 14f9822:	cf 91       	pop	r28
 14f9824:	1f 91       	pop	r17
 14f9826:	0f 91       	pop	r16
 14f9828:	ff 90       	pop	r15
 14f982a:	ef 90       	pop	r14
 14f982c:	08 95       	ret

Disassembly of section .text._ZN6StringC2Edh:

029f2ffc <_ZN6StringC1Edh>:
 29f2ffc:	ef 92       	push	r14
 29f2ffe:	ff 92       	push	r15
 29f3000:	0f 93       	push	r16
 29f3002:	1f 93       	push	r17
 29f3004:	cf 93       	push	r28
 29f3006:	df 93       	push	r29
 29f3008:	cd b7       	in	r28, 0x3d	; 61
 29f300a:	de b7       	in	r29, 0x3e	; 62
 29f300c:	a1 97       	sbiw	r28, 0x21	; 33
 29f300e:	0f b6       	in	r0, 0x3f	; 63
 29f3010:	f8 94       	cli
 29f3012:	de bf       	out	0x3e, r29	; 62
 29f3014:	0f be       	out	0x3f, r0	; 63
 29f3016:	cd bf       	out	0x3d, r28	; 61
 29f3018:	7c 01       	movw	r14, r24
 29f301a:	cb 01       	movw	r24, r22
 29f301c:	ba 01       	movw	r22, r20
 29f301e:	f7 01       	movw	r30, r14
 29f3020:	11 82       	std	Z+1, r1	; 0x01
 29f3022:	10 82       	st	Z, r1
 29f3024:	13 82       	std	Z+3, r1	; 0x03
 29f3026:	12 82       	std	Z+2, r1	; 0x02
 29f3028:	15 82       	std	Z+5, r1	; 0x05
 29f302a:	14 82       	std	Z+4, r1	; 0x04
 29f302c:	42 e0       	ldi	r20, 0x02	; 2
 29f302e:	42 0f       	add	r20, r18
 29f3030:	8e 01       	movw	r16, r28
 29f3032:	0f 5f       	subi	r16, 0xFF	; 255
 29f3034:	1f 4f       	sbci	r17, 0xFF	; 255
 29f3036:	0e 94 00 00 	call	0	; 0x0 <__tmp_reg__>
 29f303a:	bc 01       	movw	r22, r24
 29f303c:	c7 01       	movw	r24, r14
 29f303e:	0e 94 00 00 	call	0	; 0x0 <__tmp_reg__>
 29f3042:	a1 96       	adiw	r28, 0x21	; 33
 29f3044:	0f b6       	in	r0, 0x3f	; 63
 29f3046:	f8 94       	cli
 29f3048:	de bf       	out	0x3e, r29	; 62
 29f304a:	0f be       	out	0x3f, r0	; 63
 29f304c:	cd bf       	out	0x3d, r28	; 61
 29f304e:	df 91       	pop	r29
 29f3050:	cf 91       	pop	r28
 29f3052:	1f 91       	pop	r17
 29f3054:	0f 91       	pop	r16
 29f3056:	ff 90       	pop	r15
 29f3058:	ef 90       	pop	r14
 29f305a:	08 95       	ret

Disassembly of section .text._ZN6StringaSEPK19__FlashStringHelper:

053e6058 <_ZN6StringaSEPK19__FlashStringHelper>:
 53e6058:	0f 93       	push	r16
 53e605a:	1f 93       	push	r17
 53e605c:	cf 93       	push	r28
 53e605e:	df 93       	push	r29
 53e6060:	00 d0       	rcall	.+0      	; 0x53e6062 <_ZN6StringaSEPK19__FlashStringHelper+0xa>
 53e6062:	cd b7       	in	r28, 0x3d	; 61
 53e6064:	de b7       	in	r29, 0x3e	; 62
 53e6066:	8c 01       	movw	r16, r24
 53e6068:	61 15       	cp	r22, r1
 53e606a:	71 05       	cpc	r23, r1
 53e606c:	01 f0       	breq	.+0      	; 0x53e606e <_ZN6StringaSEPK19__FlashStringHelper+0x16>
 53e606e:	cb 01       	movw	r24, r22
 53e6070:	69 83       	std	Y+1, r22	; 0x01
 53e6072:	7a 83       	std	Y+2, r23	; 0x02
 53e6074:	0e 94 00 00 	call	0	; 0x0 <__tmp_reg__>
 53e6078:	ac 01       	movw	r20, r24
 53e607a:	69 81       	ldd	r22, Y+1	; 0x01
 53e607c:	7a 81       	ldd	r23, Y+2	; 0x02
 53e607e:	c8 01       	movw	r24, r16
 53e6080:	0e 94 00 00 	call	0	; 0x0 <__tmp_reg__>
 53e6084:	00 c0       	rjmp	.+0      	; 0x53e6086 <_ZN6StringaSEPK19__FlashStringHelper+0x2e>
 53e6086:	0e 94 00 00 	call	0	; 0x0 <__tmp_reg__>
 53e608a:	c8 01       	movw	r24, r16
 53e608c:	0f 90       	pop	r0
 53e608e:	0f 90       	pop	r0
 53e6090:	df 91       	pop	r29
 53e6092:	cf 91       	pop	r28
 53e6094:	1f 91       	pop	r17
 53e6096:	0f 91       	pop	r16
 53e6098:	08 95       	ret

Disassembly of section .text._ZN6StringC2EPK19__FlashStringHelper:

0a7cc0f2 <_ZN6StringC1EPK19__FlashStringHelper>:
 a7cc0f2:	fc 01       	movw	r30, r24
 a7cc0f4:	11 82       	std	Z+1, r1	; 0x01
 a7cc0f6:	10 82       	st	Z, r1
 a7cc0f8:	13 82       	std	Z+3, r1	; 0x03
 a7cc0fa:	12 82       	std	Z+2, r1	; 0x02
 a7cc0fc:	15 82       	std	Z+5, r1	; 0x05
 a7cc0fe:	14 82       	std	Z+4, r1	; 0x04
 a7cc100:	0c 94 00 00 	jmp	0	; 0x0 <__tmp_reg__>

Disassembly of section .text._ZN6String6concatEPKcj:

14f981f6 <_ZN6String6concatEPKcj>:
14f981f6:	ef 92       	push	r14
14f981f8:	ff 92       	push	r15
14f981fa:	0f 93       	push	r16
14f981fc:	1f 93       	push	r17
14f981fe:	cf 93       	push	r28
14f98200:	df 93       	push	r29
14f98202:	ec 01       	movw	r28, r24
14f98204:	7b 01       	movw	r14, r22
14f98206:	0c 81       	ldd	r16, Y+4	; 0x04
14f98208:	1d 81       	ldd	r17, Y+5	; 0x05
14f9820a:	61 15       	cp	r22, r1
14f9820c:	71 05       	cpc	r23, r1
14f9820e:	01 f4       	brne	.+0      	; 0x14f98210 <_ZN6String6concatEPKcj+0x1a>
14f98210:	80 e0       	ldi	r24, 0x00	; 0
14f98212:	00 c0       	rjmp	.+0      	; 0x14f98214 <_ZN6String6concatEPKcj+0x1e>
14f98214:	41 15       	cp	r20, r1
14f98216:	51 05       	cpc	r21, r1
14f98218:	01 f0       	breq	.+0      	; 0x14f9821a <_ZN6String6concatEPKcj+0x24>
14f9821a:	04 0f       	add	r16, r20
14f9821c:	15 1f       	adc	r17, r21
14f9821e:	b8 01       	movw	r22, r16
14f98220:	0e 94 00 00 	call	0	; 0x0 <__tmp_reg__>
14f98224:	88 23       	and	r24, r24
14f98226:	01 f0       	breq	.+0      	; 0x14f98228 <_ZN6String6concatEPKcj+0x32>
14f98228:	28 81       	ld	r18, Y
14f9822a:	39 81       	ldd	r19, Y+1	; 0x01
14f9822c:	8c 81       	ldd	r24, Y+4	; 0x04
14f9822e:	9d 81       	ldd	r25, Y+5	; 0x05
14f98230:	b7 01       	movw	r22, r14
14f98232:	82 0f       	add	r24, r18
14f98234:	93 1f       	adc	r25, r19
14f98236:	0e 94 00 00 	call	0	; 0x0 <__tmp_reg__>
14f9823a:	1d 83       	std	Y+5, r17	; 0x05
14f9823c:	0c 83       	std	Y+4, r16	; 0x04
14f9823e:	81 e0       	ldi	r24, 0x01	; 1
14f98240:	df 91       	pop	r29
14f98242:	cf 91       	pop	r28
14f98244:	1f 91       	pop	r17
14f98246:	0f 91       	pop	r16
14f98248:	ff 90       	pop	r15
14f9824a:	ef 90       	pop	r14
14f9824c:	08 95       	ret

Disassembly of section .text._ZN6String6concatERKS_:

29f30444 <_ZN6String6concatERKS_>:
29f30444:	fb 01       	movw	r30, r22
29f30446:	44 81       	ldd	r20, Z+4	; 0x04
29f30448:	55 81       	ldd	r21, Z+5	; 0x05
29f3044a:	60 81       	ld	r22, Z
29f3044c:	71 81       	ldd	r23, Z+1	; 0x01
29f3044e:	0c 94 00 00 	jmp	0	; 0x0 <__tmp_reg__>

Disassembly of section .text._ZN6String6concatEPKc:

53e60896 <_ZN6String6concatEPKc>:
53e60896:	61 15       	cp	r22, r1
53e60898:	71 05       	cpc	r23, r1
53e6089a:	01 f0       	breq	.+0      	; 0x53e6089c <_ZN6String6concatEPKc+0x6>
53e6089c:	fb 01       	movw	r30, r22
53e6089e:	01 90       	ld	r0, Z+
53e608a0:	00 20       	and	r0, r0
53e608a2:	01 f4       	brne	.+0      	; 0x53e608a4 <_ZN6String6concatEPKc+0xe>
53e608a4:	af 01       	movw	r20, r30
53e608a6:	41 50       	subi	r20, 0x01	; 1
53e608a8:	51 09       	sbc	r21, r1
53e608aa:	46 1b       	sub	r20, r22
53e608ac:	57 0b       	sbc	r21, r23
53e608ae:	0c 94 00 00 	jmp	0	; 0x0 <__tmp_reg__>
53e608b2:	80 e0       	ldi	r24, 0x00	; 0
53e608b4:	08 95       	ret

Disassembly of section .text._ZN6String6concatEc:

a7cc114c <_ZN6String6concatEc>:
a7cc114c:	cf 93       	push	r28
a7cc114e:	df 93       	push	r29
a7cc1150:	00 d0       	rcall	.+0      	; 0xa7cc1152 <_ZN6String6concatEc+0x6>
a7cc1152:	cd b7       	in	r28, 0x3d	; 61
a7cc1154:	de b7       	in	r29, 0x3e	; 62
a7cc1156:	69 83       	std	Y+1, r22	; 0x01
a7cc1158:	1a 82       	std	Y+2, r1	; 0x02
a7cc115a:	41 e0       	ldi	r20, 0x01	; 1
a7cc115c:	50 e0       	ldi	r21, 0x00	; 0
a7cc115e:	be 01       	movw	r22, r28
a7cc1160:	6f 5f       	subi	r22, 0xFF	; 255
a7cc1162:	7f 4f       	sbci	r23, 0xFF	; 255
a7cc1164:	0e 94 00 00 	call	0	; 0x0 <__tmp_reg__>
a7cc1168:	0f 90       	pop	r0
a7cc116a:	0f 90       	pop	r0
a7cc116c:	df 91       	pop	r29
a7cc116e:	cf 91       	pop	r28
a7cc1170:	08 95       	ret

Disassembly of section .text._ZN6String6concatEh:

4f9822be <_ZN6String6concatEh>:
4f9822be:	ef 92       	push	r14
4f9822c0:	ff 92       	push	r15
4f9822c2:	0f 93       	push	r16
4f9822c4:	1f 93       	push	r17
4f9822c6:	cf 93       	push	r28
4f9822c8:	df 93       	push	r29
4f9822ca:	00 d0       	rcall	.+0      	; 0x4f9822cc <_ZN6StringaSERKS_+0x4f977b2a>
4f9822cc:	00 d0       	rcall	.+0      	; 0x4f9822ce <_ZN6StringaSERKS_+0x4f977b2c>
4f9822ce:	cd b7       	in	r28, 0x3d	; 61
4f9822d0:	de b7       	in	r29, 0x3e	; 62
4f9822d2:	7c 01       	movw	r14, r24
4f9822d4:	86 2f       	mov	r24, r22
4f9822d6:	4a e0       	ldi	r20, 0x0A	; 10
4f9822d8:	50 e0       	ldi	r21, 0x00	; 0
4f9822da:	8e 01       	movw	r16, r28
4f9822dc:	0f 5f       	subi	r16, 0xFF	; 255
4f9822de:	1f 4f       	sbci	r17, 0xFF	; 255
4f9822e0:	b8 01       	movw	r22, r16
4f9822e2:	90 e0       	ldi	r25, 0x00	; 0
4f9822e4:	0e 94 00 00 	call	0	; 0x0 <__tmp_reg__>
4f9822e8:	f8 01       	movw	r30, r16
4f9822ea:	01 90       	ld	r0, Z+
4f9822ec:	00 20       	and	r0, r0
4f9822ee:	01 f4       	brne	.+0      	; 0x4f9822f0 <_ZN6StringaSERKS_+0x4f977b4e>
4f9822f0:	af 01       	movw	r20, r30
4f9822f2:	41 50       	subi	r20, 0x01	; 1
4f9822f4:	51 09       	sbc	r21, r1
4f9822f6:	40 1b       	sub	r20, r16
4f9822f8:	51 0b       	sbc	r21, r17
4f9822fa:	b8 01       	movw	r22, r16
4f9822fc:	c7 01       	movw	r24, r14
4f9822fe:	0e 94 00 00 	call	0	; 0x0 <__tmp_reg__>
4f982302:	0f 90       	pop	r0
4f982304:	0f 90       	pop	r0
4f982306:	0f 90       	pop	r0
4f982308:	0f 90       	pop	r0
4f98230a:	df 91       	pop	r29
4f98230c:	cf 91       	pop	r28
4f98230e:	1f 91       	pop	r17
4f982310:	0f 91       	pop	r16
4f982312:	ff 90       	pop	r15
4f982314:	ef 90       	pop	r14
4f982316:	08 95       	ret

Disassembly of section .text._ZN6String6concatEi:

9f3045d6 <_ZN6String6concatEi>:
9f3045d6:	ef 92       	push	r14
9f3045d8:	ff 92       	push	r15
9f3045da:	0f 93       	push	r16
9f3045dc:	1f 93       	push	r17
9f3045de:	cf 93       	push	r28
9f3045e0:	df 93       	push	r29
9f3045e2:	cd b7       	in	r28, 0x3d	; 61
9f3045e4:	de b7       	in	r29, 0x3e	; 62
9f3045e6:	28 97       	sbiw	r28, 0x08	; 8
9f3045e8:	0f b6       	in	r0, 0x3f	; 63
9f3045ea:	f8 94       	cli
9f3045ec:	de bf       	out	0x3e, r29	; 62
9f3045ee:	0f be       	out	0x3f, r0	; 63
9f3045f0:	cd bf       	out	0x3d, r28	; 61
9f3045f2:	7c 01       	movw	r14, r24
9f3045f4:	cb 01       	movw	r24, r22
9f3045f6:	4a e0       	ldi	r20, 0x0A	; 10
9f3045f8:	50 e0       	ldi	r21, 0x00	; 0
9f3045fa:	8e 01       	movw	r16, r28
9f3045fc:	0f 5f       	subi	r16, 0xFF	; 255
9f3045fe:	1f 4f       	sbci	r17, 0xFF	; 255
9f304600:	b8 01       	movw	r22, r16
9f304602:	0e 94 00 00 	call	0	; 0x0 <__tmp_reg__>
9f304606:	f8 01       	movw	r30, r16
9f304608:	01 90       	ld	r0, Z+
9f30460a:	00 20       	and	r0, r0
9f30460c:	01 f4       	brne	.+0      	; 0x9f30460e <_ZN6StringaSERKS_+0x9f2f9e6c>
9f30460e:	af 01       	movw	r20, r30
9f304610:	41 50       	subi	r20, 0x01	; 1
9f304612:	51 09       	sbc	r21, r1
9f304614:	40 1b       	sub	r20, r16
9f304616:	51 0b       	sbc	r21, r17
9f304618:	b8 01       	movw	r22, r16
9f30461a:	c7 01       	movw	r24, r14
9f30461c:	0e 94 00 00 	call	0	; 0x0 <__tmp_reg__>
9f304620:	28 96       	adiw	r28, 0x08	; 8
9f304622:	0f b6       	in	r0, 0x3f	; 63
9f304624:	f8 94       	cli
9f304626:	de bf       	out	0x3e, r29	; 62
9f304628:	0f be       	out	0x3f, r0	; 63
9f30462a:	cd bf       	out	0x3d, r28	; 61
9f30462c:	df 91       	pop	r29
9f30462e:	cf 91       	pop	r28
9f304630:	1f 91       	pop	r17
9f304632:	0f 91       	pop	r16
9f304634:	ff 90       	pop	r15
9f304636:	ef 90       	pop	r14
9f304638:	08 95       	ret

Disassembly of section .text._ZN6String6concatEj:

3e608c10 <_ZN6String6concatEj>:
3e608c10:	ef 92       	push	r14
3e608c12:	ff 92       	push	r15
3e608c14:	0f 93       	push	r16
3e608c16:	1f 93       	push	r17
3e608c18:	cf 93       	push	r28
3e608c1a:	df 93       	push	r29
3e608c1c:	cd b7       	in	r28, 0x3d	; 61
3e608c1e:	de b7       	in	r29, 0x3e	; 62
3e608c20:	27 97       	sbiw	r28, 0x07	; 7
3e608c22:	0f b6       	in	r0, 0x3f	; 63
3e608c24:	f8 94       	cli
3e608c26:	de bf       	out	0x3e, r29	; 62
3e608c28:	0f be       	out	0x3f, r0	; 63
3e608c2a:	cd bf       	out	0x3d, r28	; 61
3e608c2c:	7c 01       	movw	r14, r24
3e608c2e:	cb 01       	movw	r24, r22
3e608c30:	4a e0       	ldi	r20, 0x0A	; 10
3e608c32:	50 e0       	ldi	r21, 0x00	; 0
3e608c34:	8e 01       	movw	r16, r28
3e608c36:	0f 5f       	subi	r16, 0xFF	; 255
3e608c38:	1f 4f       	sbci	r17, 0xFF	; 255
3e608c3a:	b8 01       	movw	r22, r16
3e608c3c:	0e 94 00 00 	call	0	; 0x0 <__tmp_reg__>
3e608c40:	f8 01       	movw	r30, r16
3e608c42:	01 90       	ld	r0, Z+
3e608c44:	00 20       	and	r0, r0
3e608c46:	01 f4       	brne	.+0      	; 0x3e608c48 <_ZN6StringaSERKS_+0x3e5fe4a6>
3e608c48:	af 01       	movw	r20, r30
3e608c4a:	41 50       	subi	r20, 0x01	; 1
3e608c4c:	51 09       	sbc	r21, r1
3e608c4e:	40 1b       	sub	r20, r16
3e608c50:	51 0b       	sbc	r21, r17
3e608c52:	b8 01       	movw	r22, r16
3e608c54:	c7 01       	movw	r24, r14
3e608c56:	0e 94 00 00 	call	0	; 0x0 <__tmp_reg__>
3e608c5a:	27 96       	adiw	r28, 0x07	; 7
3e608c5c:	0f b6       	in	r0, 0x3f	; 63
3e608c5e:	f8 94       	cli
3e608c60:	de bf       	out	0x3e, r29	; 62
3e608c62:	0f be       	out	0x3f, r0	; 63
3e608c64:	cd bf       	out	0x3d, r28	; 61
3e608c66:	df 91       	pop	r29
3e608c68:	cf 91       	pop	r28
3e608c6a:	1f 91       	pop	r17
3e608c6c:	0f 91       	pop	r16
3e608c6e:	ff 90       	pop	r15
3e608c70:	ef 90       	pop	r14
3e608c72:	08 95       	ret

Disassembly of section .text._ZN6String6concatEl:

7cc11884 <_ZN6String6concatEl>:
7cc11884:	ef 92       	push	r14
7cc11886:	ff 92       	push	r15
7cc11888:	0f 93       	push	r16
7cc1188a:	1f 93       	push	r17
7cc1188c:	cf 93       	push	r28
7cc1188e:	df 93       	push	r29
7cc11890:	cd b7       	in	r28, 0x3d	; 61
7cc11892:	de b7       	in	r29, 0x3e	; 62
7cc11894:	2e 97       	sbiw	r28, 0x0e	; 14
7cc11896:	0f b6       	in	r0, 0x3f	; 63
7cc11898:	f8 94       	cli
7cc1189a:	de bf       	out	0x3e, r29	; 62
7cc1189c:	0f be       	out	0x3f, r0	; 63
7cc1189e:	cd bf       	out	0x3d, r28	; 61
7cc118a0:	7c 01       	movw	r14, r24
7cc118a2:	cb 01       	movw	r24, r22
7cc118a4:	ba 01       	movw	r22, r20
7cc118a6:	2a e0       	ldi	r18, 0x0A	; 10
7cc118a8:	30 e0       	ldi	r19, 0x00	; 0
7cc118aa:	8e 01       	movw	r16, r28
7cc118ac:	0f 5f       	subi	r16, 0xFF	; 255
7cc118ae:	1f 4f       	sbci	r17, 0xFF	; 255
7cc118b0:	a8 01       	movw	r20, r16
7cc118b2:	0e 94 00 00 	call	0	; 0x0 <__tmp_reg__>
7cc118b6:	f8 01       	movw	r30, r16
7cc118b8:	01 90       	ld	r0, Z+
7cc118ba:	00 20       	and	r0, r0
7cc118bc:	01 f4       	brne	.+0      	; 0x7cc118be <_ZN6StringaSERKS_+0x7cc0711c>
7cc118be:	af 01       	movw	r20, r30
7cc118c0:	41 50       	subi	r20, 0x01	; 1
7cc118c2:	51 09       	sbc	r21, r1
7cc118c4:	40 1b       	sub	r20, r16
7cc118c6:	51 0b       	sbc	r21, r17
7cc118c8:	b8 01       	movw	r22, r16
7cc118ca:	c7 01       	movw	r24, r14
7cc118cc:	0e 94 00 00 	call	0	; 0x0 <__tmp_reg__>
7cc118d0:	2e 96       	adiw	r28, 0x0e	; 14
7cc118d2:	0f b6       	in	r0, 0x3f	; 63
7cc118d4:	f8 94       	cli
7cc118d6:	de bf       	out	0x3e, r29	; 62
7cc118d8:	0f be       	out	0x3f, r0	; 63
7cc118da:	cd bf       	out	0x3d, r28	; 61
7cc118dc:	df 91       	pop	r29
7cc118de:	cf 91       	pop	r28
7cc118e0:	1f 91       	pop	r17
7cc118e2:	0f 91       	pop	r16
7cc118e4:	ff 90       	pop	r15
7cc118e6:	ef 90       	pop	r14
7cc118e8:	08 95       	ret

Disassembly of section .text._ZN6String6concatEm:

f982316e <_ZN6String6concatEm>:
f982316e:	ef 92       	push	r14
f9823170:	ff 92       	push	r15
f9823172:	0f 93       	push	r16
f9823174:	1f 93       	push	r17
f9823176:	cf 93       	push	r28
f9823178:	df 93       	push	r29
f982317a:	cd b7       	in	r28, 0x3d	; 61
f982317c:	de b7       	in	r29, 0x3e	; 62
f982317e:	2d 97       	sbiw	r28, 0x0d	; 13
f9823180:	0f b6       	in	r0, 0x3f	; 63
f9823182:	f8 94       	cli
f9823184:	de bf       	out	0x3e, r29	; 62
f9823186:	0f be       	out	0x3f, r0	; 63
f9823188:	cd bf       	out	0x3d, r28	; 61
f982318a:	7c 01       	movw	r14, r24
f982318c:	cb 01       	movw	r24, r22
f982318e:	ba 01       	movw	r22, r20
f9823190:	2a e0       	ldi	r18, 0x0A	; 10
f9823192:	30 e0       	ldi	r19, 0x00	; 0
f9823194:	8e 01       	movw	r16, r28
f9823196:	0f 5f       	subi	r16, 0xFF	; 255
f9823198:	1f 4f       	sbci	r17, 0xFF	; 255
f982319a:	a8 01       	movw	r20, r16
f982319c:	0e 94 00 00 	call	0	; 0x0 <__tmp_reg__>
f98231a0:	f8 01       	movw	r30, r16
f98231a2:	01 90       	ld	r0, Z+
f98231a4:	00 20       	and	r0, r0
f98231a6:	01 f4       	brne	.+0      	; 0xf98231a8 <_ZN6StringaSERKS_+0xf9818a06>
f98231a8:	af 01       	movw	r20, r30
f98231aa:	41 50       	subi	r20, 0x01	; 1
f98231ac:	51 09       	sbc	r21, r1
f98231ae:	40 1b       	sub	r20, r16
f98231b0:	51 0b       	sbc	r21, r17
f98231b2:	b8 01       	movw	r22, r16
f98231b4:	c7 01       	movw	r24, r14
f98231b6:	0e 94 00 00 	call	0	; 0x0 <__tmp_reg__>
f98231ba:	2d 96       	adiw	r28, 0x0d	; 13
f98231bc:	0f b6       	in	r0, 0x3f	; 63
f98231be:	f8 94       	cli
f98231c0:	de bf       	out	0x3e, r29	; 62
f98231c2:	0f be       	out	0x3f, r0	; 63
f98231c4:	cd bf       	out	0x3d, r28	; 61
f98231c6:	df 91       	pop	r29
f98231c8:	cf 91       	pop	r28
f98231ca:	1f 91       	pop	r17
f98231cc:	0f 91       	pop	r16
f98231ce:	ff 90       	pop	r15
f98231d0:	ef 90       	pop	r14
f98231d2:	08 95       	ret

Disassembly of section .text._ZN6String6concatEf:

f3046342 <_ZN6String6concatEf>:
f3046342:	ef 92       	push	r14
f3046344:	ff 92       	push	r15
f3046346:	0f 93       	push	r16
f3046348:	1f 93       	push	r17
f304634a:	cf 93       	push	r28
f304634c:	df 93       	push	r29
f304634e:	cd b7       	in	r28, 0x3d	; 61
f3046350:	de b7       	in	r29, 0x3e	; 62
f3046352:	64 97       	sbiw	r28, 0x14	; 20
f3046354:	0f b6       	in	r0, 0x3f	; 63
f3046356:	f8 94       	cli
f3046358:	de bf       	out	0x3e, r29	; 62
f304635a:	0f be       	out	0x3f, r0	; 63
f304635c:	cd bf       	out	0x3d, r28	; 61
f304635e:	7c 01       	movw	r14, r24
f3046360:	cb 01       	movw	r24, r22
f3046362:	ba 01       	movw	r22, r20
f3046364:	8e 01       	movw	r16, r28
f3046366:	0f 5f       	subi	r16, 0xFF	; 255
f3046368:	1f 4f       	sbci	r17, 0xFF	; 255
f304636a:	22 e0       	ldi	r18, 0x02	; 2
f304636c:	44 e0       	ldi	r20, 0x04	; 4
f304636e:	0e 94 00 00 	call	0	; 0x0 <__tmp_reg__>
f3046372:	fc 01       	movw	r30, r24
f3046374:	01 90       	ld	r0, Z+
f3046376:	00 20       	and	r0, r0
f3046378:	01 f4       	brne	.+0      	; 0xf304637a <_ZN6StringaSERKS_+0xf303bbd8>
f304637a:	af 01       	movw	r20, r30
f304637c:	41 50       	subi	r20, 0x01	; 1
f304637e:	51 09       	sbc	r21, r1
f3046380:	48 1b       	sub	r20, r24
f3046382:	59 0b       	sbc	r21, r25
f3046384:	bc 01       	movw	r22, r24
f3046386:	c7 01       	movw	r24, r14
f3046388:	0e 94 00 00 	call	0	; 0x0 <__tmp_reg__>
f304638c:	64 96       	adiw	r28, 0x14	; 20
f304638e:	0f b6       	in	r0, 0x3f	; 63
f3046390:	f8 94       	cli
f3046392:	de bf       	out	0x3e, r29	; 62
f3046394:	0f be       	out	0x3f, r0	; 63
f3046396:	cd bf       	out	0x3d, r28	; 61
f3046398:	df 91       	pop	r29
f304639a:	cf 91       	pop	r28
f304639c:	1f 91       	pop	r17
f304639e:	0f 91       	pop	r16
f30463a0:	ff 90       	pop	r15
f30463a2:	ef 90       	pop	r14
f30463a4:	08 95       	ret

Disassembly of section .text._ZN6String6concatEd:

e608c6e8 <_ZN6String6concatEd>:
e608c6e8:	ef 92       	push	r14
e608c6ea:	ff 92       	push	r15
e608c6ec:	0f 93       	push	r16
e608c6ee:	1f 93       	push	r17
e608c6f0:	cf 93       	push	r28
e608c6f2:	df 93       	push	r29
e608c6f4:	cd b7       	in	r28, 0x3d	; 61
e608c6f6:	de b7       	in	r29, 0x3e	; 62
e608c6f8:	64 97       	sbiw	r28, 0x14	; 20
e608c6fa:	0f b6       	in	r0, 0x3f	; 63
e608c6fc:	f8 94       	cli
e608c6fe:	de bf       	out	0x3e, r29	; 62
e608c700:	0f be       	out	0x3f, r0	; 63
e608c702:	cd bf       	out	0x3d, r28	; 61
e608c704:	7c 01       	movw	r14, r24
e608c706:	cb 01       	movw	r24, r22
e608c708:	ba 01       	movw	r22, r20
e608c70a:	8e 01       	movw	r16, r28
e608c70c:	0f 5f       	subi	r16, 0xFF	; 255
e608c70e:	1f 4f       	sbci	r17, 0xFF	; 255
e608c710:	22 e0       	ldi	r18, 0x02	; 2
e608c712:	44 e0       	ldi	r20, 0x04	; 4
e608c714:	0e 94 00 00 	call	0	; 0x0 <__tmp_reg__>
e608c718:	fc 01       	movw	r30, r24
e608c71a:	01 90       	ld	r0, Z+
e608c71c:	00 20       	and	r0, r0
e608c71e:	01 f4       	brne	.+0      	; 0xe608c720 <_ZN6StringaSERKS_+0xe6081f7e>
e608c720:	af 01       	movw	r20, r30
e608c722:	41 50       	subi	r20, 0x01	; 1
e608c724:	51 09       	sbc	r21, r1
e608c726:	48 1b       	sub	r20, r24
e608c728:	59 0b       	sbc	r21, r25
e608c72a:	bc 01       	movw	r22, r24
e608c72c:	c7 01       	movw	r24, r14
e608c72e:	0e 94 00 00 	call	0	; 0x0 <__tmp_reg__>
e608c732:	64 96       	adiw	r28, 0x14	; 20
e608c734:	0f b6       	in	r0, 0x3f	; 63
e608c736:	f8 94       	cli
e608c738:	de bf       	out	0x3e, r29	; 62
e608c73a:	0f be       	out	0x3f, r0	; 63
e608c73c:	cd bf       	out	0x3d, r28	; 61
e608c73e:	df 91       	pop	r29
e608c740:	cf 91       	pop	r28
e608c742:	1f 91       	pop	r17
e608c744:	0f 91       	pop	r16
e608c746:	ff 90       	pop	r15
e608c748:	ef 90       	pop	r14
e608c74a:	08 95       	ret

Disassembly of section .text._ZN6String6concatEPK19__FlashStringHelper:

cc118e34 <_ZN6String6concatEPK19__FlashStringHelper>:
cc118e34:	ef 92       	push	r14
cc118e36:	ff 92       	push	r15
cc118e38:	0f 93       	push	r16
cc118e3a:	1f 93       	push	r17
cc118e3c:	cf 93       	push	r28
cc118e3e:	df 93       	push	r29
cc118e40:	ec 01       	movw	r28, r24
cc118e42:	7b 01       	movw	r14, r22
cc118e44:	61 15       	cp	r22, r1
cc118e46:	71 05       	cpc	r23, r1
cc118e48:	01 f4       	brne	.+0      	; 0xcc118e4a <_ZN6StringaSERKS_+0xcc10e6a8>
cc118e4a:	80 e0       	ldi	r24, 0x00	; 0
cc118e4c:	00 c0       	rjmp	.+0      	; 0xcc118e4e <_ZN6StringaSERKS_+0xcc10e6ac>
cc118e4e:	cb 01       	movw	r24, r22
cc118e50:	0e 94 00 00 	call	0	; 0x0 <__tmp_reg__>
cc118e54:	00 97       	sbiw	r24, 0x00	; 0
cc118e56:	01 f0       	breq	.+0      	; 0xcc118e58 <_ZN6StringaSERKS_+0xcc10e6b6>
cc118e58:	0c 81       	ldd	r16, Y+4	; 0x04
cc118e5a:	1d 81       	ldd	r17, Y+5	; 0x05
cc118e5c:	08 0f       	add	r16, r24
cc118e5e:	19 1f       	adc	r17, r25
cc118e60:	b8 01       	movw	r22, r16
cc118e62:	ce 01       	movw	r24, r28
cc118e64:	0e 94 00 00 	call	0	; 0x0 <__tmp_reg__>
cc118e68:	88 23       	and	r24, r24
cc118e6a:	01 f0       	breq	.+0      	; 0xcc118e6c <_ZN6StringaSERKS_+0xcc10e6ca>
cc118e6c:	28 81       	ld	r18, Y
cc118e6e:	39 81       	ldd	r19, Y+1	; 0x01
cc118e70:	8c 81       	ldd	r24, Y+4	; 0x04
cc118e72:	9d 81       	ldd	r25, Y+5	; 0x05
cc118e74:	b7 01       	movw	r22, r14
cc118e76:	82 0f       	add	r24, r18
cc118e78:	93 1f       	adc	r25, r19
cc118e7a:	0e 94 00 00 	call	0	; 0x0 <__tmp_reg__>
cc118e7e:	1d 83       	std	Y+5, r17	; 0x05
cc118e80:	0c 83       	std	Y+4, r16	; 0x04
cc118e82:	81 e0       	ldi	r24, 0x01	; 1
cc118e84:	df 91       	pop	r29
cc118e86:	cf 91       	pop	r28
cc118e88:	1f 91       	pop	r17
cc118e8a:	0f 91       	pop	r16
cc118e8c:	ff 90       	pop	r15
cc118e8e:	ef 90       	pop	r14
cc118e90:	08 95       	ret

Disassembly of section .text._ZplRK15StringSumHelperRK6String:

98231cc6 <_ZplRK15StringSumHelperRK6String>:
98231cc6:	cf 93       	push	r28
98231cc8:	df 93       	push	r29
98231cca:	ec 01       	movw	r28, r24
98231ccc:	fb 01       	movw	r30, r22
98231cce:	44 81       	ldd	r20, Z+4	; 0x04
98231cd0:	55 81       	ldd	r21, Z+5	; 0x05
98231cd2:	60 81       	ld	r22, Z
98231cd4:	71 81       	ldd	r23, Z+1	; 0x01
98231cd6:	0e 94 00 00 	call	0	; 0x0 <__tmp_reg__>
98231cda:	81 11       	cpse	r24, r1
98231cdc:	00 c0       	rjmp	.+0      	; 0x98231cde <_ZN6StringaSERKS_+0x9822753c>
98231cde:	ce 01       	movw	r24, r28
98231ce0:	0e 94 00 00 	call	0	; 0x0 <__tmp_reg__>
98231ce4:	ce 01       	movw	r24, r28
98231ce6:	df 91       	pop	r29
98231ce8:	cf 91       	pop	r28
98231cea:	08 95       	ret

Disassembly of section .text._ZplRK15StringSumHelperPKc:

304639b2 <_ZplRK15StringSumHelperPKc>:
304639b2:	cf 93       	push	r28
304639b4:	df 93       	push	r29
304639b6:	ec 01       	movw	r28, r24
304639b8:	61 15       	cp	r22, r1
304639ba:	71 05       	cpc	r23, r1
304639bc:	01 f0       	breq	.+0      	; 0x304639be <_ZN6StringaSERKS_+0x3045921c>
304639be:	fb 01       	movw	r30, r22
304639c0:	01 90       	ld	r0, Z+
304639c2:	00 20       	and	r0, r0
304639c4:	01 f4       	brne	.+0      	; 0x304639c6 <_ZN6StringaSERKS_+0x30459224>
304639c6:	af 01       	movw	r20, r30
304639c8:	41 50       	subi	r20, 0x01	; 1
304639ca:	51 09       	sbc	r21, r1
304639cc:	46 1b       	sub	r20, r22
304639ce:	57 0b       	sbc	r21, r23
304639d0:	0e 94 00 00 	call	0	; 0x0 <__tmp_reg__>
304639d4:	81 11       	cpse	r24, r1
304639d6:	00 c0       	rjmp	.+0      	; 0x304639d8 <_ZN6StringaSERKS_+0x30459236>
304639d8:	ce 01       	movw	r24, r28
304639da:	0e 94 00 00 	call	0	; 0x0 <__tmp_reg__>
304639de:	ce 01       	movw	r24, r28
304639e0:	df 91       	pop	r29
304639e2:	cf 91       	pop	r28
304639e4:	08 95       	ret

Disassembly of section .text._ZplRK15StringSumHelperc:

608c7398 <_ZplRK15StringSumHelperc>:
608c7398:	cf 93       	push	r28
608c739a:	df 93       	push	r29
608c739c:	ec 01       	movw	r28, r24
608c739e:	0e 94 00 00 	call	0	; 0x0 <__tmp_reg__>
608c73a2:	81 11       	cpse	r24, r1
608c73a4:	00 c0       	rjmp	.+0      	; 0x608c73a6 <_ZN6StringaSERKS_+0x608bcc04>
608c73a6:	ce 01       	movw	r24, r28
608c73a8:	0e 94 00 00 	call	0	; 0x0 <__tmp_reg__>
608c73ac:	ce 01       	movw	r24, r28
608c73ae:	df 91       	pop	r29
608c73b0:	cf 91       	pop	r28
608c73b2:	08 95       	ret

Disassembly of section .text._ZplRK15StringSumHelperh:

c118e74c <_ZplRK15StringSumHelperh>:
c118e74c:	cf 93       	push	r28
c118e74e:	df 93       	push	r29
c118e750:	ec 01       	movw	r28, r24
c118e752:	0e 94 00 00 	call	0	; 0x0 <__tmp_reg__>
c118e756:	81 11       	cpse	r24, r1
c118e758:	00 c0       	rjmp	.+0      	; 0xc118e75a <_ZN6StringaSERKS_+0xc1183fb8>
c118e75a:	ce 01       	movw	r24, r28
c118e75c:	0e 94 00 00 	call	0	; 0x0 <__tmp_reg__>
c118e760:	ce 01       	movw	r24, r28
c118e762:	df 91       	pop	r29
c118e764:	cf 91       	pop	r28
c118e766:	08 95       	ret

Disassembly of section .text._ZplRK15StringSumHelperi:

8231ceb4 <_ZplRK15StringSumHelperi>:
8231ceb4:	cf 93       	push	r28
8231ceb6:	df 93       	push	r29
8231ceb8:	ec 01       	movw	r28, r24
8231ceba:	0e 94 00 00 	call	0	; 0x0 <__tmp_reg__>
8231cebe:	81 11       	cpse	r24, r1
8231cec0:	00 c0       	rjmp	.+0      	; 0x8231cec2 <_ZN6StringaSERKS_+0x82312720>
8231cec2:	ce 01       	movw	r24, r28
8231cec4:	0e 94 00 00 	call	0	; 0x0 <__tmp_reg__>
8231cec8:	ce 01       	movw	r24, r28
8231ceca:	df 91       	pop	r29
8231cecc:	cf 91       	pop	r28
8231cece:	08 95       	ret

Disassembly of section .text._ZplRK15StringSumHelperj:

04639d84 <_ZplRK15StringSumHelperj>:
 4639d84:	cf 93       	push	r28
 4639d86:	df 93       	push	r29
 4639d88:	ec 01       	movw	r28, r24
 4639d8a:	0e 94 00 00 	call	0	; 0x0 <__tmp_reg__>
 4639d8e:	81 11       	cpse	r24, r1
 4639d90:	00 c0       	rjmp	.+0      	; 0x4639d92 <__tmp_reg__+0x4639d92>
 4639d92:	ce 01       	movw	r24, r28
 4639d94:	0e 94 00 00 	call	0	; 0x0 <__tmp_reg__>
 4639d98:	ce 01       	movw	r24, r28
 4639d9a:	df 91       	pop	r29
 4639d9c:	cf 91       	pop	r28
 4639d9e:	08 95       	ret

Disassembly of section .text._ZplRK15StringSumHelperl:

08c73b24 <_ZplRK15StringSumHelperl>:
 8c73b24:	cf 93       	push	r28
 8c73b26:	df 93       	push	r29
 8c73b28:	ec 01       	movw	r28, r24
 8c73b2a:	0e 94 00 00 	call	0	; 0x0 <__tmp_reg__>
 8c73b2e:	81 11       	cpse	r24, r1
 8c73b30:	00 c0       	rjmp	.+0      	; 0x8c73b32 <__tmp_reg__+0x8c73b32>
 8c73b32:	ce 01       	movw	r24, r28
 8c73b34:	0e 94 00 00 	call	0	; 0x0 <__tmp_reg__>
 8c73b38:	ce 01       	movw	r24, r28
 8c73b3a:	df 91       	pop	r29
 8c73b3c:	cf 91       	pop	r28
 8c73b3e:	08 95       	ret

Disassembly of section .text._ZplRK15StringSumHelperm:

118e7664 <_ZplRK15StringSumHelperm>:
118e7664:	cf 93       	push	r28
118e7666:	df 93       	push	r29
118e7668:	ec 01       	movw	r28, r24
118e766a:	0e 94 00 00 	call	0	; 0x0 <__tmp_reg__>
118e766e:	81 11       	cpse	r24, r1
118e7670:	00 c0       	rjmp	.+0      	; 0x118e7672 <_ZN6StringaSERKS_+0x118dced0>
118e7672:	ce 01       	movw	r24, r28
118e7674:	0e 94 00 00 	call	0	; 0x0 <__tmp_reg__>
118e7678:	ce 01       	movw	r24, r28
118e767a:	df 91       	pop	r29
118e767c:	cf 91       	pop	r28
118e767e:	08 95       	ret

Disassembly of section .text._ZplRK15StringSumHelperf:

231cece4 <_ZplRK15StringSumHelperf>:
231cece4:	cf 93       	push	r28
231cece6:	df 93       	push	r29
231cece8:	ec 01       	movw	r28, r24
231cecea:	0e 94 00 00 	call	0	; 0x0 <__tmp_reg__>
231cecee:	81 11       	cpse	r24, r1
231cecf0:	00 c0       	rjmp	.+0      	; 0x231cecf2 <_ZN6StringaSERKS_+0x231c4550>
231cecf2:	ce 01       	movw	r24, r28
231cecf4:	0e 94 00 00 	call	0	; 0x0 <__tmp_reg__>
231cecf8:	ce 01       	movw	r24, r28
231cecfa:	df 91       	pop	r29
231cecfc:	cf 91       	pop	r28
231cecfe:	08 95       	ret

Disassembly of section .text._ZplRK15StringSumHelperd:

4639d9e4 <_ZplRK15StringSumHelperd>:
4639d9e4:	cf 93       	push	r28
4639d9e6:	df 93       	push	r29
4639d9e8:	ec 01       	movw	r28, r24
4639d9ea:	0e 94 00 00 	call	0	; 0x0 <__tmp_reg__>
4639d9ee:	81 11       	cpse	r24, r1
4639d9f0:	00 c0       	rjmp	.+0      	; 0x4639d9f2 <_ZN6StringaSERKS_+0x46393250>
4639d9f2:	ce 01       	movw	r24, r28
4639d9f4:	0e 94 00 00 	call	0	; 0x0 <__tmp_reg__>
4639d9f8:	ce 01       	movw	r24, r28
4639d9fa:	df 91       	pop	r29
4639d9fc:	cf 91       	pop	r28
4639d9fe:	08 95       	ret

Disassembly of section .text._ZplRK15StringSumHelperPK19__FlashStringHelper:

8c73b3e4 <_ZplRK15StringSumHelperPK19__FlashStringHelper>:
8c73b3e4:	cf 93       	push	r28
8c73b3e6:	df 93       	push	r29
8c73b3e8:	ec 01       	movw	r28, r24
8c73b3ea:	0e 94 00 00 	call	0	; 0x0 <__tmp_reg__>
8c73b3ee:	81 11       	cpse	r24, r1
8c73b3f0:	00 c0       	rjmp	.+0      	; 0x8c73b3f2 <_ZN6StringaSERKS_+0x8c730c50>
8c73b3f2:	ce 01       	movw	r24, r28
8c73b3f4:	0e 94 00 00 	call	0	; 0x0 <__tmp_reg__>
8c73b3f8:	ce 01       	movw	r24, r28
8c73b3fa:	df 91       	pop	r29
8c73b3fc:	cf 91       	pop	r28
8c73b3fe:	08 95       	ret

Disassembly of section .text._ZNK6String9compareToERKS_:

18e767e4 <_ZNK6String9compareToERKS_>:
18e767e4:	cf 93       	push	r28
18e767e6:	df 93       	push	r29
18e767e8:	dc 01       	movw	r26, r24
18e767ea:	ed 91       	ld	r30, X+
18e767ec:	fc 91       	ld	r31, X
18e767ee:	eb 01       	movw	r28, r22
18e767f0:	a8 81       	ld	r26, Y
18e767f2:	b9 81       	ldd	r27, Y+1	; 0x01
18e767f4:	30 97       	sbiw	r30, 0x00	; 0
18e767f6:	01 f0       	breq	.+0      	; 0x18e767f8 <_ZN6StringaSERKS_+0x18e6c056>
18e767f8:	10 97       	sbiw	r26, 0x00	; 0
18e767fa:	01 f4       	brne	.+0      	; 0x18e767fc <_ZN6StringaSERKS_+0x18e6c05a>
18e767fc:	10 97       	sbiw	r26, 0x00	; 0
18e767fe:	01 f0       	breq	.+0      	; 0x18e76800 <_ZN6StringaSERKS_+0x18e6c05e>
18e76800:	eb 01       	movw	r28, r22
18e76802:	2c 81       	ldd	r18, Y+4	; 0x04
18e76804:	3d 81       	ldd	r19, Y+5	; 0x05
18e76806:	23 2b       	or	r18, r19
18e76808:	01 f0       	breq	.+0      	; 0x18e7680a <_ZN6StringaSERKS_+0x18e6c068>
18e7680a:	8c 91       	ld	r24, X
18e7680c:	90 e0       	ldi	r25, 0x00	; 0
18e7680e:	91 95       	neg	r25
18e76810:	81 95       	neg	r24
18e76812:	91 09       	sbc	r25, r1
18e76814:	00 c0       	rjmp	.+0      	; 0x18e76816 <_ZN6StringaSERKS_+0x18e6c074>
18e76816:	30 97       	sbiw	r30, 0x00	; 0
18e76818:	01 f0       	breq	.+0      	; 0x18e7681a <_ZN6StringaSERKS_+0x18e6c078>
18e7681a:	dc 01       	movw	r26, r24
18e7681c:	14 96       	adiw	r26, 0x04	; 4
18e7681e:	8d 91       	ld	r24, X+
18e76820:	9c 91       	ld	r25, X
18e76822:	15 97       	sbiw	r26, 0x05	; 5
18e76824:	89 2b       	or	r24, r25
18e76826:	01 f0       	breq	.+0      	; 0x18e76828 <_ZN6StringaSERKS_+0x18e6c086>
18e76828:	80 81       	ld	r24, Z
18e7682a:	90 e0       	ldi	r25, 0x00	; 0
18e7682c:	00 c0       	rjmp	.+0      	; 0x18e7682e <_ZN6StringaSERKS_+0x18e6c08c>
18e7682e:	bd 01       	movw	r22, r26
18e76830:	cf 01       	movw	r24, r30
18e76832:	df 91       	pop	r29
18e76834:	cf 91       	pop	r28
18e76836:	0c 94 00 00 	jmp	0	; 0x0 <__tmp_reg__>
18e7683a:	80 e0       	ldi	r24, 0x00	; 0
18e7683c:	90 e0       	ldi	r25, 0x00	; 0
18e7683e:	df 91       	pop	r29
18e76840:	cf 91       	pop	r28
18e76842:	08 95       	ret

Disassembly of section .text._ZNK6String6equalsERKS_:

31ced028 <_ZNK6String6equalsERKS_>:
31ced028:	fc 01       	movw	r30, r24
31ced02a:	44 81       	ldd	r20, Z+4	; 0x04
31ced02c:	55 81       	ldd	r21, Z+5	; 0x05
31ced02e:	fb 01       	movw	r30, r22
31ced030:	24 81       	ldd	r18, Z+4	; 0x04
31ced032:	35 81       	ldd	r19, Z+5	; 0x05
31ced034:	42 17       	cp	r20, r18
31ced036:	53 07       	cpc	r21, r19
31ced038:	01 f4       	brne	.+0      	; 0x31ced03a <_ZN6StringaSERKS_+0x31ce2898>
31ced03a:	0e 94 00 00 	call	0	; 0x0 <__tmp_reg__>
31ced03e:	21 e0       	ldi	r18, 0x01	; 1
31ced040:	89 2b       	or	r24, r25
31ced042:	01 f0       	breq	.+0      	; 0x31ced044 <_ZN6StringaSERKS_+0x31ce28a2>
31ced044:	20 e0       	ldi	r18, 0x00	; 0
31ced046:	82 2f       	mov	r24, r18
31ced048:	08 95       	ret
31ced04a:	80 e0       	ldi	r24, 0x00	; 0
31ced04c:	08 95       	ret

Disassembly of section .text._ZNK6String6equalsEPKc:

639da076 <_ZNK6String6equalsEPKc>:
639da076:	fc 01       	movw	r30, r24
639da078:	24 81       	ldd	r18, Z+4	; 0x04
639da07a:	35 81       	ldd	r19, Z+5	; 0x05
639da07c:	23 2b       	or	r18, r19
639da07e:	01 f4       	brne	.+0      	; 0x639da080 <_ZN6StringaSERKS_+0x639cf8de>
639da080:	21 e0       	ldi	r18, 0x01	; 1
639da082:	61 15       	cp	r22, r1
639da084:	71 05       	cpc	r23, r1
639da086:	01 f0       	breq	.+0      	; 0x639da088 <_ZN6StringaSERKS_+0x639cf8e6>
639da088:	fb 01       	movw	r30, r22
639da08a:	00 c0       	rjmp	.+0      	; 0x639da08c <_ZN6StringaSERKS_+0x639cf8ea>
639da08c:	fc 01       	movw	r30, r24
639da08e:	80 81       	ld	r24, Z
639da090:	91 81       	ldd	r25, Z+1	; 0x01
639da092:	61 15       	cp	r22, r1
639da094:	71 05       	cpc	r23, r1
639da096:	01 f4       	brne	.+0      	; 0x639da098 <_ZN6StringaSERKS_+0x639cf8f6>
639da098:	21 e0       	ldi	r18, 0x01	; 1
639da09a:	fc 01       	movw	r30, r24
639da09c:	80 81       	ld	r24, Z
639da09e:	88 23       	and	r24, r24
639da0a0:	01 f0       	breq	.+0      	; 0x639da0a2 <_ZN6StringaSERKS_+0x639cf900>
639da0a2:	00 c0       	rjmp	.+0      	; 0x639da0a4 <_ZN6StringaSERKS_+0x639cf902>
639da0a4:	0e 94 00 00 	call	0	; 0x0 <__tmp_reg__>
639da0a8:	21 e0       	ldi	r18, 0x01	; 1
639da0aa:	89 2b       	or	r24, r25
639da0ac:	01 f0       	breq	.+0      	; 0x639da0ae <_ZN6StringaSERKS_+0x639cf90c>
639da0ae:	20 e0       	ldi	r18, 0x00	; 0
639da0b0:	82 2f       	mov	r24, r18
639da0b2:	08 95       	ret

Disassembly of section .text._ZNK6StringltERKS_:

c73b412a <_ZNK6StringltERKS_>:
c73b412a:	0e 94 00 00 	call	0	; 0x0 <__tmp_reg__>
c73b412e:	89 2f       	mov	r24, r25
c73b4130:	88 1f       	adc	r24, r24
c73b4132:	88 27       	eor	r24, r24
c73b4134:	88 1f       	adc	r24, r24
c73b4136:	08 95       	ret

Disassembly of section .text._ZNK6StringgtERKS_:

8e768262 <_ZNK6StringgtERKS_>:
8e768262:	0e 94 00 00 	call	0	; 0x0 <__tmp_reg__>
8e768266:	21 e0       	ldi	r18, 0x01	; 1
8e768268:	18 16       	cp	r1, r24
8e76826a:	19 06       	cpc	r1, r25
8e76826c:	04 f0       	brlt	.+0      	; 0x8e76826e <_ZN6StringaSERKS_+0x8e75dacc>
8e76826e:	20 e0       	ldi	r18, 0x00	; 0
8e768270:	82 2f       	mov	r24, r18
8e768272:	08 95       	ret

Disassembly of section .text._ZNK6StringleERKS_:

1ced04d6 <_ZNK6StringleERKS_>:
1ced04d6:	0e 94 00 00 	call	0	; 0x0 <__tmp_reg__>
1ced04da:	21 e0       	ldi	r18, 0x01	; 1
1ced04dc:	18 16       	cp	r1, r24
1ced04de:	19 06       	cpc	r1, r25
1ced04e0:	04 f4       	brge	.+0      	; 0x1ced04e2 <_ZN6StringaSERKS_+0x1cec5d40>
1ced04e2:	20 e0       	ldi	r18, 0x00	; 0
1ced04e4:	82 2f       	mov	r24, r18
1ced04e6:	08 95       	ret

Disassembly of section .text._ZNK6StringgeERKS_:

39da09be <_ZNK6StringgeERKS_>:
39da09be:	0e 94 00 00 	call	0	; 0x0 <__tmp_reg__>
39da09c2:	89 2f       	mov	r24, r25
39da09c4:	80 95       	com	r24
39da09c6:	88 1f       	adc	r24, r24
39da09c8:	88 27       	eor	r24, r24
39da09ca:	88 1f       	adc	r24, r24
39da09cc:	08 95       	ret

Disassembly of section .text._ZNK6String16equalsIgnoreCaseERKS_:

73b4138c <_ZNK6String16equalsIgnoreCaseERKS_>:
73b4138c:	ef 92       	push	r14
73b4138e:	ff 92       	push	r15
73b41390:	0f 93       	push	r16
73b41392:	1f 93       	push	r17
73b41394:	cf 93       	push	r28
73b41396:	df 93       	push	r29
73b41398:	86 17       	cp	r24, r22
73b4139a:	97 07       	cpc	r25, r23
73b4139c:	01 f0       	breq	.+0      	; 0x73b4139e <_ZN6StringaSERKS_+0x73b36bfc>
73b4139e:	fc 01       	movw	r30, r24
73b413a0:	24 81       	ldd	r18, Z+4	; 0x04
73b413a2:	35 81       	ldd	r19, Z+5	; 0x05
73b413a4:	fb 01       	movw	r30, r22
73b413a6:	44 81       	ldd	r20, Z+4	; 0x04
73b413a8:	55 81       	ldd	r21, Z+5	; 0x05
73b413aa:	24 17       	cp	r18, r20
73b413ac:	35 07       	cpc	r19, r21
73b413ae:	01 f4       	brne	.+0      	; 0x73b413b0 <_ZN6StringaSERKS_+0x73b36c0e>
73b413b0:	23 2b       	or	r18, r19
73b413b2:	01 f0       	breq	.+0      	; 0x73b413b4 <_ZN6StringaSERKS_+0x73b36c12>
73b413b4:	fc 01       	movw	r30, r24
73b413b6:	00 81       	ld	r16, Z
73b413b8:	11 81       	ldd	r17, Z+1	; 0x01
73b413ba:	fb 01       	movw	r30, r22
73b413bc:	c0 81       	ld	r28, Z
73b413be:	d1 81       	ldd	r29, Z+1	; 0x01
73b413c0:	f8 01       	movw	r30, r16
73b413c2:	81 91       	ld	r24, Z+
73b413c4:	8f 01       	movw	r16, r30
73b413c6:	88 23       	and	r24, r24
73b413c8:	01 f0       	breq	.+0      	; 0x73b413ca <_ZN6StringaSERKS_+0x73b36c28>
73b413ca:	90 e0       	ldi	r25, 0x00	; 0
73b413cc:	0e 94 00 00 	call	0	; 0x0 <__tmp_reg__>
73b413d0:	7c 01       	movw	r14, r24
73b413d2:	89 91       	ld	r24, Y+
73b413d4:	90 e0       	ldi	r25, 0x00	; 0
73b413d6:	0e 94 00 00 	call	0	; 0x0 <__tmp_reg__>
73b413da:	e8 16       	cp	r14, r24
73b413dc:	f9 06       	cpc	r15, r25
73b413de:	01 f0       	breq	.+0      	; 0x73b413e0 <_ZN6StringaSERKS_+0x73b36c3e>
73b413e0:	00 c0       	rjmp	.+0      	; 0x73b413e2 <_ZN6StringaSERKS_+0x73b36c40>
73b413e2:	81 e0       	ldi	r24, 0x01	; 1
73b413e4:	00 c0       	rjmp	.+0      	; 0x73b413e6 <_ZN6StringaSERKS_+0x73b36c44>
73b413e6:	80 e0       	ldi	r24, 0x00	; 0
73b413e8:	df 91       	pop	r29
73b413ea:	cf 91       	pop	r28
73b413ec:	1f 91       	pop	r17
73b413ee:	0f 91       	pop	r16
73b413f0:	ff 90       	pop	r15
73b413f2:	ef 90       	pop	r14
73b413f4:	08 95       	ret

Disassembly of section .text._ZNK6String10startsWithERKS_j:

e7682782 <_ZNK6String10startsWithERKS_j>:
e7682782:	fa 01       	movw	r30, r20
e7682784:	db 01       	movw	r26, r22
e7682786:	14 96       	adiw	r26, 0x04	; 4
e7682788:	4d 91       	ld	r20, X+
e768278a:	5c 91       	ld	r21, X
e768278c:	15 97       	sbiw	r26, 0x05	; 5
e768278e:	dc 01       	movw	r26, r24
e7682790:	14 96       	adiw	r26, 0x04	; 4
e7682792:	2d 91       	ld	r18, X+
e7682794:	3c 91       	ld	r19, X
e7682796:	15 97       	sbiw	r26, 0x05	; 5
e7682798:	24 1b       	sub	r18, r20
e768279a:	35 0b       	sbc	r19, r21
e768279c:	2e 17       	cp	r18, r30
e768279e:	3f 07       	cpc	r19, r31
e76827a0:	00 f0       	brcs	.+0      	; 0xe76827a2 <_ZN6StringaSERKS_+0xe7678000>
e76827a2:	8d 91       	ld	r24, X+
e76827a4:	9c 91       	ld	r25, X
e76827a6:	00 97       	sbiw	r24, 0x00	; 0
e76827a8:	01 f0       	breq	.+0      	; 0xe76827aa <_ZN6StringaSERKS_+0xe7678008>
e76827aa:	db 01       	movw	r26, r22
e76827ac:	6d 91       	ld	r22, X+
e76827ae:	7c 91       	ld	r23, X
e76827b0:	61 15       	cp	r22, r1
e76827b2:	71 05       	cpc	r23, r1
e76827b4:	01 f0       	breq	.+0      	; 0xe76827b6 <_ZN6StringaSERKS_+0xe7678014>
e76827b6:	8e 0f       	add	r24, r30
e76827b8:	9f 1f       	adc	r25, r31
e76827ba:	0e 94 00 00 	call	0	; 0x0 <__tmp_reg__>
e76827be:	21 e0       	ldi	r18, 0x01	; 1
e76827c0:	89 2b       	or	r24, r25
e76827c2:	01 f0       	breq	.+0      	; 0xe76827c4 <_ZN6StringaSERKS_+0xe7678022>
e76827c4:	20 e0       	ldi	r18, 0x00	; 0
e76827c6:	82 2f       	mov	r24, r18
e76827c8:	08 95       	ret

Disassembly of section .text._ZNK6String10startsWithERKS_:

ced04f4c <_ZNK6String10startsWithERKS_>:
ced04f4c:	fc 01       	movw	r30, r24
ced04f4e:	44 81       	ldd	r20, Z+4	; 0x04
ced04f50:	55 81       	ldd	r21, Z+5	; 0x05
ced04f52:	fb 01       	movw	r30, r22
ced04f54:	24 81       	ldd	r18, Z+4	; 0x04
ced04f56:	35 81       	ldd	r19, Z+5	; 0x05
ced04f58:	42 17       	cp	r20, r18
ced04f5a:	53 07       	cpc	r21, r19
ced04f5c:	00 f0       	brcs	.+0      	; 0xced04f5e <_ZN6StringaSERKS_+0xcecfa7bc>
ced04f5e:	40 e0       	ldi	r20, 0x00	; 0
ced04f60:	50 e0       	ldi	r21, 0x00	; 0
ced04f62:	0c 94 00 00 	jmp	0	; 0x0 <__tmp_reg__>
ced04f66:	80 e0       	ldi	r24, 0x00	; 0
ced04f68:	08 95       	ret

Disassembly of section .text._ZNK6String8endsWithERKS_:

9da09eb6 <_ZNK6String8endsWithERKS_>:
9da09eb6:	fc 01       	movw	r30, r24
9da09eb8:	84 81       	ldd	r24, Z+4	; 0x04
9da09eba:	95 81       	ldd	r25, Z+5	; 0x05
9da09ebc:	db 01       	movw	r26, r22
9da09ebe:	14 96       	adiw	r26, 0x04	; 4
9da09ec0:	4d 91       	ld	r20, X+
9da09ec2:	5c 91       	ld	r21, X
9da09ec4:	15 97       	sbiw	r26, 0x05	; 5
9da09ec6:	84 17       	cp	r24, r20
9da09ec8:	95 07       	cpc	r25, r21
9da09eca:	00 f0       	brcs	.+0      	; 0x9da09ecc <_ZN6StringaSERKS_+0x9d9ff72a>
9da09ecc:	20 81       	ld	r18, Z
9da09ece:	31 81       	ldd	r19, Z+1	; 0x01
9da09ed0:	21 15       	cp	r18, r1
9da09ed2:	31 05       	cpc	r19, r1
9da09ed4:	01 f0       	breq	.+0      	; 0x9da09ed6 <_ZN6StringaSERKS_+0x9d9ff734>
9da09ed6:	6d 91       	ld	r22, X+
9da09ed8:	7c 91       	ld	r23, X
9da09eda:	61 15       	cp	r22, r1
9da09edc:	71 05       	cpc	r23, r1
9da09ede:	01 f0       	breq	.+0      	; 0x9da09ee0 <_ZN6StringaSERKS_+0x9d9ff73e>
9da09ee0:	84 1b       	sub	r24, r20
9da09ee2:	95 0b       	sbc	r25, r21
9da09ee4:	82 0f       	add	r24, r18
9da09ee6:	93 1f       	adc	r25, r19
9da09ee8:	0e 94 00 00 	call	0	; 0x0 <__tmp_reg__>
9da09eec:	21 e0       	ldi	r18, 0x01	; 1
9da09eee:	89 2b       	or	r24, r25
9da09ef0:	01 f0       	breq	.+0      	; 0x9da09ef2 <_ZN6StringaSERKS_+0x9d9ff750>
9da09ef2:	20 e0       	ldi	r18, 0x00	; 0
9da09ef4:	82 2f       	mov	r24, r18
9da09ef6:	08 95       	ret

Disassembly of section .text._ZN6String9setCharAtEjc:

3b413dae <_ZN6String9setCharAtEjc>:
3b413dae:	dc 01       	movw	r26, r24
3b413db0:	14 96       	adiw	r26, 0x04	; 4
3b413db2:	2d 91       	ld	r18, X+
3b413db4:	3c 91       	ld	r19, X
3b413db6:	15 97       	sbiw	r26, 0x05	; 5
3b413db8:	62 17       	cp	r22, r18
3b413dba:	73 07       	cpc	r23, r19
3b413dbc:	00 f4       	brcc	.+0      	; 0x3b413dbe <_ZN6StringaSERKS_+0x3b40961c>
3b413dbe:	ed 91       	ld	r30, X+
3b413dc0:	fc 91       	ld	r31, X
3b413dc2:	e6 0f       	add	r30, r22
3b413dc4:	f7 1f       	adc	r31, r23
3b413dc6:	40 83       	st	Z, r20
3b413dc8:	08 95       	ret

Disassembly of section .text._ZN6StringixEj:

76827b78 <_ZN6StringixEj>:
76827b78:	fc 01       	movw	r30, r24
76827b7a:	84 81       	ldd	r24, Z+4	; 0x04
76827b7c:	95 81       	ldd	r25, Z+5	; 0x05
76827b7e:	68 17       	cp	r22, r24
76827b80:	79 07       	cpc	r23, r25
76827b82:	00 f4       	brcc	.+0      	; 0x76827b84 <_ZN6StringaSERKS_+0x7681d3e2>
76827b84:	80 81       	ld	r24, Z
76827b86:	91 81       	ldd	r25, Z+1	; 0x01
76827b88:	00 97       	sbiw	r24, 0x00	; 0
76827b8a:	01 f4       	brne	.+0      	; 0x76827b8c <_ZN6StringaSERKS_+0x7681d3ea>
76827b8c:	10 92 00 00 	sts	0x0000, r1
76827b90:	80 e0       	ldi	r24, 0x00	; 0
76827b92:	90 e0       	ldi	r25, 0x00	; 0
76827b94:	08 95       	ret
76827b96:	86 0f       	add	r24, r22
76827b98:	97 1f       	adc	r25, r23
76827b9a:	08 95       	ret

Disassembly of section .text._ZNK6StringixEj:

ed04f714 <_ZNK6StringixEj>:
ed04f714:	fc 01       	movw	r30, r24
ed04f716:	24 81       	ldd	r18, Z+4	; 0x04
ed04f718:	35 81       	ldd	r19, Z+5	; 0x05
ed04f71a:	62 17       	cp	r22, r18
ed04f71c:	73 07       	cpc	r23, r19
ed04f71e:	00 f4       	brcc	.+0      	; 0xed04f720 <_ZN6StringaSERKS_+0xed044f7e>
ed04f720:	80 81       	ld	r24, Z
ed04f722:	91 81       	ldd	r25, Z+1	; 0x01
ed04f724:	00 97       	sbiw	r24, 0x00	; 0
ed04f726:	01 f0       	breq	.+0      	; 0xed04f728 <_ZN6StringaSERKS_+0xed044f86>
ed04f728:	fc 01       	movw	r30, r24
ed04f72a:	e6 0f       	add	r30, r22
ed04f72c:	f7 1f       	adc	r31, r23
ed04f72e:	80 81       	ld	r24, Z
ed04f730:	08 95       	ret
ed04f732:	80 e0       	ldi	r24, 0x00	; 0
ed04f734:	08 95       	ret

Disassembly of section .text._ZNK6String6charAtEj:

da09ee4a <_ZNK6String6charAtEj>:
da09ee4a:	0c 94 00 00 	jmp	0	; 0x0 <__tmp_reg__>

Disassembly of section .text._ZNK6String8getBytesEPhjj:

b413dc98 <_ZNK6String8getBytesEPhjj>:
b413dc98:	0f 93       	push	r16
b413dc9a:	1f 93       	push	r17
b413dc9c:	cf 93       	push	r28
b413dc9e:	df 93       	push	r29
b413dca0:	eb 01       	movw	r28, r22
b413dca2:	41 15       	cp	r20, r1
b413dca4:	51 05       	cpc	r21, r1
b413dca6:	01 f0       	breq	.+0      	; 0xb413dca8 <_ZN6StringaSERKS_+0xb4133506>
b413dca8:	20 97       	sbiw	r28, 0x00	; 0
b413dcaa:	01 f0       	breq	.+0      	; 0xb413dcac <_ZN6StringaSERKS_+0xb413350a>
b413dcac:	fc 01       	movw	r30, r24
b413dcae:	64 81       	ldd	r22, Z+4	; 0x04
b413dcb0:	75 81       	ldd	r23, Z+5	; 0x05
b413dcb2:	26 17       	cp	r18, r22
b413dcb4:	37 07       	cpc	r19, r23
b413dcb6:	00 f4       	brcc	.+0      	; 0xb413dcb8 <_ZN6StringaSERKS_+0xb4133516>
b413dcb8:	62 1b       	sub	r22, r18
b413dcba:	73 0b       	sbc	r23, r19
b413dcbc:	8a 01       	movw	r16, r20
b413dcbe:	01 50       	subi	r16, 0x01	; 1
b413dcc0:	11 09       	sbc	r17, r1
b413dcc2:	60 17       	cp	r22, r16
b413dcc4:	71 07       	cpc	r23, r17
b413dcc6:	00 f4       	brcc	.+0      	; 0xb413dcc8 <_ZN6StringaSERKS_+0xb4133526>
b413dcc8:	8b 01       	movw	r16, r22
b413dcca:	fc 01       	movw	r30, r24
b413dccc:	60 81       	ld	r22, Z
b413dcce:	71 81       	ldd	r23, Z+1	; 0x01
b413dcd0:	62 0f       	add	r22, r18
b413dcd2:	73 1f       	adc	r23, r19
b413dcd4:	a8 01       	movw	r20, r16
b413dcd6:	ce 01       	movw	r24, r28
b413dcd8:	0e 94 00 00 	call	0	; 0x0 <__tmp_reg__>
b413dcdc:	c0 0f       	add	r28, r16
b413dcde:	d1 1f       	adc	r29, r17
b413dce0:	18 82       	st	Y, r1
b413dce2:	df 91       	pop	r29
b413dce4:	cf 91       	pop	r28
b413dce6:	1f 91       	pop	r17
b413dce8:	0f 91       	pop	r16
b413dcea:	08 95       	ret

Disassembly of section .text._ZNK6String7indexOfEcj:

6827b984 <_ZNK6String7indexOfEcj>:
6827b984:	cf 93       	push	r28
6827b986:	df 93       	push	r29
6827b988:	fc 01       	movw	r30, r24
6827b98a:	84 81       	ldd	r24, Z+4	; 0x04
6827b98c:	95 81       	ldd	r25, Z+5	; 0x05
6827b98e:	48 17       	cp	r20, r24
6827b990:	59 07       	cpc	r21, r25
6827b992:	00 f4       	brcc	.+0      	; 0x6827b994 <_ZN6StringaSERKS_+0x682711f2>
6827b994:	c0 81       	ld	r28, Z
6827b996:	d1 81       	ldd	r29, Z+1	; 0x01
6827b998:	70 e0       	ldi	r23, 0x00	; 0
6827b99a:	ce 01       	movw	r24, r28
6827b99c:	84 0f       	add	r24, r20
6827b99e:	95 1f       	adc	r25, r21
6827b9a0:	0e 94 00 00 	call	0	; 0x0 <__tmp_reg__>
6827b9a4:	00 97       	sbiw	r24, 0x00	; 0
6827b9a6:	01 f0       	breq	.+0      	; 0x6827b9a8 <_ZN6StringaSERKS_+0x68271206>
6827b9a8:	8c 1b       	sub	r24, r28
6827b9aa:	9d 0b       	sbc	r25, r29
6827b9ac:	00 c0       	rjmp	.+0      	; 0x6827b9ae <_ZN6StringaSERKS_+0x6827120c>
6827b9ae:	8f ef       	ldi	r24, 0xFF	; 255
6827b9b0:	9f ef       	ldi	r25, 0xFF	; 255
6827b9b2:	df 91       	pop	r29
6827b9b4:	cf 91       	pop	r28
6827b9b6:	08 95       	ret

Disassembly of section .text._ZNK6String7indexOfEc:

d04f733c <_ZNK6String7indexOfEc>:
d04f733c:	40 e0       	ldi	r20, 0x00	; 0
d04f733e:	50 e0       	ldi	r21, 0x00	; 0
d04f7340:	0c 94 00 00 	jmp	0	; 0x0 <__tmp_reg__>

Disassembly of section .text._ZNK6String7indexOfERKS_j:

a09ee680 <_ZNK6String7indexOfERKS_j>:
a09ee680:	cf 93       	push	r28
a09ee682:	df 93       	push	r29
a09ee684:	fc 01       	movw	r30, r24
a09ee686:	84 81       	ldd	r24, Z+4	; 0x04
a09ee688:	95 81       	ldd	r25, Z+5	; 0x05
a09ee68a:	48 17       	cp	r20, r24
a09ee68c:	59 07       	cpc	r21, r25
a09ee68e:	00 f4       	brcc	.+0      	; 0xa09ee690 <_ZN6StringaSERKS_+0xa09e3eee>
a09ee690:	c0 81       	ld	r28, Z
a09ee692:	d1 81       	ldd	r29, Z+1	; 0x01
a09ee694:	fb 01       	movw	r30, r22
a09ee696:	60 81       	ld	r22, Z
a09ee698:	71 81       	ldd	r23, Z+1	; 0x01
a09ee69a:	ce 01       	movw	r24, r28
a09ee69c:	84 0f       	add	r24, r20
a09ee69e:	95 1f       	adc	r25, r21
a09ee6a0:	0e 94 00 00 	call	0	; 0x0 <__tmp_reg__>
a09ee6a4:	00 97       	sbiw	r24, 0x00	; 0
a09ee6a6:	01 f0       	breq	.+0      	; 0xa09ee6a8 <_ZN6StringaSERKS_+0xa09e3f06>
a09ee6a8:	8c 1b       	sub	r24, r28
a09ee6aa:	9d 0b       	sbc	r25, r29
a09ee6ac:	00 c0       	rjmp	.+0      	; 0xa09ee6ae <_ZN6StringaSERKS_+0xa09e3f0c>
a09ee6ae:	8f ef       	ldi	r24, 0xFF	; 255
a09ee6b0:	9f ef       	ldi	r25, 0xFF	; 255
a09ee6b2:	df 91       	pop	r29
a09ee6b4:	cf 91       	pop	r28
a09ee6b6:	08 95       	ret

Disassembly of section .text._ZNK6String7indexOfERKS_:

413dcd38 <_ZNK6String7indexOfERKS_>:
413dcd38:	40 e0       	ldi	r20, 0x00	; 0
413dcd3a:	50 e0       	ldi	r21, 0x00	; 0
413dcd3c:	0c 94 00 00 	jmp	0	; 0x0 <__tmp_reg__>

Disassembly of section .text._ZNK6String11lastIndexOfEcj:

827b9a78 <_ZNK6String11lastIndexOfEcj>:
827b9a78:	df 92       	push	r13
827b9a7a:	ef 92       	push	r14
827b9a7c:	ff 92       	push	r15
827b9a7e:	0f 93       	push	r16
827b9a80:	1f 93       	push	r17
827b9a82:	cf 93       	push	r28
827b9a84:	df 93       	push	r29
827b9a86:	ec 01       	movw	r28, r24
827b9a88:	8c 81       	ldd	r24, Y+4	; 0x04
827b9a8a:	9d 81       	ldd	r25, Y+5	; 0x05
827b9a8c:	48 17       	cp	r20, r24
827b9a8e:	59 07       	cpc	r21, r25
827b9a90:	00 f0       	brcs	.+0      	; 0x827b9a92 <_ZN6StringaSERKS_+0x827af2f0>
827b9a92:	8f ef       	ldi	r24, 0xFF	; 255
827b9a94:	9f ef       	ldi	r25, 0xFF	; 255
827b9a96:	00 c0       	rjmp	.+0      	; 0x827b9a98 <_ZN6StringaSERKS_+0x827af2f6>
827b9a98:	8a 01       	movw	r16, r20
827b9a9a:	0f 5f       	subi	r16, 0xFF	; 255
827b9a9c:	1f 4f       	sbci	r17, 0xFF	; 255
827b9a9e:	e8 81       	ld	r30, Y
827b9aa0:	f9 81       	ldd	r31, Y+1	; 0x01
827b9aa2:	e0 0f       	add	r30, r16
827b9aa4:	f1 1f       	adc	r31, r17
827b9aa6:	d0 80       	ld	r13, Z
827b9aa8:	10 82       	st	Z, r1
827b9aaa:	e8 80       	ld	r14, Y
827b9aac:	f9 80       	ldd	r15, Y+1	; 0x01
827b9aae:	70 e0       	ldi	r23, 0x00	; 0
827b9ab0:	c7 01       	movw	r24, r14
827b9ab2:	0e 94 00 00 	call	0	; 0x0 <__tmp_reg__>
827b9ab6:	f7 01       	movw	r30, r14
827b9ab8:	e0 0f       	add	r30, r16
827b9aba:	f1 1f       	adc	r31, r17
827b9abc:	d0 82       	st	Z, r13
827b9abe:	00 97       	sbiw	r24, 0x00	; 0
827b9ac0:	01 f0       	breq	.+0      	; 0x827b9ac2 <_ZN6StringaSERKS_+0x827af320>
827b9ac2:	28 81       	ld	r18, Y
827b9ac4:	39 81       	ldd	r19, Y+1	; 0x01
827b9ac6:	82 1b       	sub	r24, r18
827b9ac8:	93 0b       	sbc	r25, r19
827b9aca:	df 91       	pop	r29
827b9acc:	cf 91       	pop	r28
827b9ace:	1f 91       	pop	r17
827b9ad0:	0f 91       	pop	r16
827b9ad2:	ff 90       	pop	r15
827b9ad4:	ef 90       	pop	r14
827b9ad6:	df 90       	pop	r13
827b9ad8:	08 95       	ret

Disassembly of section .text._ZNK6String11lastIndexOfEc:

04f73552 <_ZNK6String11lastIndexOfEc>:
 4f73552:	fc 01       	movw	r30, r24
 4f73554:	44 81       	ldd	r20, Z+4	; 0x04
 4f73556:	55 81       	ldd	r21, Z+5	; 0x05
 4f73558:	41 50       	subi	r20, 0x01	; 1
 4f7355a:	51 09       	sbc	r21, r1
 4f7355c:	0c 94 00 00 	jmp	0	; 0x0 <__tmp_reg__>

Disassembly of section .text._ZNK6String11lastIndexOfERKS_j:

09ee6ab2 <_ZNK6String11lastIndexOfERKS_j>:
 9ee6ab2:	af 92       	push	r10
 9ee6ab4:	bf 92       	push	r11
 9ee6ab6:	cf 92       	push	r12
 9ee6ab8:	df 92       	push	r13
 9ee6aba:	ef 92       	push	r14
 9ee6abc:	ff 92       	push	r15
 9ee6abe:	0f 93       	push	r16
 9ee6ac0:	1f 93       	push	r17
 9ee6ac2:	cf 93       	push	r28
 9ee6ac4:	df 93       	push	r29
 9ee6ac6:	7b 01       	movw	r14, r22
 9ee6ac8:	ea 01       	movw	r28, r20
 9ee6aca:	fb 01       	movw	r30, r22
 9ee6acc:	44 81       	ldd	r20, Z+4	; 0x04
 9ee6ace:	55 81       	ldd	r21, Z+5	; 0x05
 9ee6ad0:	41 15       	cp	r20, r1
 9ee6ad2:	51 05       	cpc	r21, r1
 9ee6ad4:	01 f0       	breq	.+0      	; 0x9ee6ad6 <__tmp_reg__+0x9ee6ad6>
 9ee6ad6:	fc 01       	movw	r30, r24
 9ee6ad8:	24 81       	ldd	r18, Z+4	; 0x04
 9ee6ada:	35 81       	ldd	r19, Z+5	; 0x05
 9ee6adc:	21 15       	cp	r18, r1
 9ee6ade:	31 05       	cpc	r19, r1
 9ee6ae0:	01 f0       	breq	.+0      	; 0x9ee6ae2 <__tmp_reg__+0x9ee6ae2>
 9ee6ae2:	24 17       	cp	r18, r20
 9ee6ae4:	35 07       	cpc	r19, r21
 9ee6ae6:	00 f0       	brcs	.+0      	; 0x9ee6ae8 <__tmp_reg__+0x9ee6ae8>
 9ee6ae8:	c2 17       	cp	r28, r18
 9ee6aea:	d3 07       	cpc	r29, r19
 9ee6aec:	00 f0       	brcs	.+0      	; 0x9ee6aee <__tmp_reg__+0x9ee6aee>
 9ee6aee:	e9 01       	movw	r28, r18
 9ee6af0:	21 97       	sbiw	r28, 0x01	; 1
 9ee6af2:	fc 01       	movw	r30, r24
 9ee6af4:	00 81       	ld	r16, Z
 9ee6af6:	11 81       	ldd	r17, Z+1	; 0x01
 9ee6af8:	c8 01       	movw	r24, r16
 9ee6afa:	aa 24       	eor	r10, r10
 9ee6afc:	aa 94       	dec	r10
 9ee6afe:	bb 24       	eor	r11, r11
 9ee6b00:	ba 94       	dec	r11
 9ee6b02:	68 01       	movw	r12, r16
 9ee6b04:	cc 0e       	add	r12, r28
 9ee6b06:	dd 1e       	adc	r13, r29
 9ee6b08:	c8 16       	cp	r12, r24
 9ee6b0a:	d9 06       	cpc	r13, r25
 9ee6b0c:	00 f0       	brcs	.+0      	; 0x9ee6b0e <__tmp_reg__+0x9ee6b0e>
 9ee6b0e:	f7 01       	movw	r30, r14
 9ee6b10:	60 81       	ld	r22, Z
 9ee6b12:	71 81       	ldd	r23, Z+1	; 0x01
 9ee6b14:	0e 94 00 00 	call	0	; 0x0 <__tmp_reg__>
 9ee6b18:	00 97       	sbiw	r24, 0x00	; 0
 9ee6b1a:	01 f0       	breq	.+0      	; 0x9ee6b1c <__tmp_reg__+0x9ee6b1c>
 9ee6b1c:	9c 01       	movw	r18, r24
 9ee6b1e:	20 1b       	sub	r18, r16
 9ee6b20:	31 0b       	sbc	r19, r17
 9ee6b22:	c2 17       	cp	r28, r18
 9ee6b24:	d3 07       	cpc	r29, r19
 9ee6b26:	00 f4       	brcc	.+0      	; 0x9ee6b28 <__tmp_reg__+0x9ee6b28>
 9ee6b28:	95 01       	movw	r18, r10
 9ee6b2a:	01 96       	adiw	r24, 0x01	; 1
 9ee6b2c:	59 01       	movw	r10, r18
 9ee6b2e:	00 c0       	rjmp	.+0      	; 0x9ee6b30 <__tmp_reg__+0x9ee6b30>
 9ee6b30:	8f ef       	ldi	r24, 0xFF	; 255
 9ee6b32:	9f ef       	ldi	r25, 0xFF	; 255
 9ee6b34:	00 c0       	rjmp	.+0      	; 0x9ee6b36 <__tmp_reg__+0x9ee6b36>
 9ee6b36:	c5 01       	movw	r24, r10
 9ee6b38:	df 91       	pop	r29
 9ee6b3a:	cf 91       	pop	r28
 9ee6b3c:	1f 91       	pop	r17
 9ee6b3e:	0f 91       	pop	r16
 9ee6b40:	ff 90       	pop	r15
 9ee6b42:	ef 90       	pop	r14
 9ee6b44:	df 90       	pop	r13
 9ee6b46:	cf 90       	pop	r12
 9ee6b48:	bf 90       	pop	r11
 9ee6b4a:	af 90       	pop	r10
 9ee6b4c:	08 95       	ret

Disassembly of section .text._ZNK6String11lastIndexOfERKS_:

13dcd600 <_ZNK6String11lastIndexOfERKS_>:
13dcd600:	fc 01       	movw	r30, r24
13dcd602:	44 81       	ldd	r20, Z+4	; 0x04
13dcd604:	55 81       	ldd	r21, Z+5	; 0x05
13dcd606:	fb 01       	movw	r30, r22
13dcd608:	24 81       	ldd	r18, Z+4	; 0x04
13dcd60a:	35 81       	ldd	r19, Z+5	; 0x05
13dcd60c:	42 1b       	sub	r20, r18
13dcd60e:	53 0b       	sbc	r21, r19
13dcd610:	0c 94 00 00 	jmp	0	; 0x0 <__tmp_reg__>

Disassembly of section .text._ZNK6String9substringEjj:

4f735829 <_ZNK6String9substringEjj>:
4f735829:	bf 92       	push	r11
4f73582b:	cf 92       	push	r12
4f73582d:	df 92       	push	r13
4f73582f:	ef 92       	push	r14
4f735831:	ff 92       	push	r15
4f735833:	0f 93       	push	r16
4f735835:	1f 93       	push	r17
4f735837:	cf 93       	push	r28
4f735839:	df 93       	push	r29
4f73583b:	6c 01       	movw	r12, r24
4f73583d:	7b 01       	movw	r14, r22
4f73583f:	ea 01       	movw	r28, r20
4f735841:	89 01       	movw	r16, r18
4f735843:	24 17       	cp	r18, r20
4f735845:	35 07       	cpc	r19, r21
4f735847:	00 f4       	brcc	.+0      	; 0x4f735849 <_ZN6StringaSERKS_+0x4f72b0a7>
4f735849:	8d 2f       	mov	r24, r29
4f73584b:	e9 01       	movw	r28, r18
4f73584d:	04 2f       	mov	r16, r20
4f73584f:	18 2f       	mov	r17, r24
4f735851:	60 e0       	ldi	r22, 0x00	; 0
4f735853:	70 e0       	ldi	r23, 0x00	; 0
4f735855:	c6 01       	movw	r24, r12
4f735857:	0e 94 00 00 	call	0	; 0x0 <__tmp_reg__>
4f73585b:	d7 01       	movw	r26, r14
4f73585d:	14 96       	adiw	r26, 0x04	; 4
4f73585f:	8d 91       	ld	r24, X+
4f735861:	9c 91       	ld	r25, X
4f735863:	15 97       	sbiw	r26, 0x05	; 5
4f735865:	c8 17       	cp	r28, r24
4f735867:	d9 07       	cpc	r29, r25
4f735869:	00 f4       	brcc	.+0      	; 0x4f73586b <_ZN6StringaSERKS_+0x4f72b0c9>
4f73586b:	80 17       	cp	r24, r16
4f73586d:	91 07       	cpc	r25, r17
4f73586f:	00 f4       	brcc	.+0      	; 0x4f735871 <_ZN6StringaSERKS_+0x4f72b0cf>
4f735871:	8c 01       	movw	r16, r24
4f735873:	d7 01       	movw	r26, r14
4f735875:	ed 91       	ld	r30, X+
4f735877:	fc 91       	ld	r31, X
4f735879:	11 97       	sbiw	r26, 0x01	; 1
4f73587b:	e0 0f       	add	r30, r16
4f73587d:	f1 1f       	adc	r31, r17
4f73587f:	b0 80       	ld	r11, Z
4f735881:	10 82       	st	Z, r1
4f735883:	6d 91       	ld	r22, X+
4f735885:	7c 91       	ld	r23, X
4f735887:	6c 0f       	add	r22, r28
4f735889:	7d 1f       	adc	r23, r29
4f73588b:	c6 01       	movw	r24, r12
4f73588d:	0e 94 00 00 	call	0	; 0x0 <__tmp_reg__>
4f735891:	d7 01       	movw	r26, r14
4f735893:	ed 91       	ld	r30, X+
4f735895:	fc 91       	ld	r31, X
4f735897:	e0 0f       	add	r30, r16
4f735899:	f1 1f       	adc	r31, r17
4f73589b:	b0 82       	st	Z, r11
4f73589d:	c6 01       	movw	r24, r12
4f73589f:	df 91       	pop	r29
4f7358a1:	cf 91       	pop	r28
4f7358a3:	1f 91       	pop	r17
4f7358a5:	0f 91       	pop	r16
4f7358a7:	ff 90       	pop	r15
4f7358a9:	ef 90       	pop	r14
4f7358ab:	df 90       	pop	r13
4f7358ad:	cf 90       	pop	r12
4f7358af:	bf 90       	pop	r11
4f7358b1:	08 95       	ret

Disassembly of section .text._ZN6String7replaceEcc:

9ee6b0dc <_ZN6String7replaceEcc>:
9ee6b0dc:	dc 01       	movw	r26, r24
9ee6b0de:	ed 91       	ld	r30, X+
9ee6b0e0:	fc 91       	ld	r31, X
9ee6b0e2:	30 97       	sbiw	r30, 0x00	; 0
9ee6b0e4:	01 f4       	brne	.+0      	; 0x9ee6b0e6 <_ZN6StringaSERKS_+0x9ee60944>
9ee6b0e6:	08 95       	ret
9ee6b0e8:	86 13       	cpse	r24, r22
9ee6b0ea:	00 c0       	rjmp	.+0      	; 0x9ee6b0ec <_ZN6StringaSERKS_+0x9ee6094a>
9ee6b0ec:	40 83       	st	Z, r20
9ee6b0ee:	31 96       	adiw	r30, 0x01	; 1
9ee6b0f0:	80 81       	ld	r24, Z
9ee6b0f2:	81 11       	cpse	r24, r1
9ee6b0f4:	00 c0       	rjmp	.+0      	; 0x9ee6b0f6 <_ZN6StringaSERKS_+0x9ee60954>
9ee6b0f6:	08 95       	ret

Disassembly of section .text._ZN6String7replaceERKS_S1_:

3dcd61d4 <_ZN6String7replaceERKS_S1_>:
3dcd61d4:	2f 92       	push	r2
3dcd61d6:	3f 92       	push	r3
3dcd61d8:	4f 92       	push	r4
3dcd61da:	5f 92       	push	r5
3dcd61dc:	6f 92       	push	r6
3dcd61de:	7f 92       	push	r7
3dcd61e0:	8f 92       	push	r8
3dcd61e2:	9f 92       	push	r9
3dcd61e4:	af 92       	push	r10
3dcd61e6:	bf 92       	push	r11
3dcd61e8:	cf 92       	push	r12
3dcd61ea:	df 92       	push	r13
3dcd61ec:	ef 92       	push	r14
3dcd61ee:	ff 92       	push	r15
3dcd61f0:	0f 93       	push	r16
3dcd61f2:	1f 93       	push	r17
3dcd61f4:	cf 93       	push	r28
3dcd61f6:	df 93       	push	r29
3dcd61f8:	ec 01       	movw	r28, r24
3dcd61fa:	5b 01       	movw	r10, r22
3dcd61fc:	7a 01       	movw	r14, r20
3dcd61fe:	4c 80       	ldd	r4, Y+4	; 0x04
3dcd6200:	5d 80       	ldd	r5, Y+5	; 0x05
3dcd6202:	41 14       	cp	r4, r1
3dcd6204:	51 04       	cpc	r5, r1
3dcd6206:	01 f4       	brne	.+0      	; 0x3dcd6208 <_ZN6StringaSERKS_+0x3dccba66>
3dcd6208:	00 c0       	rjmp	.+0      	; 0x3dcd620a <_ZN6StringaSERKS_+0x3dccba68>
3dcd620a:	fb 01       	movw	r30, r22
3dcd620c:	64 80       	ldd	r6, Z+4	; 0x04
3dcd620e:	75 80       	ldd	r7, Z+5	; 0x05
3dcd6210:	61 14       	cp	r6, r1
3dcd6212:	71 04       	cpc	r7, r1
3dcd6214:	01 f4       	brne	.+0      	; 0x3dcd6216 <_ZN6StringaSERKS_+0x3dccba74>
3dcd6216:	00 c0       	rjmp	.+0      	; 0x3dcd6218 <_ZN6StringaSERKS_+0x3dccba76>
3dcd6218:	fa 01       	movw	r30, r20
3dcd621a:	c4 80       	ldd	r12, Z+4	; 0x04
3dcd621c:	d5 80       	ldd	r13, Z+5	; 0x05
3dcd621e:	c6 18       	sub	r12, r6
3dcd6220:	d7 08       	sbc	r13, r7
3dcd6222:	08 81       	ld	r16, Y
3dcd6224:	19 81       	ldd	r17, Y+1	; 0x01
3dcd6226:	c1 14       	cp	r12, r1
3dcd6228:	d1 04       	cpc	r13, r1
3dcd622a:	01 f4       	brne	.+0      	; 0x3dcd622c <_ZN6StringaSERKS_+0x3dccba8a>
3dcd622c:	f5 01       	movw	r30, r10
3dcd622e:	60 81       	ld	r22, Z
3dcd6230:	71 81       	ldd	r23, Z+1	; 0x01
3dcd6232:	c8 01       	movw	r24, r16
3dcd6234:	0e 94 00 00 	call	0	; 0x0 <__tmp_reg__>
3dcd6238:	ec 01       	movw	r28, r24
3dcd623a:	00 97       	sbiw	r24, 0x00	; 0
3dcd623c:	01 f4       	brne	.+0      	; 0x3dcd623e <_ZN6StringaSERKS_+0x3dccba9c>
3dcd623e:	00 c0       	rjmp	.+0      	; 0x3dcd6240 <_ZN6StringaSERKS_+0x3dccba9e>
3dcd6240:	f7 01       	movw	r30, r14
3dcd6242:	60 81       	ld	r22, Z
3dcd6244:	71 81       	ldd	r23, Z+1	; 0x01
3dcd6246:	44 81       	ldd	r20, Z+4	; 0x04
3dcd6248:	55 81       	ldd	r21, Z+5	; 0x05
3dcd624a:	ce 01       	movw	r24, r28
3dcd624c:	0e 94 00 00 	call	0	; 0x0 <__tmp_reg__>
3dcd6250:	f7 01       	movw	r30, r14
3dcd6252:	04 81       	ldd	r16, Z+4	; 0x04
3dcd6254:	15 81       	ldd	r17, Z+5	; 0x05
3dcd6256:	0c 0f       	add	r16, r28
3dcd6258:	1d 1f       	adc	r17, r29
3dcd625a:	00 c0       	rjmp	.+0      	; 0x3dcd625c <_ZN6StringaSERKS_+0x3dccbaba>
3dcd625c:	d7 fc       	sbrc	r13, 7
3dcd625e:	00 c0       	rjmp	.+0      	; 0x3dcd6260 <_ZN6StringaSERKS_+0x3dccbabe>
3dcd6260:	fb 01       	movw	r30, r22
3dcd6262:	20 80       	ld	r2, Z
3dcd6264:	31 80       	ldd	r3, Z+1	; 0x01
3dcd6266:	42 01       	movw	r8, r4
3dcd6268:	00 c0       	rjmp	.+0      	; 0x3dcd626a <_ZN6StringaSERKS_+0x3dccbac8>
3dcd626a:	48 01       	movw	r8, r16
3dcd626c:	f5 01       	movw	r30, r10
3dcd626e:	60 81       	ld	r22, Z
3dcd6270:	71 81       	ldd	r23, Z+1	; 0x01
3dcd6272:	c8 01       	movw	r24, r16
3dcd6274:	0e 94 00 00 	call	0	; 0x0 <__tmp_reg__>
3dcd6278:	2c 01       	movw	r4, r24
3dcd627a:	00 97       	sbiw	r24, 0x00	; 0
3dcd627c:	01 f0       	breq	.+0      	; 0x3dcd627e <_ZN6StringaSERKS_+0x3dccbadc>
3dcd627e:	32 01       	movw	r6, r4
3dcd6280:	60 1a       	sub	r6, r16
3dcd6282:	71 0a       	sbc	r7, r17
3dcd6284:	a3 01       	movw	r20, r6
3dcd6286:	b8 01       	movw	r22, r16
3dcd6288:	c4 01       	movw	r24, r8
3dcd628a:	0e 94 00 00 	call	0	; 0x0 <__tmp_reg__>
3dcd628e:	68 0c       	add	r6, r8
3dcd6290:	79 1c       	adc	r7, r9
3dcd6292:	f7 01       	movw	r30, r14
3dcd6294:	60 81       	ld	r22, Z
3dcd6296:	71 81       	ldd	r23, Z+1	; 0x01
3dcd6298:	44 81       	ldd	r20, Z+4	; 0x04
3dcd629a:	55 81       	ldd	r21, Z+5	; 0x05
3dcd629c:	c3 01       	movw	r24, r6
3dcd629e:	0e 94 00 00 	call	0	; 0x0 <__tmp_reg__>
3dcd62a2:	f7 01       	movw	r30, r14
3dcd62a4:	84 80       	ldd	r8, Z+4	; 0x04
3dcd62a6:	95 80       	ldd	r9, Z+5	; 0x05
3dcd62a8:	86 0c       	add	r8, r6
3dcd62aa:	97 1c       	adc	r9, r7
3dcd62ac:	f5 01       	movw	r30, r10
3dcd62ae:	04 81       	ldd	r16, Z+4	; 0x04
3dcd62b0:	15 81       	ldd	r17, Z+5	; 0x05
3dcd62b2:	04 0d       	add	r16, r4
3dcd62b4:	15 1d       	adc	r17, r5
3dcd62b6:	8c 81       	ldd	r24, Y+4	; 0x04
3dcd62b8:	9d 81       	ldd	r25, Y+5	; 0x05
3dcd62ba:	8c 0d       	add	r24, r12
3dcd62bc:	9d 1d       	adc	r25, r13
3dcd62be:	9d 83       	std	Y+5, r25	; 0x05
3dcd62c0:	8c 83       	std	Y+4, r24	; 0x04
3dcd62c2:	00 c0       	rjmp	.+0      	; 0x3dcd62c4 <_ZN6StringaSERKS_+0x3dccbb22>
3dcd62c4:	b8 01       	movw	r22, r16
3dcd62c6:	c4 01       	movw	r24, r8
3dcd62c8:	df 91       	pop	r29
3dcd62ca:	cf 91       	pop	r28
3dcd62cc:	1f 91       	pop	r17
3dcd62ce:	0f 91       	pop	r16
3dcd62d0:	ff 90       	pop	r15
3dcd62d2:	ef 90       	pop	r14
3dcd62d4:	df 90       	pop	r13
3dcd62d6:	cf 90       	pop	r12
3dcd62d8:	bf 90       	pop	r11
3dcd62da:	af 90       	pop	r10
3dcd62dc:	9f 90       	pop	r9
3dcd62de:	8f 90       	pop	r8
3dcd62e0:	7f 90       	pop	r7
3dcd62e2:	6f 90       	pop	r6
3dcd62e4:	5f 90       	pop	r5
3dcd62e6:	4f 90       	pop	r4
3dcd62e8:	3f 90       	pop	r3
3dcd62ea:	2f 90       	pop	r2
3dcd62ec:	0c 94 00 00 	jmp	0	; 0x0 <__tmp_reg__>
3dcd62f0:	b1 01       	movw	r22, r2
3dcd62f2:	c8 01       	movw	r24, r16
3dcd62f4:	0e 94 00 00 	call	0	; 0x0 <__tmp_reg__>
3dcd62f8:	00 97       	sbiw	r24, 0x00	; 0
3dcd62fa:	01 f0       	breq	.+0      	; 0x3dcd62fc <_ZN6StringaSERKS_+0x3dccbb5a>
3dcd62fc:	8c 01       	movw	r16, r24
3dcd62fe:	06 0d       	add	r16, r6
3dcd6300:	17 1d       	adc	r17, r7
3dcd6302:	8c 0c       	add	r8, r12
3dcd6304:	9d 1c       	adc	r9, r13
3dcd6306:	00 c0       	rjmp	.+0      	; 0x3dcd6308 <_ZN6StringaSERKS_+0x3dccbb66>
3dcd6308:	84 14       	cp	r8, r4
3dcd630a:	95 04       	cpc	r9, r5
3dcd630c:	01 f4       	brne	.+0      	; 0x3dcd630e <_ZN6StringaSERKS_+0x3dccbb6c>
3dcd630e:	00 c0       	rjmp	.+0      	; 0x3dcd6310 <_ZN6StringaSERKS_+0x3dccbb6e>
3dcd6310:	8a 81       	ldd	r24, Y+2	; 0x02
3dcd6312:	9b 81       	ldd	r25, Y+3	; 0x03
3dcd6314:	88 15       	cp	r24, r8
3dcd6316:	99 05       	cpc	r25, r9
3dcd6318:	00 f4       	brcc	.+0      	; 0x3dcd631a <_ZN6StringaSERKS_+0x3dccbb78>
3dcd631a:	b4 01       	movw	r22, r8
3dcd631c:	ce 01       	movw	r24, r28
3dcd631e:	0e 94 00 00 	call	0	; 0x0 <__tmp_reg__>
3dcd6322:	88 23       	and	r24, r24
3dcd6324:	01 f0       	breq	.+0      	; 0x3dcd6326 <_ZN6StringaSERKS_+0x3dccbb84>
3dcd6326:	4c 81       	ldd	r20, Y+4	; 0x04
3dcd6328:	5d 81       	ldd	r21, Y+5	; 0x05
3dcd632a:	41 50       	subi	r20, 0x01	; 1
3dcd632c:	51 09       	sbc	r21, r1
3dcd632e:	57 fd       	sbrc	r21, 7
3dcd6330:	00 c0       	rjmp	.+0      	; 0x3dcd6332 <_ZN6StringaSERKS_+0x3dccbb90>
3dcd6332:	b5 01       	movw	r22, r10
3dcd6334:	ce 01       	movw	r24, r28
3dcd6336:	0e 94 00 00 	call	0	; 0x0 <__tmp_reg__>
3dcd633a:	8c 01       	movw	r16, r24
3dcd633c:	97 fd       	sbrc	r25, 7
3dcd633e:	00 c0       	rjmp	.+0      	; 0x3dcd6340 <_ZN6StringaSERKS_+0x3dccbb9e>
3dcd6340:	88 81       	ld	r24, Y
3dcd6342:	99 81       	ldd	r25, Y+1	; 0x01
3dcd6344:	f5 01       	movw	r30, r10
3dcd6346:	24 81       	ldd	r18, Z+4	; 0x04
3dcd6348:	35 81       	ldd	r19, Z+5	; 0x05
3dcd634a:	20 0f       	add	r18, r16
3dcd634c:	31 1f       	adc	r19, r17
3dcd634e:	82 0f       	add	r24, r18
3dcd6350:	93 1f       	adc	r25, r19
3dcd6352:	4c 81       	ldd	r20, Y+4	; 0x04
3dcd6354:	5d 81       	ldd	r21, Y+5	; 0x05
3dcd6356:	42 1b       	sub	r20, r18
3dcd6358:	53 0b       	sbc	r21, r19
3dcd635a:	bc 01       	movw	r22, r24
3dcd635c:	8c 0d       	add	r24, r12
3dcd635e:	9d 1d       	adc	r25, r13
3dcd6360:	0e 94 00 00 	call	0	; 0x0 <__tmp_reg__>
3dcd6364:	8c 81       	ldd	r24, Y+4	; 0x04
3dcd6366:	9d 81       	ldd	r25, Y+5	; 0x05
3dcd6368:	8c 0d       	add	r24, r12
3dcd636a:	9d 1d       	adc	r25, r13
3dcd636c:	9d 83       	std	Y+5, r25	; 0x05
3dcd636e:	8c 83       	std	Y+4, r24	; 0x04
3dcd6370:	e8 81       	ld	r30, Y
3dcd6372:	f9 81       	ldd	r31, Y+1	; 0x01
3dcd6374:	e8 0f       	add	r30, r24
3dcd6376:	f9 1f       	adc	r31, r25
3dcd6378:	10 82       	st	Z, r1
3dcd637a:	88 81       	ld	r24, Y
3dcd637c:	99 81       	ldd	r25, Y+1	; 0x01
3dcd637e:	f7 01       	movw	r30, r14
3dcd6380:	60 81       	ld	r22, Z
3dcd6382:	71 81       	ldd	r23, Z+1	; 0x01
3dcd6384:	44 81       	ldd	r20, Z+4	; 0x04
3dcd6386:	55 81       	ldd	r21, Z+5	; 0x05
3dcd6388:	80 0f       	add	r24, r16
3dcd638a:	91 1f       	adc	r25, r17
3dcd638c:	0e 94 00 00 	call	0	; 0x0 <__tmp_reg__>
3dcd6390:	a8 01       	movw	r20, r16
3dcd6392:	00 c0       	rjmp	.+0      	; 0x3dcd6394 <_ZN6StringaSERKS_+0x3dccbbf2>
3dcd6394:	df 91       	pop	r29
3dcd6396:	cf 91       	pop	r28
3dcd6398:	1f 91       	pop	r17
3dcd639a:	0f 91       	pop	r16
3dcd639c:	ff 90       	pop	r15
3dcd639e:	ef 90       	pop	r14
3dcd63a0:	df 90       	pop	r13
3dcd63a2:	cf 90       	pop	r12
3dcd63a4:	bf 90       	pop	r11
3dcd63a6:	af 90       	pop	r10
3dcd63a8:	9f 90       	pop	r9
3dcd63aa:	8f 90       	pop	r8
3dcd63ac:	7f 90       	pop	r7
3dcd63ae:	6f 90       	pop	r6
3dcd63b0:	5f 90       	pop	r5
3dcd63b2:	4f 90       	pop	r4
3dcd63b4:	3f 90       	pop	r3
3dcd63b6:	2f 90       	pop	r2
3dcd63b8:	08 95       	ret

Disassembly of section .text._ZN6String6removeEjj:

7b9ac58e <_ZN6String6removeEjj>:
7b9ac58e:	cf 93       	push	r28
7b9ac590:	df 93       	push	r29
7b9ac592:	ec 01       	movw	r28, r24
7b9ac594:	cb 01       	movw	r24, r22
7b9ac596:	2c 81       	ldd	r18, Y+4	; 0x04
7b9ac598:	3d 81       	ldd	r19, Y+5	; 0x05
7b9ac59a:	62 17       	cp	r22, r18
7b9ac59c:	73 07       	cpc	r23, r19
7b9ac59e:	00 f4       	brcc	.+0      	; 0x7b9ac5a0 <_ZN6StringaSERKS_+0x7b9a1dfe>
7b9ac5a0:	41 15       	cp	r20, r1
7b9ac5a2:	51 05       	cpc	r21, r1
7b9ac5a4:	01 f0       	breq	.+0      	; 0x7b9ac5a6 <_ZN6StringaSERKS_+0x7b9a1e04>
7b9ac5a6:	b9 01       	movw	r22, r18
7b9ac5a8:	68 1b       	sub	r22, r24
7b9ac5aa:	79 0b       	sbc	r23, r25
7b9ac5ac:	46 17       	cp	r20, r22
7b9ac5ae:	57 07       	cpc	r21, r23
7b9ac5b0:	00 f4       	brcc	.+0      	; 0x7b9ac5b2 <_ZN6StringaSERKS_+0x7b9a1e10>
7b9ac5b2:	ba 01       	movw	r22, r20
7b9ac5b4:	e8 81       	ld	r30, Y
7b9ac5b6:	f9 81       	ldd	r31, Y+1	; 0x01
7b9ac5b8:	26 1b       	sub	r18, r22
7b9ac5ba:	37 0b       	sbc	r19, r23
7b9ac5bc:	3d 83       	std	Y+5, r19	; 0x05
7b9ac5be:	2c 83       	std	Y+4, r18	; 0x04
7b9ac5c0:	a9 01       	movw	r20, r18
7b9ac5c2:	48 1b       	sub	r20, r24
7b9ac5c4:	59 0b       	sbc	r21, r25
7b9ac5c6:	68 0f       	add	r22, r24
7b9ac5c8:	79 1f       	adc	r23, r25
7b9ac5ca:	6e 0f       	add	r22, r30
7b9ac5cc:	7f 1f       	adc	r23, r31
7b9ac5ce:	8e 0f       	add	r24, r30
7b9ac5d0:	9f 1f       	adc	r25, r31
7b9ac5d2:	0e 94 00 00 	call	0	; 0x0 <__tmp_reg__>
7b9ac5d6:	e8 81       	ld	r30, Y
7b9ac5d8:	f9 81       	ldd	r31, Y+1	; 0x01
7b9ac5da:	8c 81       	ldd	r24, Y+4	; 0x04
7b9ac5dc:	9d 81       	ldd	r25, Y+5	; 0x05
7b9ac5de:	e8 0f       	add	r30, r24
7b9ac5e0:	f9 1f       	adc	r31, r25
7b9ac5e2:	10 82       	st	Z, r1
7b9ac5e4:	df 91       	pop	r29
7b9ac5e6:	cf 91       	pop	r28
7b9ac5e8:	08 95       	ret

Disassembly of section .text._ZN6String6removeEj:

f7358b78 <_ZN6String6removeEj>:
f7358b78:	4f ef       	ldi	r20, 0xFF	; 255
f7358b7a:	5f ef       	ldi	r21, 0xFF	; 255
f7358b7c:	0c 94 00 00 	jmp	0	; 0x0 <__tmp_reg__>

Disassembly of section .text._ZN6String11toLowerCaseEv:

ee6b16f8 <_ZN6String11toLowerCaseEv>:
ee6b16f8:	cf 93       	push	r28
ee6b16fa:	df 93       	push	r29
ee6b16fc:	fc 01       	movw	r30, r24
ee6b16fe:	c0 81       	ld	r28, Z
ee6b1700:	d1 81       	ldd	r29, Z+1	; 0x01
ee6b1702:	20 97       	sbiw	r28, 0x00	; 0
ee6b1704:	01 f0       	breq	.+0      	; 0xee6b1706 <_ZN6StringaSERKS_+0xee6a6f64>
ee6b1706:	88 81       	ld	r24, Y
ee6b1708:	88 23       	and	r24, r24
ee6b170a:	01 f0       	breq	.+0      	; 0xee6b170c <_ZN6StringaSERKS_+0xee6a6f6a>
ee6b170c:	90 e0       	ldi	r25, 0x00	; 0
ee6b170e:	0e 94 00 00 	call	0	; 0x0 <__tmp_reg__>
ee6b1712:	89 93       	st	Y+, r24
ee6b1714:	00 c0       	rjmp	.+0      	; 0xee6b1716 <_ZN6StringaSERKS_+0xee6a6f74>
ee6b1716:	df 91       	pop	r29
ee6b1718:	cf 91       	pop	r28
ee6b171a:	08 95       	ret

Disassembly of section .text._ZN6String11toUpperCaseEv:

dcd62e14 <_ZN6String11toUpperCaseEv>:
dcd62e14:	cf 93       	push	r28
dcd62e16:	df 93       	push	r29
dcd62e18:	fc 01       	movw	r30, r24
dcd62e1a:	c0 81       	ld	r28, Z
dcd62e1c:	d1 81       	ldd	r29, Z+1	; 0x01
dcd62e1e:	20 97       	sbiw	r28, 0x00	; 0
dcd62e20:	01 f0       	breq	.+0      	; 0xdcd62e22 <_ZN6StringaSERKS_+0xdcd58680>
dcd62e22:	88 81       	ld	r24, Y
dcd62e24:	88 23       	and	r24, r24
dcd62e26:	01 f0       	breq	.+0      	; 0xdcd62e28 <_ZN6StringaSERKS_+0xdcd58686>
dcd62e28:	90 e0       	ldi	r25, 0x00	; 0
dcd62e2a:	0e 94 00 00 	call	0	; 0x0 <__tmp_reg__>
dcd62e2e:	89 93       	st	Y+, r24
dcd62e30:	00 c0       	rjmp	.+0      	; 0xdcd62e32 <_ZN6StringaSERKS_+0xdcd58690>
dcd62e32:	df 91       	pop	r29
dcd62e34:	cf 91       	pop	r28
dcd62e36:	08 95       	ret

Disassembly of section .text._ZN6String4trimEv:

b9ac5c4c <_ZN6String4trimEv>:
b9ac5c4c:	af 92       	push	r10
b9ac5c4e:	bf 92       	push	r11
b9ac5c50:	cf 92       	push	r12
b9ac5c52:	df 92       	push	r13
b9ac5c54:	ef 92       	push	r14
b9ac5c56:	ff 92       	push	r15
b9ac5c58:	0f 93       	push	r16
b9ac5c5a:	1f 93       	push	r17
b9ac5c5c:	cf 93       	push	r28
b9ac5c5e:	df 93       	push	r29
b9ac5c60:	7c 01       	movw	r14, r24
b9ac5c62:	dc 01       	movw	r26, r24
b9ac5c64:	cd 90       	ld	r12, X+
b9ac5c66:	dc 90       	ld	r13, X
b9ac5c68:	11 97       	sbiw	r26, 0x01	; 1
b9ac5c6a:	c1 14       	cp	r12, r1
b9ac5c6c:	d1 04       	cpc	r13, r1
b9ac5c6e:	01 f0       	breq	.+0      	; 0xb9ac5c70 <_ZN6StringaSERKS_+0xb9abb4ce>
b9ac5c70:	14 96       	adiw	r26, 0x04	; 4
b9ac5c72:	cd 91       	ld	r28, X+
b9ac5c74:	dc 91       	ld	r29, X
b9ac5c76:	15 97       	sbiw	r26, 0x05	; 5
b9ac5c78:	20 97       	sbiw	r28, 0x00	; 0
b9ac5c7a:	01 f0       	breq	.+0      	; 0xb9ac5c7c <_ZN6StringaSERKS_+0xb9abb4da>
b9ac5c7c:	56 01       	movw	r10, r12
b9ac5c7e:	85 01       	movw	r16, r10
b9ac5c80:	bf ef       	ldi	r27, 0xFF	; 255
b9ac5c82:	ab 1a       	sub	r10, r27
b9ac5c84:	bb 0a       	sbc	r11, r27
b9ac5c86:	f8 01       	movw	r30, r16
b9ac5c88:	80 81       	ld	r24, Z
b9ac5c8a:	90 e0       	ldi	r25, 0x00	; 0
b9ac5c8c:	0e 94 00 00 	call	0	; 0x0 <__tmp_reg__>
b9ac5c90:	89 2b       	or	r24, r25
b9ac5c92:	01 f4       	brne	.+0      	; 0xb9ac5c94 <_ZN6StringaSERKS_+0xb9abb4f2>
b9ac5c94:	21 97       	sbiw	r28, 0x01	; 1
b9ac5c96:	cc 0d       	add	r28, r12
b9ac5c98:	dd 1d       	adc	r29, r13
b9ac5c9a:	88 81       	ld	r24, Y
b9ac5c9c:	90 e0       	ldi	r25, 0x00	; 0
b9ac5c9e:	0e 94 00 00 	call	0	; 0x0 <__tmp_reg__>
b9ac5ca2:	89 2b       	or	r24, r25
b9ac5ca4:	01 f4       	brne	.+0      	; 0xb9ac5ca6 <_ZN6StringaSERKS_+0xb9abb504>
b9ac5ca6:	ae 01       	movw	r20, r28
b9ac5ca8:	4f 5f       	subi	r20, 0xFF	; 255
b9ac5caa:	5f 4f       	sbci	r21, 0xFF	; 255
b9ac5cac:	40 1b       	sub	r20, r16
b9ac5cae:	51 0b       	sbc	r21, r17
b9ac5cb0:	d7 01       	movw	r26, r14
b9ac5cb2:	15 96       	adiw	r26, 0x05	; 5
b9ac5cb4:	5c 93       	st	X, r21
b9ac5cb6:	4e 93       	st	-X, r20
b9ac5cb8:	14 97       	sbiw	r26, 0x04	; 4
b9ac5cba:	c0 16       	cp	r12, r16
b9ac5cbc:	d1 06       	cpc	r13, r17
b9ac5cbe:	00 f4       	brcc	.+0      	; 0xb9ac5cc0 <_ZN6StringaSERKS_+0xb9abb51e>
b9ac5cc0:	b8 01       	movw	r22, r16
b9ac5cc2:	c6 01       	movw	r24, r12
b9ac5cc4:	0e 94 00 00 	call	0	; 0x0 <__tmp_reg__>
b9ac5cc8:	00 c0       	rjmp	.+0      	; 0xb9ac5cca <_ZN6StringaSERKS_+0xb9abb528>
b9ac5cca:	c0 17       	cp	r28, r16
b9ac5ccc:	d1 07       	cpc	r29, r17
b9ac5cce:	00 f0       	brcs	.+0      	; 0xb9ac5cd0 <_ZN6StringaSERKS_+0xb9abb52e>
b9ac5cd0:	21 97       	sbiw	r28, 0x01	; 1
b9ac5cd2:	00 c0       	rjmp	.+0      	; 0xb9ac5cd4 <_ZN6StringaSERKS_+0xb9abb532>
b9ac5cd4:	d7 01       	movw	r26, r14
b9ac5cd6:	ed 91       	ld	r30, X+
b9ac5cd8:	fc 91       	ld	r31, X
b9ac5cda:	11 97       	sbiw	r26, 0x01	; 1
b9ac5cdc:	14 96       	adiw	r26, 0x04	; 4
b9ac5cde:	8d 91       	ld	r24, X+
b9ac5ce0:	9c 91       	ld	r25, X
b9ac5ce2:	15 97       	sbiw	r26, 0x05	; 5
b9ac5ce4:	e8 0f       	add	r30, r24
b9ac5ce6:	f9 1f       	adc	r31, r25
b9ac5ce8:	10 82       	st	Z, r1
b9ac5cea:	df 91       	pop	r29
b9ac5cec:	cf 91       	pop	r28
b9ac5cee:	1f 91       	pop	r17
b9ac5cf0:	0f 91       	pop	r16
b9ac5cf2:	ff 90       	pop	r15
b9ac5cf4:	ef 90       	pop	r14
b9ac5cf6:	df 90       	pop	r13
b9ac5cf8:	cf 90       	pop	r12
b9ac5cfa:	bf 90       	pop	r11
b9ac5cfc:	af 90       	pop	r10
b9ac5cfe:	08 95       	ret

Disassembly of section .text._ZNK6String5toIntEv:

7358b94c <_ZNK6String5toIntEv>:
7358b94c:	fc 01       	movw	r30, r24
7358b94e:	80 81       	ld	r24, Z
7358b950:	91 81       	ldd	r25, Z+1	; 0x01
7358b952:	00 97       	sbiw	r24, 0x00	; 0
7358b954:	01 f0       	breq	.+0      	; 0x7358b956 <_ZN6StringaSERKS_+0x735811b4>
7358b956:	0c 94 00 00 	jmp	0	; 0x0 <__tmp_reg__>
7358b95a:	60 e0       	ldi	r22, 0x00	; 0
7358b95c:	70 e0       	ldi	r23, 0x00	; 0
7358b95e:	cb 01       	movw	r24, r22
7358b960:	08 95       	ret

Disassembly of section .text._ZNK6String7toFloatEv:

e6b172ae <_ZNK6String7toFloatEv>:
e6b172ae:	fc 01       	movw	r30, r24
e6b172b0:	80 81       	ld	r24, Z
e6b172b2:	91 81       	ldd	r25, Z+1	; 0x01
e6b172b4:	00 97       	sbiw	r24, 0x00	; 0
e6b172b6:	01 f0       	breq	.+0      	; 0xe6b172b8 <_ZN6StringaSERKS_+0xe6b0cb16>
e6b172b8:	0c 94 00 00 	jmp	0	; 0x0 <__tmp_reg__>
e6b172bc:	60 e0       	ldi	r22, 0x00	; 0
e6b172be:	70 e0       	ldi	r23, 0x00	; 0
e6b172c0:	cb 01       	movw	r24, r22
e6b172c2:	08 95       	ret

main.o:     file format elf32-avr

Sections:
Idx Name          Size      VMA       LMA       File off  Algn
  0 .text         00000000  00000000  00000000  00000034  2**0
                  CONTENTS, ALLOC, LOAD, READONLY, CODE
  1 .data         00000010  00000000  00000000  00000034  2**0
                  CONTENTS, ALLOC, LOAD, DATA
  2 .bss          00000000  00000000  00000000  00000044  2**0
                  ALLOC
  3 .stab         00000774  00000000  00000000  00000044  2**2
                  CONTENTS, RELOC, READONLY, DEBUGGING
  4 .stabstr      000011e3  00000000  00000000  000007b8  2**0
                  CONTENTS, READONLY, DEBUGGING
  5 .text.atexit  00000006  00000000  00000000  0000199b  2**0
                  CONTENTS, ALLOC, LOAD, READONLY, CODE
  6 .text.initVariant 00000002  00000000  00000000  000019a1  2**0
                  CONTENTS, ALLOC, LOAD, READONLY, CODE
  7 .text._Z8setupUSBv 00000002  00000000  00000000  000019a3  2**0
                  CONTENTS, ALLOC, LOAD, READONLY, CODE
  8 .text.startup.main 0000001e  00000000  00000000  000019a5  2**0
                  CONTENTS, ALLOC, LOAD, RELOC, READONLY, CODE
  9 .comment      00000012  00000000  00000000  000019c3  2**0
                  CONTENTS, READONLY

Disassembly of section .text.atexit:

00000000 <atexit>:
void setupUSB() __attribute__((weak));
void setupUSB() { }

int main(void)
{
	init();
   0:	80 e0       	ldi	r24, 0x00	; 0
#endif
	
	setup();
    
	for (;;) {
		loop();
  12:	90 e0       	Address 0x0000000000000012 is out of bounds.
.word	0xffff	; ????
		if (serialEventRun) serialEventRun();
  14:	08 95       	Address 0x0000000000000014 is out of bounds.
.word	0xffff	; ????

Disassembly of section .text.initVariant:

00000026 <initVariant>:
  26:	08 95       	ret

Disassembly of section .text._Z8setupUSBv:

0000004e <_Z8setupUSBv>:
  4e:	08 95       	ret

Disassembly of section .text.startup.main:

0000009e <main>:
  9e:	0e 94 00 00 	call	0	; 0x0 <__tmp_reg__>
  a2:	0e 94 00 00 	call	0	; 0x0 <__tmp_reg__>
  a6:	0e 94 00 00 	call	0	; 0x0 <__tmp_reg__>
  aa:	c0 e0       	ldi	r28, 0x00	; 0
  ac:	d0 e0       	ldi	r29, 0x00	; 0
  ae:	0e 94 00 00 	call	0	; 0x0 <__tmp_reg__>
  b2:	20 97       	sbiw	r28, 0x00	; 0
  b4:	01 f0       	breq	.+0      	; 0xb6 <main+0x18>
  b6:	0e 94 00 00 	call	0	; 0x0 <__tmp_reg__>
  ba:	00 c0       	rjmp	.+0      	; 0xbc <__SREG__+0x7d>

new.o:     file format elf32-avr

Sections:
Idx Name          Size      VMA       LMA       File off  Algn
  0 .text         00000000  00000000  00000000  00000034  2**0
                  CONTENTS, ALLOC, LOAD, READONLY, CODE
  1 .data         00000010  00000000  00000000  00000034  2**0
                  CONTENTS, ALLOC, LOAD, DATA
  2 .bss          00000000  00000000  00000000  00000044  2**0
                  ALLOC
  3 .stab         00000420  00000000  00000000  00000044  2**2
                  CONTENTS, RELOC, READONLY, DEBUGGING
  4 .stabstr      00000a54  00000000  00000000  00000464  2**0
                  CONTENTS, READONLY, DEBUGGING
  5 .text._Znwj   00000004  00000000  00000000  00000eb8  2**0
                  CONTENTS, ALLOC, LOAD, RELOC, READONLY, CODE
  6 .text._Znaj   00000004  00000000  00000000  00000ebc  2**0
                  CONTENTS, ALLOC, LOAD, RELOC, READONLY, CODE
  7 .text._ZdlPv  00000004  00000000  00000000  00000ec0  2**0
                  CONTENTS, ALLOC, LOAD, RELOC, READONLY, CODE
  8 .text._ZdaPv  00000004  00000000  00000000  00000ec4  2**0
                  CONTENTS, ALLOC, LOAD, RELOC, READONLY, CODE
  9 .comment      00000012  00000000  00000000  00000ec8  2**0
                  CONTENTS, READONLY

Disassembly of section .text._Znwj:

00000000 <_Znwj>:
void operator delete(void * ptr) {
  free(ptr);
}

void operator delete[](void * ptr) {
  free(ptr);
   0:	0c 94 00 00 	jmp	0	; 0x0 <_Znwj>

Disassembly of section .text._Znaj:

00000000 <_Znaj>:
  24:	0c 94       	Address 0x0000000000000024 is out of bounds.
.word	0xffff	; ????
	...

Disassembly of section .text._ZdlPv:

0000004c <_ZdlPv>:
  4c:	0c 94 00 00 	jmp	0	; 0x0 <__tmp_reg__>

Disassembly of section .text._ZdaPv:

0000009c <_ZdaPv>:
  9c:	0c 94 00 00 	jmp	0	; 0x0 <__tmp_reg__>

wiring.o:     file format elf32-avr

Sections:
Idx Name          Size      VMA       LMA       File off  Algn
  0 .text         00000000  00000000  00000000  00000034  2**0
                  CONTENTS, ALLOC, LOAD, READONLY, CODE
  1 .data         00000000  00000000  00000000  00000034  2**0
                  CONTENTS, ALLOC, LOAD, DATA
  2 .bss          00000000  00000000  00000000  00000034  2**0
                  ALLOC
  3 .stab         00000a2c  00000000  00000000  00000034  2**2
                  CONTENTS, RELOC, READONLY, DEBUGGING
  4 .stabstr      00001071  00000000  00000000  00000a60  2**0
                  CONTENTS, READONLY, DEBUGGING
  5 .text.__vector_16 00000094  00000000  00000000  00001ad1  2**0
                  CONTENTS, ALLOC, LOAD, RELOC, READONLY, CODE
  6 .text.millis  00000018  00000000  00000000  00001b65  2**0
                  CONTENTS, ALLOC, LOAD, RELOC, READONLY, CODE
  7 .text.micros  00000046  00000000  00000000  00001b7d  2**0
                  CONTENTS, ALLOC, LOAD, RELOC, READONLY, CODE
  8 .text.delay   00000050  00000000  00000000  00001bc3  2**0
                  CONTENTS, ALLOC, LOAD, RELOC, READONLY, CODE
  9 .text.delayMicroseconds 00000016  00000000  00000000  00001c13  2**0
                  CONTENTS, ALLOC, LOAD, RELOC, READONLY, CODE
 10 .text.init    00000076  00000000  00000000  00001c29  2**0
                  CONTENTS, ALLOC, LOAD, READONLY, CODE
 11 .bss.timer0_fract 00000001  00000000  00000000  00001c9f  2**0
                  ALLOC
 12 .bss.timer0_millis 00000004  00000000  00000000  00001c9f  2**0
                  ALLOC
 13 .bss.timer0_overflow_count 00000004  00000000  00000000  00001c9f  2**0
                  ALLOC
 14 .comment      00000012  00000000  00000000  00001c9f  2**0
                  CONTENTS, READONLY

Disassembly of section .text.__vector_16:

00000000 <__vector_16>:

void init()
{
	// this needs to be called before setup() or some functions won't
	// work there
	sei();
   0:	1f 92       	push	r1
	
	// on the ATmega168, timer 0 is also used for fast hardware pwm
	// (using phase-correct PWM would mean that timer 0 overflowed half as often
	// resulting in different millis() behavior on the ATmega8 and ATmega168)
#if defined(TCCR0A) && defined(WGM01)
	sbi(TCCR0A, WGM01);
   2:	0f 92       	push	r0
   4:	0f b6       	in	r0, 0x3f	; 63
   6:	0f 92       	push	r0
	sbi(TCCR0A, WGM00);
   8:	11 24       	eor	r1, r1
   a:	2f 93       	push	r18
   c:	3f 93       	push	r19
	// this combination is for the standard atmega8
	sbi(TCCR0, CS01);
	sbi(TCCR0, CS00);
#elif defined(TCCR0B) && defined(CS01) && defined(CS00)
	// this combination is for the standard 168/328/1280/2560
	sbi(TCCR0B, CS01);
   e:	8f 93       	push	r24
  10:	9f 93       	push	r25
  12:	af 93       	push	r26
	sbi(TCCR0B, CS00);
  14:	bf 93       	push	r27
  16:	80 91 00 00 	lds	r24, 0x0000

	// enable timer 0 overflow interrupt
#if defined(TIMSK) && defined(TOIE0)
	sbi(TIMSK, TOIE0);
#elif defined(TIMSK0) && defined(TOIE0)
	sbi(TIMSK0, TOIE0);
  1a:	90 91 00 00 	lds	r25, 0x0000
  1e:	a0 91 00 00 	lds	r26, 0x0000
  22:	b0 91 00 00 	lds	r27, 0x0000
	// this is better for motors as it ensures an even waveform
	// note, however, that fast pwm mode can achieve a frequency of up
	// 8 MHz (with a 16 MHz clock) at 50% duty cycle

#if defined(TCCR1B) && defined(CS11) && defined(CS10)
	TCCR1B = 0;
  26:	30 91 00 00 	lds	r19, 0x0000

	// set timer 1 prescale factor to 64
	sbi(TCCR1B, CS11);
  2a:	23 e0       	ldi	r18, 0x03	; 3
  2c:	23 0f       	add	r18, r19
  2e:	2d 37       	cpi	r18, 0x7D	; 125
#if F_CPU >= 8000000L
	sbi(TCCR1B, CS10);
  30:	00 f4       	brcc	.+0      	; 0x32 <__vector_16+0x32>
  32:	01 96       	adiw	r24, 0x01	; 1
  34:	a1 1d       	adc	r26, r1
	sbi(TCCR1, CS10);
#endif
#endif
	// put timer 1 in 8-bit phase correct pwm mode
#if defined(TCCR1A) && defined(WGM10)
	sbi(TCCR1A, WGM10);
  36:	b1 1d       	adc	r27, r1
  38:	00 c0       	rjmp	.+0      	; 0x3a <__vector_16+0x3a>
  3a:	26 e8       	ldi	r18, 0x86	; 134
  3c:	23 0f       	add	r18, r19
  3e:	02 96       	adiw	r24, 0x02	; 2

	// set timer 2 prescale factor to 64
#if defined(TCCR2) && defined(CS22)
	sbi(TCCR2, CS22);
#elif defined(TCCR2B) && defined(CS22)
	sbi(TCCR2B, CS22);
  40:	a1 1d       	adc	r26, r1
  42:	b1 1d       	adc	r27, r1
  44:	20 93 00 00 	sts	0x0000, r18
  48:	80 93 00 00 	sts	0x0000, r24

	// configure timer 2 for phase correct pwm (8-bit)
#if defined(TCCR2) && defined(WGM20)
	sbi(TCCR2, WGM20);
#elif defined(TCCR2A) && defined(WGM20)
	sbi(TCCR2A, WGM20);
  4c:	90 93 00 00 	sts	0x0000, r25
  50:	a0 93 00 00 	sts	0x0000, r26
#endif

#if defined(ADCSRA)
	// set a2d prescaler so we are inside the desired 50-200 KHz range.
	#if F_CPU >= 16000000 // 16 MHz / 128 = 125 KHz
		sbi(ADCSRA, ADPS2);
  54:	b0 93 00 00 	sts	0x0000, r27
  58:	80 91 00 00 	lds	r24, 0x0000
  5c:	90 91 00 00 	lds	r25, 0x0000
		sbi(ADCSRA, ADPS1);
  60:	a0 91 00 00 	lds	r26, 0x0000
		sbi(ADCSRA, ADPS0);
  64:	b0 91 00 00 	lds	r27, 0x0000
  68:	01 96       	adiw	r24, 0x01	; 1
		cbi(ADCSRA, ADPS2);
		cbi(ADCSRA, ADPS1);
		sbi(ADCSRA, ADPS0);
	#endif
	// enable a2d conversions
	sbi(ADCSRA, ADEN);
  6a:	a1 1d       	adc	r26, r1
  6c:	b1 1d       	adc	r27, r1
  6e:	80 93 00 00 	sts	0x0000, r24
	// here so they can be used as normal digital i/o; they will be
	// reconnected in Serial.begin()
#if defined(UCSRB)
	UCSRB = 0;
#elif defined(UCSR0B)
	UCSR0B = 0;
  72:	90 93 00 00 	sts	0x0000, r25
  76:	a0 93 00 00 	sts	0x0000, r26
  7a:	b0 93 00 00 	sts	0x0000, r27
  7e:	bf 91       	pop	r27
  80:	af 91       	pop	r26
  82:	9f 91       	pop	r25
  84:	8f 91       	pop	r24
  86:	3f 91       	pop	r19
  88:	2f 91       	pop	r18
  8a:	0f 90       	pop	r0
  8c:	0f be       	out	0x3f, r0	; 63
  8e:	0f 90       	pop	r0
  90:	1f 90       	pop	r1
  92:	18 95       	reti

Disassembly of section .text.millis:

00000094 <millis>:
  94:	2f b7       	in	r18, 0x3f	; 63
  96:	f8 94       	cli
  98:	60 91 00 00 	lds	r22, 0x0000
  9c:	70 91 00 00 	lds	r23, 0x0000
  a0:	80 91 00 00 	lds	r24, 0x0000
  a4:	90 91 00 00 	lds	r25, 0x0000
  a8:	2f bf       	out	0x3f, r18	; 63
  aa:	08 95       	ret

Disassembly of section .text.micros:

00000140 <micros>:
 140:	3f b7       	in	r19, 0x3f	; 63
 142:	f8 94       	cli
 144:	80 91 00 00 	lds	r24, 0x0000
 148:	90 91 00 00 	lds	r25, 0x0000
 14c:	a0 91 00 00 	lds	r26, 0x0000
 150:	b0 91 00 00 	lds	r27, 0x0000
 154:	26 b5       	in	r18, 0x26	; 38
 156:	a8 9b       	sbis	0x15, 0	; 21
 158:	00 c0       	rjmp	.+0      	; 0x15a <micros+0x1a>
 15a:	2f 3f       	cpi	r18, 0xFF	; 255
 15c:	01 f0       	breq	.+0      	; 0x15e <micros+0x1e>
 15e:	01 96       	adiw	r24, 0x01	; 1
 160:	a1 1d       	adc	r26, r1
 162:	b1 1d       	adc	r27, r1
 164:	3f bf       	out	0x3f, r19	; 63
 166:	66 27       	eor	r22, r22
 168:	78 2f       	mov	r23, r24
 16a:	89 2f       	mov	r24, r25
 16c:	9a 2f       	mov	r25, r26
 16e:	62 0f       	add	r22, r18
 170:	71 1d       	adc	r23, r1
 172:	81 1d       	adc	r24, r1
 174:	91 1d       	adc	r25, r1
 176:	42 e0       	ldi	r20, 0x02	; 2
 178:	66 0f       	add	r22, r22
 17a:	77 1f       	adc	r23, r23
 17c:	88 1f       	adc	r24, r24
 17e:	99 1f       	adc	r25, r25
 180:	4a 95       	dec	r20
 182:	01 f4       	brne	.+0      	; 0x184 <micros+0x44>
 184:	08 95       	ret

Disassembly of section .text.delay:

000002c6 <delay>:
 2c6:	cf 92       	push	r12
 2c8:	df 92       	push	r13
 2ca:	ef 92       	push	r14
 2cc:	ff 92       	push	r15
 2ce:	cf 93       	push	r28
 2d0:	df 93       	push	r29
 2d2:	6b 01       	movw	r12, r22
 2d4:	7c 01       	movw	r14, r24
 2d6:	0e 94 00 00 	call	0	; 0x0 <timer0_fract>
 2da:	eb 01       	movw	r28, r22
 2dc:	c1 14       	cp	r12, r1
 2de:	d1 04       	cpc	r13, r1
 2e0:	e1 04       	cpc	r14, r1
 2e2:	f1 04       	cpc	r15, r1
 2e4:	01 f0       	breq	.+0      	; 0x2e6 <delay+0x20>
 2e6:	0e 94 00 00 	call	0	; 0x0 <timer0_fract>
 2ea:	0e 94 00 00 	call	0	; 0x0 <timer0_fract>
 2ee:	6c 1b       	sub	r22, r28
 2f0:	7d 0b       	sbc	r23, r29
 2f2:	68 3e       	cpi	r22, 0xE8	; 232
 2f4:	73 40       	sbci	r23, 0x03	; 3
 2f6:	00 f0       	brcs	.+0      	; 0x2f8 <delay+0x32>
 2f8:	81 e0       	ldi	r24, 0x01	; 1
 2fa:	c8 1a       	sub	r12, r24
 2fc:	d1 08       	sbc	r13, r1
 2fe:	e1 08       	sbc	r14, r1
 300:	f1 08       	sbc	r15, r1
 302:	c8 51       	subi	r28, 0x18	; 24
 304:	dc 4f       	sbci	r29, 0xFC	; 252
 306:	00 c0       	rjmp	.+0      	; 0x308 <delay+0x42>
 308:	df 91       	pop	r29
 30a:	cf 91       	pop	r28
 30c:	ff 90       	pop	r15
 30e:	ef 90       	pop	r14
 310:	df 90       	pop	r13
 312:	cf 90       	pop	r12
 314:	08 95       	ret

Disassembly of section .text.delayMicroseconds:

000005dc <delayMicroseconds>:
 5dc:	82 30       	cpi	r24, 0x02	; 2
 5de:	91 05       	cpc	r25, r1
 5e0:	00 f0       	brcs	.+0      	; 0x5e2 <delayMicroseconds+0x6>
 5e2:	88 0f       	add	r24, r24
 5e4:	99 1f       	adc	r25, r25
 5e6:	88 0f       	add	r24, r24
 5e8:	99 1f       	adc	r25, r25
 5ea:	05 97       	sbiw	r24, 0x05	; 5
 5ec:	01 97       	sbiw	r24, 0x01	; 1
 5ee:	01 f4       	brne	.+0      	; 0x5f0 <delayMicroseconds+0x14>
 5f0:	08 95       	ret

Disassembly of section .text.init:

00000bce <init>:
 bce:	78 94       	sei
 bd0:	84 b5       	in	r24, 0x24	; 36
 bd2:	82 60       	ori	r24, 0x02	; 2
 bd4:	84 bd       	out	0x24, r24	; 36
 bd6:	84 b5       	in	r24, 0x24	; 36
 bd8:	81 60       	ori	r24, 0x01	; 1
 bda:	84 bd       	out	0x24, r24	; 36
 bdc:	85 b5       	in	r24, 0x25	; 37
 bde:	82 60       	ori	r24, 0x02	; 2
 be0:	85 bd       	out	0x25, r24	; 37
 be2:	85 b5       	in	r24, 0x25	; 37
 be4:	81 60       	ori	r24, 0x01	; 1
 be6:	85 bd       	out	0x25, r24	; 37
 be8:	ee e6       	ldi	r30, 0x6E	; 110
 bea:	f0 e0       	ldi	r31, 0x00	; 0
 bec:	80 81       	ld	r24, Z
 bee:	81 60       	ori	r24, 0x01	; 1
 bf0:	80 83       	st	Z, r24
 bf2:	e1 e8       	ldi	r30, 0x81	; 129
 bf4:	f0 e0       	ldi	r31, 0x00	; 0
 bf6:	10 82       	st	Z, r1
 bf8:	80 81       	ld	r24, Z
 bfa:	82 60       	ori	r24, 0x02	; 2
 bfc:	80 83       	st	Z, r24
 bfe:	80 81       	ld	r24, Z
 c00:	81 60       	ori	r24, 0x01	; 1
 c02:	80 83       	st	Z, r24
 c04:	e0 e8       	ldi	r30, 0x80	; 128
 c06:	f0 e0       	ldi	r31, 0x00	; 0
 c08:	80 81       	ld	r24, Z
 c0a:	81 60       	ori	r24, 0x01	; 1
 c0c:	80 83       	st	Z, r24
 c0e:	e1 eb       	ldi	r30, 0xB1	; 177
 c10:	f0 e0       	ldi	r31, 0x00	; 0
 c12:	80 81       	ld	r24, Z
 c14:	84 60       	ori	r24, 0x04	; 4
 c16:	80 83       	st	Z, r24
 c18:	e0 eb       	ldi	r30, 0xB0	; 176
 c1a:	f0 e0       	ldi	r31, 0x00	; 0
 c1c:	80 81       	ld	r24, Z
 c1e:	81 60       	ori	r24, 0x01	; 1
 c20:	80 83       	st	Z, r24
 c22:	ea e7       	ldi	r30, 0x7A	; 122
 c24:	f0 e0       	ldi	r31, 0x00	; 0
 c26:	80 81       	ld	r24, Z
 c28:	84 60       	ori	r24, 0x04	; 4
 c2a:	80 83       	st	Z, r24
 c2c:	80 81       	ld	r24, Z
 c2e:	82 60       	ori	r24, 0x02	; 2
 c30:	80 83       	st	Z, r24
 c32:	80 81       	ld	r24, Z
 c34:	81 60       	ori	r24, 0x01	; 1
 c36:	80 83       	st	Z, r24
 c38:	80 81       	ld	r24, Z
 c3a:	80 68       	ori	r24, 0x80	; 128
 c3c:	80 83       	st	Z, r24
 c3e:	10 92 c1 00 	sts	0x00C1, r1
 c42:	08 95       	ret

wiring_analog.o:     file format elf32-avr

Sections:
Idx Name          Size      VMA       LMA       File off  Algn
  0 .text         00000000  00000000  00000000  00000034  2**0
                  CONTENTS, ALLOC, LOAD, READONLY, CODE
  1 .data         00000000  00000000  00000000  00000034  2**0
                  CONTENTS, ALLOC, LOAD, DATA
  2 .bss          00000000  00000000  00000000  00000034  2**0
                  ALLOC
  3 .stab         000008d0  00000000  00000000  00000034  2**2
                  CONTENTS, RELOC, READONLY, DEBUGGING
  4 .stabstr      00001013  00000000  00000000  00000904  2**0
                  CONTENTS, READONLY, DEBUGGING
  5 .text.analogReference 00000006  00000000  00000000  00001917  2**0
                  CONTENTS, ALLOC, LOAD, RELOC, READONLY, CODE
  6 .text.analogRead 0000003a  00000000  00000000  0000191d  2**0
                  CONTENTS, ALLOC, LOAD, RELOC, READONLY, CODE
  7 .text.analogWrite 000000be  00000000  00000000  00001957  2**0
                  CONTENTS, ALLOC, LOAD, RELOC, READONLY, CODE
  8 .data.analog_reference 00000001  00000000  00000000  00001a15  2**0
                  CONTENTS, ALLOC, LOAD, DATA
  9 .comment      00000012  00000000  00000000  00001a16  2**0
                  CONTENTS, READONLY

Disassembly of section .text.analogReference:

00000000 <analogReference>:
// Right now, PWM output only works on the pins with
// hardware support.  These are defined in the appropriate
// pins_*.c file.  For the rest of the pins, we default
// to digital output.
void analogWrite(uint8_t pin, int val)
{
   0:	80 93 00 00 	sts	0x0000, r24
   4:	08 95       	ret

Disassembly of section .text.analogRead:

00000006 <analogRead>:
   6:	8e 30       	cpi	r24, 0x0E	; 14
   8:	00 f0       	brcs	.+0      	; 0xa <analogRead+0x4>
	// We need to make sure the PWM output is enabled for those pins
	// that support it, as we turn it off when digitally reading or
	// writing with them.  Also, make sure the pin is in output mode
	// for consistenty with Wiring, which doesn't require a pinMode
	// call for the analog output pins.
	pinMode(pin, OUTPUT);
   a:	8e 50       	subi	r24, 0x0E	; 14
   c:	87 70       	andi	r24, 0x07	; 7
   e:	20 91 00 00 	lds	r18, 0x0000
	if (val == 0)
  12:	90 e4       	ldi	r25, 0x40	; 64
	{
		digitalWrite(pin, LOW);
  14:	29 9f       	mul	r18, r25
  16:	90 01       	movw	r18, r0
	}
	else if (val == 255)
  18:	11 24       	eor	r1, r1
  1a:	82 2b       	or	r24, r18
  1c:	80 93 7c 00 	sts	0x007C, r24
	{
		digitalWrite(pin, HIGH);
  20:	80 91 7a 00 	lds	r24, 0x007A
				} else {
					digitalWrite(pin, HIGH);
				}
		}
	}
}
  24:	80 64       	ori	r24, 0x40	; 64
  26:	80 93 7a 00 	sts	0x007A, r24
	{
		digitalWrite(pin, LOW);
	}
	else if (val == 255)
	{
		digitalWrite(pin, HIGH);
  2a:	80 91 7a 00 	lds	r24, 0x007A
	}
	else
	{
		switch(digitalPinToTimer(pin))
  2e:	86 fd       	sbrc	r24, 6
  30:	00 c0       	rjmp	.+0      	; 0x32 <analogRead+0x2c>
  32:	80 91 78 00 	lds	r24, 0x0078
  36:	20 91 79 00 	lds	r18, 0x0079
  3a:	90 e0       	ldi	r25, 0x00	; 0
  3c:	92 2b       	or	r25, r18
  3e:	08 95       	ret

Disassembly of section .text.analogWrite:

00000046 <analogWrite>:
			#endif

			#if defined(TCCR0A) && defined(COM0B1)
			case TIMER0B:
				// connect pwm to pin on timer 0, channel B
				sbi(TCCR0A, COM0B1);
  46:	1f 93       	push	r17
  48:	cf 93       	push	r28
				OCR0B = val; // set pwm duty
  4a:	df 93       	push	r29
				break;
  4c:	18 2f       	mov	r17, r24
	{
		digitalWrite(pin, HIGH);
	}
	else
	{
		switch(digitalPinToTimer(pin))
  4e:	eb 01       	movw	r28, r22
  50:	61 e0       	ldi	r22, 0x01	; 1
  52:	0e 94 00 00 	call	0	; 0x0 <__tmp_reg__>
  56:	20 97       	sbiw	r28, 0x00	; 0
  58:	01 f4       	brne	.+0      	; 0x5a <analogWrite+0x14>
			#endif

			#if defined(TCCR1A) && defined(COM1B1)
			case TIMER1B:
				// connect pwm to pin on timer 1, channel B
				sbi(TCCR1A, COM1B1);
  5a:	60 e0       	ldi	r22, 0x00	; 0
  5c:	00 c0       	rjmp	.+0      	; 0x5e <analogWrite+0x18>
  5e:	cf 3f       	cpi	r28, 0xFF	; 255
  60:	d1 05       	cpc	r29, r1
  62:	01 f4       	brne	.+0      	; 0x64 <analogWrite+0x1e>
				OCR1B = val; // set pwm duty
  64:	61 e0       	ldi	r22, 0x01	; 1
  66:	81 2f       	mov	r24, r17
  68:	df 91       	pop	r29
  6a:	cf 91       	pop	r28
				break;
  6c:	1f 91       	pop	r17
			#endif

			#if defined(TCCR0A) && defined(COM0A1)
			case TIMER0A:
				// connect pwm to pin on timer 0, channel A
				sbi(TCCR0A, COM0A1);
  6e:	0c 94 00 00 	jmp	0	; 0x0 <__tmp_reg__>
  72:	e1 2f       	mov	r30, r17
				OCR0A = val; // set pwm duty
  74:	f0 e0       	ldi	r31, 0x00	; 0
				break;
  76:	e0 50       	subi	r30, 0x00	; 0
			#endif

			#if defined(TCCR1A) && defined(COM1A1)
			case TIMER1A:
				// connect pwm to pin on timer 1, channel A
				sbi(TCCR1A, COM1A1);
  78:	f0 40       	sbci	r31, 0x00	; 0
  7a:	e4 91       	lpm	r30, Z
  7c:	e3 30       	cpi	r30, 0x03	; 3
  7e:	01 f0       	breq	.+0      	; 0x80 <analogWrite+0x3a>
  80:	00 f4       	brcc	.+0      	; 0x82 <analogWrite+0x3c>
				OCR1A = val; // set pwm duty
  82:	e1 30       	cpi	r30, 0x01	; 1
  84:	01 f0       	breq	.+0      	; 0x86 <analogWrite+0x40>
  86:	e2 30       	cpi	r30, 0x02	; 2
  88:	01 f4       	brne	.+0      	; 0x8a <analogWrite+0x44>
				break;
  8a:	84 b5       	in	r24, 0x24	; 36
			#endif

			#if defined(TCCR2A) && defined(COM2A1)
			case TIMER2A:
				// connect pwm to pin on timer 2, channel A
				sbi(TCCR2A, COM2A1);
  8c:	80 62       	ori	r24, 0x20	; 32
  8e:	84 bd       	out	0x24, r24	; 36
  90:	c8 bd       	out	0x28, r28	; 40
  92:	00 c0       	rjmp	.+0      	; 0x94 <analogWrite+0x4e>
  94:	e7 30       	cpi	r30, 0x07	; 7
				OCR2A = val; // set pwm duty
  96:	01 f0       	breq	.+0      	; 0x98 <analogWrite+0x52>
  98:	e8 30       	cpi	r30, 0x08	; 8
				break;
  9a:	01 f0       	breq	.+0      	; 0x9c <analogWrite+0x56>
			#endif

			#if defined(TCCR2A) && defined(COM2B1)
			case TIMER2B:
				// connect pwm to pin on timer 2, channel B
				sbi(TCCR2A, COM2B1);
  9c:	e4 30       	cpi	r30, 0x04	; 4
  9e:	01 f4       	brne	.+0      	; 0xa0 <analogWrite+0x5a>
  a0:	80 91 80 00 	lds	r24, 0x0080
  a4:	80 62       	ori	r24, 0x20	; 32
				OCR2B = val; // set pwm duty
  a6:	80 93 80 00 	sts	0x0080, r24
				break;
  aa:	d0 93 8b 00 	sts	0x008B, r29
				break;
			#endif

			case NOT_ON_TIMER:
			default:
				if (val < 128) {
  ae:	c0 93 8a 00 	sts	0x008A, r28
  b2:	00 c0       	rjmp	.+0      	; 0xb4 <analogWrite+0x6e>
  b4:	84 b5       	in	r24, 0x24	; 36
				} else {
					digitalWrite(pin, HIGH);
				}
		}
	}
}
  b6:	80 68       	ori	r24, 0x80	; 128
  b8:	84 bd       	out	0x24, r24	; 36
  ba:	c7 bd       	out	0x27, r28	; 39
  bc:	00 c0       	rjmp	.+0      	; 0xbe <analogWrite+0x78>
  be:	80 91 80 00 	lds	r24, 0x0080
  c2:	80 68       	ori	r24, 0x80	; 128
  c4:	80 93 80 00 	sts	0x0080, r24
  c8:	d0 93 89 00 	sts	0x0089, r29
  cc:	c0 93 88 00 	sts	0x0088, r28
  d0:	00 c0       	rjmp	.+0      	; 0xd2 <analogWrite+0x8c>
  d2:	80 91 b0 00 	lds	r24, 0x00B0
  d6:	80 68       	ori	r24, 0x80	; 128
  d8:	80 93 b0 00 	sts	0x00B0, r24
  dc:	c0 93 b3 00 	sts	0x00B3, r28
  e0:	00 c0       	rjmp	.+0      	; 0xe2 <analogWrite+0x9c>
  e2:	80 91 b0 00 	lds	r24, 0x00B0
  e6:	80 62       	ori	r24, 0x20	; 32
  e8:	80 93 b0 00 	sts	0x00B0, r24
  ec:	c0 93 b4 00 	sts	0x00B4, r28
  f0:	00 c0       	rjmp	.+0      	; 0xf2 <analogWrite+0xac>
  f2:	c0 38       	cpi	r28, 0x80	; 128
  f4:	d1 05       	cpc	r29, r1
  f6:	04 f0       	brlt	.+0      	; 0xf8 <analogWrite+0xb2>
  f8:	00 c0       	rjmp	.+0      	; 0xfa <analogWrite+0xb4>
  fa:	00 c0       	rjmp	.+0      	; 0xfc <analogWrite+0xb6>
  fc:	df 91       	pop	r29
  fe:	cf 91       	pop	r28
 100:	1f 91       	pop	r17
 102:	08 95       	ret

wiring_digital.o:     file format elf32-avr

Sections:
Idx Name          Size      VMA       LMA       File off  Algn
  0 .text         00000000  00000000  00000000  00000034  2**0
                  CONTENTS, ALLOC, LOAD, READONLY, CODE
  1 .data         00000000  00000000  00000000  00000034  2**0
                  CONTENTS, ALLOC, LOAD, DATA
  2 .bss          00000000  00000000  00000000  00000034  2**0
                  ALLOC
  3 .stab         00000b1c  00000000  00000000  00000034  2**2
                  CONTENTS, RELOC, READONLY, DEBUGGING
  4 .stabstr      000011af  00000000  00000000  00000b50  2**0
                  CONTENTS, READONLY, DEBUGGING
  5 .text.turnOffPWM 00000052  00000000  00000000  00001cff  2**0
                  CONTENTS, ALLOC, LOAD, RELOC, READONLY, CODE
  6 .text.pinMode 00000072  00000000  00000000  00001d51  2**0
                  CONTENTS, ALLOC, LOAD, RELOC, READONLY, CODE
  7 .text.digitalWrite 0000006c  00000000  00000000  00001dc3  2**0
                  CONTENTS, ALLOC, LOAD, RELOC, READONLY, CODE
  8 .text.digitalRead 00000052  00000000  00000000  00001e2f  2**0
                  CONTENTS, ALLOC, LOAD, RELOC, READONLY, CODE
  9 .progmem.data.digital_pin_to_timer_PGM 00000014  00000000  00000000  00001e81  2**0
                  CONTENTS, ALLOC, LOAD, READONLY, DATA
 10 .progmem.data.digital_pin_to_bit_mask_PGM 00000014  00000000  00000000  00001e95  2**0
                  CONTENTS, ALLOC, LOAD, READONLY, DATA
 11 .progmem.data.digital_pin_to_port_PGM 00000014  00000000  00000000  00001ea9  2**0
                  CONTENTS, ALLOC, LOAD, READONLY, DATA
 12 .progmem.data.port_to_input_PGM 0000000a  00000000  00000000  00001ebd  2**0
                  CONTENTS, ALLOC, LOAD, READONLY, DATA
 13 .progmem.data.port_to_output_PGM 0000000a  00000000  00000000  00001ec7  2**0
                  CONTENTS, ALLOC, LOAD, READONLY, DATA
 14 .progmem.data.port_to_mode_PGM 0000000a  00000000  00000000  00001ed1  2**0
                  CONTENTS, ALLOC, LOAD, READONLY, DATA
 15 .comment      00000012  00000000  00000000  00001edb  2**0
                  CONTENTS, READONLY

Disassembly of section .text.turnOffPWM:

00000000 <turnOffPWM>:

	SREG = oldSREG;
}

int digitalRead(uint8_t pin)
{
   0:	83 30       	cpi	r24, 0x03	; 3
   2:	01 f0       	breq	.+0      	; 0x4 <turnOffPWM+0x4>
	uint8_t timer = digitalPinToTimer(pin);
   4:	00 f4       	brcc	.+0      	; 0x6 <turnOffPWM+0x6>
   6:	81 30       	cpi	r24, 0x01	; 1
   8:	01 f0       	breq	.+0      	; 0xa <turnOffPWM+0xa>
   a:	82 30       	cpi	r24, 0x02	; 2
   c:	01 f0       	breq	.+0      	; 0xe <turnOffPWM+0xe>
   e:	08 95       	ret
	uint8_t bit = digitalPinToBitMask(pin);
  10:	87 30       	cpi	r24, 0x07	; 7
  12:	01 f0       	breq	.+0      	; 0x14 <turnOffPWM+0x14>
  14:	88 30       	cpi	r24, 0x08	; 8
  16:	01 f0       	breq	.+0      	; 0x18 <turnOffPWM+0x18>
	uint8_t port = digitalPinToPort(pin);
  18:	84 30       	cpi	r24, 0x04	; 4
  1a:	01 f4       	brne	.+0      	; 0x1c <turnOffPWM+0x1c>
  1c:	80 91 80 00 	lds	r24, 0x0080

	if (port == NOT_A_PIN) return LOW;
  20:	8f 7d       	andi	r24, 0xDF	; 223
  22:	00 c0       	rjmp	.+0      	; 0x24 <turnOffPWM+0x24>

	// If the pin that support PWM output, we need to turn it off
	// before getting a digital reading.
	if (timer != NOT_ON_TIMER) turnOffPWM(timer);
  24:	80 91 80 00 	lds	r24, 0x0080
  28:	8f 77       	andi	r24, 0x7F	; 127

	if (*portInputRegister(port) & bit) return HIGH;
  2a:	80 93 80 00 	sts	0x0080, r24
  2e:	08 95       	ret
  30:	84 b5       	in	r24, 0x24	; 36
  32:	8f 77       	andi	r24, 0x7F	; 127
  34:	00 c0       	rjmp	.+0      	; 0x36 <turnOffPWM+0x36>
  36:	84 b5       	in	r24, 0x24	; 36
  38:	8f 7d       	andi	r24, 0xDF	; 223
  3a:	84 bd       	out	0x24, r24	; 36
  3c:	08 95       	ret
  3e:	80 91 b0 00 	lds	r24, 0x00B0
  42:	8f 77       	andi	r24, 0x7F	; 127
  44:	00 c0       	rjmp	.+0      	; 0x46 <turnOffPWM+0x46>
  46:	80 91 b0 00 	lds	r24, 0x00B0
{
	uint8_t timer = digitalPinToTimer(pin);
	uint8_t bit = digitalPinToBitMask(pin);
	uint8_t port = digitalPinToPort(pin);

	if (port == NOT_A_PIN) return LOW;
  4a:	8f 7d       	andi	r24, 0xDF	; 223
	// before getting a digital reading.
	if (timer != NOT_ON_TIMER) turnOffPWM(timer);

	if (*portInputRegister(port) & bit) return HIGH;
	return LOW;
}
  4c:	80 93 b0 00 	sts	0x00B0, r24
  50:	08 95       	ret

Disassembly of section .text.pinMode:

00000052 <pinMode>:
  52:	cf 93       	push	r28
  54:	df 93       	push	r29
  56:	90 e0       	ldi	r25, 0x00	; 0
  58:	fc 01       	movw	r30, r24
  5a:	e0 50       	subi	r30, 0x00	; 0
  5c:	f0 40       	sbci	r31, 0x00	; 0
  5e:	24 91       	lpm	r18, Z
  60:	fc 01       	movw	r30, r24
  62:	e0 50       	subi	r30, 0x00	; 0
  64:	f0 40       	sbci	r31, 0x00	; 0
  66:	84 91       	lpm	r24, Z
  68:	88 23       	and	r24, r24
  6a:	01 f0       	breq	.+0      	; 0x6c <pinMode+0x1a>
  6c:	90 e0       	ldi	r25, 0x00	; 0
  6e:	88 0f       	add	r24, r24
  70:	99 1f       	adc	r25, r25
  72:	fc 01       	movw	r30, r24
  74:	e0 50       	subi	r30, 0x00	; 0
  76:	f0 40       	sbci	r31, 0x00	; 0
  78:	a5 91       	lpm	r26, Z+
  7a:	b4 91       	lpm	r27, Z
  7c:	80 50       	subi	r24, 0x00	; 0
  7e:	90 40       	sbci	r25, 0x00	; 0
  80:	fc 01       	movw	r30, r24
  82:	c5 91       	lpm	r28, Z+
  84:	d4 91       	lpm	r29, Z
  86:	9f b7       	in	r25, 0x3f	; 63
  88:	61 11       	cpse	r22, r1
  8a:	00 c0       	rjmp	.+0      	; 0x8c <pinMode+0x3a>
  8c:	f8 94       	cli
  8e:	8c 91       	ld	r24, X
  90:	20 95       	com	r18
  92:	82 23       	and	r24, r18
  94:	8c 93       	st	X, r24
  96:	88 81       	ld	r24, Y
  98:	82 23       	and	r24, r18
  9a:	00 c0       	rjmp	.+0      	; 0x9c <pinMode+0x4a>
  9c:	62 30       	cpi	r22, 0x02	; 2
  9e:	01 f4       	brne	.+0      	; 0xa0 <pinMode+0x4e>
  a0:	f8 94       	cli
  a2:	8c 91       	ld	r24, X
  a4:	32 2f       	mov	r19, r18
  a6:	30 95       	com	r19
  a8:	83 23       	and	r24, r19
  aa:	8c 93       	st	X, r24
  ac:	88 81       	ld	r24, Y
  ae:	82 2b       	or	r24, r18
  b0:	88 83       	st	Y, r24
  b2:	00 c0       	rjmp	.+0      	; 0xb4 <pinMode+0x62>
  b4:	f8 94       	cli
  b6:	8c 91       	ld	r24, X
  b8:	82 2b       	or	r24, r18
  ba:	8c 93       	st	X, r24
  bc:	9f bf       	out	0x3f, r25	; 63
  be:	df 91       	pop	r29
  c0:	cf 91       	pop	r28
  c2:	08 95       	ret

Disassembly of section .text.digitalWrite:

00000116 <digitalWrite>:
 116:	0f 93       	push	r16
 118:	1f 93       	push	r17
 11a:	cf 93       	push	r28
 11c:	df 93       	push	r29
 11e:	1f 92       	push	r1
 120:	cd b7       	in	r28, 0x3d	; 61
 122:	de b7       	in	r29, 0x3e	; 62
 124:	28 2f       	mov	r18, r24
 126:	30 e0       	ldi	r19, 0x00	; 0
 128:	f9 01       	movw	r30, r18
 12a:	e0 50       	subi	r30, 0x00	; 0
 12c:	f0 40       	sbci	r31, 0x00	; 0
 12e:	84 91       	lpm	r24, Z
 130:	f9 01       	movw	r30, r18
 132:	e0 50       	subi	r30, 0x00	; 0
 134:	f0 40       	sbci	r31, 0x00	; 0
 136:	14 91       	lpm	r17, Z
 138:	f9 01       	movw	r30, r18
 13a:	e0 50       	subi	r30, 0x00	; 0
 13c:	f0 40       	sbci	r31, 0x00	; 0
 13e:	04 91       	lpm	r16, Z
 140:	00 23       	and	r16, r16
 142:	01 f0       	breq	.+0      	; 0x144 <digitalWrite+0x2e>
 144:	88 23       	and	r24, r24
 146:	01 f0       	breq	.+0      	; 0x148 <digitalWrite+0x32>
 148:	69 83       	std	Y+1, r22	; 0x01
 14a:	0e 94 00 00 	call	0	; 0x0 <__tmp_reg__>
 14e:	69 81       	ldd	r22, Y+1	; 0x01
 150:	e0 2f       	mov	r30, r16
 152:	f0 e0       	ldi	r31, 0x00	; 0
 154:	ee 0f       	add	r30, r30
 156:	ff 1f       	adc	r31, r31
 158:	e0 50       	subi	r30, 0x00	; 0
 15a:	f0 40       	sbci	r31, 0x00	; 0
 15c:	a5 91       	lpm	r26, Z+
 15e:	b4 91       	lpm	r27, Z
 160:	9f b7       	in	r25, 0x3f	; 63
 162:	f8 94       	cli
 164:	8c 91       	ld	r24, X
 166:	61 11       	cpse	r22, r1
 168:	00 c0       	rjmp	.+0      	; 0x16a <digitalWrite+0x54>
 16a:	10 95       	com	r17
 16c:	81 23       	and	r24, r17
 16e:	00 c0       	rjmp	.+0      	; 0x170 <digitalWrite+0x5a>
 170:	81 2b       	or	r24, r17
 172:	8c 93       	st	X, r24
 174:	9f bf       	out	0x3f, r25	; 63
 176:	0f 90       	pop	r0
 178:	df 91       	pop	r29
 17a:	cf 91       	pop	r28
 17c:	1f 91       	pop	r17
 17e:	0f 91       	pop	r16
 180:	08 95       	ret

Disassembly of section .text.digitalRead:

00000298 <digitalRead>:
 298:	cf 93       	push	r28
 29a:	df 93       	push	r29
 29c:	28 2f       	mov	r18, r24
 29e:	30 e0       	ldi	r19, 0x00	; 0
 2a0:	f9 01       	movw	r30, r18
 2a2:	e0 50       	subi	r30, 0x00	; 0
 2a4:	f0 40       	sbci	r31, 0x00	; 0
 2a6:	84 91       	lpm	r24, Z
 2a8:	f9 01       	movw	r30, r18
 2aa:	e0 50       	subi	r30, 0x00	; 0
 2ac:	f0 40       	sbci	r31, 0x00	; 0
 2ae:	d4 91       	lpm	r29, Z
 2b0:	f9 01       	movw	r30, r18
 2b2:	e0 50       	subi	r30, 0x00	; 0
 2b4:	f0 40       	sbci	r31, 0x00	; 0
 2b6:	c4 91       	lpm	r28, Z
 2b8:	cc 23       	and	r28, r28
 2ba:	01 f0       	breq	.+0      	; 0x2bc <digitalRead+0x24>
 2bc:	81 11       	cpse	r24, r1
 2be:	0e 94 00 00 	call	0	; 0x0 <__tmp_reg__>
 2c2:	ec 2f       	mov	r30, r28
 2c4:	f0 e0       	ldi	r31, 0x00	; 0
 2c6:	ee 0f       	add	r30, r30
 2c8:	ff 1f       	adc	r31, r31
 2ca:	e0 50       	subi	r30, 0x00	; 0
 2cc:	f0 40       	sbci	r31, 0x00	; 0
 2ce:	a5 91       	lpm	r26, Z+
 2d0:	b4 91       	lpm	r27, Z
 2d2:	2c 91       	ld	r18, X
 2d4:	2d 23       	and	r18, r29
 2d6:	81 e0       	ldi	r24, 0x01	; 1
 2d8:	90 e0       	ldi	r25, 0x00	; 0
 2da:	01 f4       	brne	.+0      	; 0x2dc <digitalRead+0x44>
 2dc:	80 e0       	ldi	r24, 0x00	; 0
 2de:	00 c0       	rjmp	.+0      	; 0x2e0 <digitalRead+0x48>
 2e0:	80 e0       	ldi	r24, 0x00	; 0
 2e2:	90 e0       	ldi	r25, 0x00	; 0
 2e4:	df 91       	pop	r29
 2e6:	cf 91       	pop	r28
 2e8:	08 95       	ret

wiring_pulse.o:     file format elf32-avr

Sections:
Idx Name          Size      VMA       LMA       File off  Algn
  0 .text         00000000  00000000  00000000  00000034  2**0
                  CONTENTS, ALLOC, LOAD, READONLY, CODE
  1 .data         00000000  00000000  00000000  00000034  2**0
                  CONTENTS, ALLOC, LOAD, DATA
  2 .bss          00000000  00000000  00000000  00000034  2**0
                  ALLOC
  3 .stab         000008a0  00000000  00000000  00000034  2**2
                  CONTENTS, RELOC, READONLY, DEBUGGING
  4 .stabstr      0000103c  00000000  00000000  000008d4  2**0
                  CONTENTS, READONLY, DEBUGGING
  5 .text.pulseIn 00000058  00000000  00000000  00001910  2**0
                  CONTENTS, ALLOC, LOAD, RELOC, READONLY, CODE
  6 .text.pulseInLong 0000015e  00000000  00000000  00001968  2**0
                  CONTENTS, ALLOC, LOAD, RELOC, READONLY, CODE
  7 .comment      00000012  00000000  00000000  00001ac6  2**0
                  CONTENTS, READONLY

Disassembly of section .text.pulseIn:

00000000 <pulseIn>:
 *
 * ATTENTION:
 * this function relies on micros() so cannot be used in noInterrupt() context
 */
unsigned long pulseInLong(uint8_t pin, uint8_t state, unsigned long timeout)
{
   0:	0f 93       	push	r16
   2:	1f 93       	push	r17
   4:	76 2f       	mov	r23, r22
   6:	90 e0       	ldi	r25, 0x00	; 0
   8:	fc 01       	movw	r30, r24
   a:	e0 50       	subi	r30, 0x00	; 0
   c:	f0 40       	sbci	r31, 0x00	; 0
   e:	64 91       	lpm	r22, Z
  10:	fc 01       	movw	r30, r24
  12:	e0 50       	subi	r30, 0x00	; 0
  14:	f0 40       	sbci	r31, 0x00	; 0
  16:	e4 91       	lpm	r30, Z
  18:	71 11       	cpse	r23, r1
  1a:	76 2f       	mov	r23, r22
  1c:	f0 e0       	ldi	r31, 0x00	; 0
  1e:	ee 0f       	add	r30, r30
  20:	ff 1f       	adc	r31, r31
  22:	e0 50       	subi	r30, 0x00	; 0
  24:	f0 40       	sbci	r31, 0x00	; 0
  26:	85 91       	lpm	r24, Z+
	// cache the port and bit of the pin in order to speed up the
	// pulse width measuring loop and achieve finer resolution.  calling
	// digitalRead() instead yields much coarser resolution.
	uint8_t bit = digitalPinToBitMask(pin);
  28:	94 91       	lpm	r25, Z
  2a:	89 01       	movw	r16, r18
  2c:	9a 01       	movw	r18, r20
  2e:	3f 70       	andi	r19, 0x0F	; 15
  30:	47 2f       	mov	r20, r23
	uint8_t port = digitalPinToPort(pin);
  32:	0e 94 00 00 	call	0	; 0x0 <pulseIn>
  36:	61 15       	cp	r22, r1
  38:	71 05       	cpc	r23, r1
	uint8_t stateMask = (state ? bit : 0);
  3a:	81 05       	cpc	r24, r1
  3c:	91 05       	cpc	r25, r1
  3e:	01 f0       	breq	.+0      	; 0x40 <pulseIn+0x40>
  40:	6f 5f       	subi	r22, 0xFF	; 255
  42:	7f 4f       	sbci	r23, 0xFF	; 255

	unsigned long startMicros = micros();
  44:	8f 4f       	sbci	r24, 0xFF	; 255
  46:	9f 4f       	sbci	r25, 0xFF	; 255
  48:	9f 70       	andi	r25, 0x0F	; 15
  4a:	00 c0       	rjmp	.+0      	; 0x4c <pulseIn+0x4c>
  4c:	60 e0       	ldi	r22, 0x00	; 0
  4e:	70 e0       	ldi	r23, 0x00	; 0
  50:	cb 01       	movw	r24, r22
  52:	1f 91       	pop	r17

	// wait for any previous pulse to end
	while ((*portInputRegister(port) & bit) == stateMask) {
  54:	0f 91       	pop	r16
  56:	08 95       	ret

Disassembly of section .text.pulseInLong:

00000058 <pulseInLong>:
  58:	4f 92       	push	r4
  5a:	5f 92       	push	r5
  5c:	6f 92       	push	r6
  5e:	7f 92       	push	r7
  60:	8f 92       	push	r8
  62:	9f 92       	push	r9
  64:	af 92       	push	r10
  66:	bf 92       	push	r11
  68:	cf 92       	push	r12
  6a:	df 92       	push	r13
  6c:	ef 92       	push	r14
  6e:	ff 92       	push	r15
  70:	0f 93       	push	r16
  72:	1f 93       	push	r17
  74:	cf 93       	push	r28
  76:	df 93       	push	r29
  78:	00 d0       	rcall	.+0      	; 0x7a <pulseInLong+0x22>
		if (micros() - startMicros > timeout)
  7a:	00 d0       	rcall	.+0      	; 0x7c <pulseInLong+0x24>
  7c:	cd b7       	in	r28, 0x3d	; 61
  7e:	de b7       	in	r29, 0x3e	; 62
  80:	90 e0       	ldi	r25, 0x00	; 0
  82:	fc 01       	movw	r30, r24
  84:	e0 50       	subi	r30, 0x00	; 0
  86:	f0 40       	sbci	r31, 0x00	; 0
  88:	a4 90       	lpm	r10, Z
  8a:	fc 01       	movw	r30, r24
  8c:	e0 50       	subi	r30, 0x00	; 0
  8e:	f0 40       	sbci	r31, 0x00	; 0
  90:	84 90       	lpm	r8, Z
  92:	61 11       	cpse	r22, r1
  94:	00 c0       	rjmp	.+0      	; 0x96 <pulseInLong+0x3e>
  96:	b1 2c       	mov	r11, r1
  98:	00 c0       	rjmp	.+0      	; 0x9a <pulseInLong+0x42>
  9a:	ba 2c       	mov	r11, r10
  9c:	29 83       	std	Y+1, r18	; 0x01
  9e:	3a 83       	std	Y+2, r19	; 0x02
			return 0;
  a0:	4b 83       	std	Y+3, r20	; 0x03
  a2:	5c 83       	std	Y+4, r21	; 0x04
  a4:	0e 94 00 00 	call	0	; 0x0 <__tmp_reg__>
	}

	// wait for the pulse to start
	while ((*portInputRegister(port) & bit) != stateMask) {
  a8:	6b 01       	movw	r12, r22
  aa:	7c 01       	movw	r14, r24
  ac:	91 2c       	mov	r9, r1
  ae:	88 0c       	add	r8, r8
  b0:	99 1c       	adc	r9, r9
  b2:	c4 01       	movw	r24, r8
		if (micros() - startMicros > timeout)
  b4:	80 50       	subi	r24, 0x00	; 0
  b6:	90 40       	sbci	r25, 0x00	; 0
  b8:	4c 01       	movw	r8, r24
  ba:	fc 01       	movw	r30, r24
		if (micros() - startMicros > timeout)
			return 0;
	}

	// wait for the pulse to start
	while ((*portInputRegister(port) & bit) != stateMask) {
  bc:	05 91       	lpm	r16, Z+
  be:	14 91       	lpm	r17, Z
		if (micros() - startMicros > timeout)
  c0:	29 81       	ldd	r18, Y+1	; 0x01
  c2:	3a 81       	ldd	r19, Y+2	; 0x02
  c4:	4b 81       	ldd	r20, Y+3	; 0x03
  c6:	5c 81       	ldd	r21, Y+4	; 0x04
  c8:	f8 01       	movw	r30, r16
  ca:	80 81       	ld	r24, Z
  cc:	8a 21       	and	r24, r10
  ce:	8b 11       	cpse	r24, r11
  d0:	00 c0       	rjmp	.+0      	; 0xd2 <pulseInLong+0x7a>
  d2:	29 83       	std	Y+1, r18	; 0x01
  d4:	3a 83       	std	Y+2, r19	; 0x02
  d6:	4b 83       	std	Y+3, r20	; 0x03
  d8:	5c 83       	std	Y+4, r21	; 0x04
  da:	0e 94 00 00 	call	0	; 0x0 <__tmp_reg__>
  de:	6c 19       	sub	r22, r12
			return 0;
	}

	unsigned long start = micros();
  e0:	7d 09       	sbc	r23, r13
  e2:	8e 09       	sbc	r24, r14
  e4:	9f 09       	sbc	r25, r15
  e6:	29 81       	ldd	r18, Y+1	; 0x01
	// wait for the pulse to stop
	while ((*portInputRegister(port) & bit) == stateMask) {
  e8:	3a 81       	ldd	r19, Y+2	; 0x02
  ea:	4b 81       	ldd	r20, Y+3	; 0x03
  ec:	5c 81       	ldd	r21, Y+4	; 0x04
  ee:	26 17       	cp	r18, r22
  f0:	37 07       	cpc	r19, r23
  f2:	48 07       	cpc	r20, r24
  f4:	59 07       	cpc	r21, r25
  f6:	00 f4       	brcc	.+0      	; 0xf8 <pulseInLong+0xa0>
  f8:	60 e0       	ldi	r22, 0x00	; 0
  fa:	70 e0       	ldi	r23, 0x00	; 0
  fc:	cb 01       	movw	r24, r22
  fe:	00 c0       	rjmp	.+0      	; 0x100 <pulseInLong+0xa8>
		if (micros() - startMicros > timeout)
 100:	f4 01       	movw	r30, r8
 102:	05 91       	lpm	r16, Z+
 104:	14 91       	lpm	r17, Z
 106:	f8 01       	movw	r30, r16
 108:	80 81       	ld	r24, Z
 10a:	8a 21       	and	r24, r10
 10c:	29 83       	std	Y+1, r18	; 0x01
 10e:	3a 83       	std	Y+2, r19	; 0x02
 110:	4b 83       	std	Y+3, r20	; 0x03
 112:	5c 83       	std	Y+4, r21	; 0x04
 114:	8b 15       	cp	r24, r11
 116:	01 f0       	breq	.+0      	; 0x118 <pulseInLong+0xc0>
 118:	0e 94 00 00 	call	0	; 0x0 <__tmp_reg__>
 11c:	6c 19       	sub	r22, r12
 11e:	7d 09       	sbc	r23, r13
 120:	8e 09       	sbc	r24, r14
 122:	9f 09       	sbc	r25, r15
 124:	29 81       	ldd	r18, Y+1	; 0x01
 126:	3a 81       	ldd	r19, Y+2	; 0x02
			return 0;
	}
	return micros() - start;
 128:	4b 81       	ldd	r20, Y+3	; 0x03
 12a:	5c 81       	ldd	r21, Y+4	; 0x04
 12c:	26 17       	cp	r18, r22
 12e:	37 07       	cpc	r19, r23
 130:	48 07       	cpc	r20, r24
 132:	59 07       	cpc	r21, r25
}
 134:	00 f4       	brcc	.+0      	; 0x136 <pulseInLong+0xde>
 136:	00 c0       	rjmp	.+0      	; 0x138 <pulseInLong+0xe0>
 138:	0e 94 00 00 	call	0	; 0x0 <__tmp_reg__>
 13c:	2b 01       	movw	r4, r22
 13e:	3c 01       	movw	r6, r24
 140:	f4 01       	movw	r30, r8
 142:	05 91       	lpm	r16, Z+
 144:	14 91       	lpm	r17, Z
 146:	29 81       	ldd	r18, Y+1	; 0x01
 148:	3a 81       	ldd	r19, Y+2	; 0x02
 14a:	4b 81       	ldd	r20, Y+3	; 0x03
 14c:	5c 81       	ldd	r21, Y+4	; 0x04
 14e:	f8 01       	movw	r30, r16
 150:	80 81       	ld	r24, Z
 152:	8a 21       	and	r24, r10
 154:	8b 11       	cpse	r24, r11
 156:	00 c0       	rjmp	.+0      	; 0x158 <pulseInLong+0x100>
 158:	29 83       	std	Y+1, r18	; 0x01
 15a:	3a 83       	std	Y+2, r19	; 0x02
 15c:	4b 83       	std	Y+3, r20	; 0x03
 15e:	5c 83       	std	Y+4, r21	; 0x04
 160:	0e 94 00 00 	call	0	; 0x0 <__tmp_reg__>
 164:	6c 19       	sub	r22, r12
 166:	7d 09       	sbc	r23, r13
 168:	8e 09       	sbc	r24, r14
 16a:	9f 09       	sbc	r25, r15
 16c:	29 81       	ldd	r18, Y+1	; 0x01
 16e:	3a 81       	ldd	r19, Y+2	; 0x02
 170:	4b 81       	ldd	r20, Y+3	; 0x03
 172:	5c 81       	ldd	r21, Y+4	; 0x04
 174:	26 17       	cp	r18, r22
 176:	37 07       	cpc	r19, r23
 178:	48 07       	cpc	r20, r24
 17a:	59 07       	cpc	r21, r25
 17c:	00 f4       	brcc	.+0      	; 0x17e <pulseInLong+0x126>
 17e:	00 c0       	rjmp	.+0      	; 0x180 <pulseInLong+0x128>
 180:	0e 94 00 00 	call	0	; 0x0 <__tmp_reg__>
 184:	64 19       	sub	r22, r4
 186:	75 09       	sbc	r23, r5
 188:	86 09       	sbc	r24, r6
 18a:	97 09       	sbc	r25, r7
 18c:	0f 90       	pop	r0
 18e:	0f 90       	pop	r0
 190:	0f 90       	pop	r0
 192:	0f 90       	pop	r0
 194:	df 91       	pop	r29
 196:	cf 91       	pop	r28
 198:	1f 91       	pop	r17
 19a:	0f 91       	pop	r16
 19c:	ff 90       	pop	r15
 19e:	ef 90       	pop	r14
 1a0:	df 90       	pop	r13
 1a2:	cf 90       	pop	r12
 1a4:	bf 90       	pop	r11
 1a6:	af 90       	pop	r10
 1a8:	9f 90       	pop	r9
 1aa:	8f 90       	pop	r8
 1ac:	7f 90       	pop	r7
 1ae:	6f 90       	pop	r6
 1b0:	5f 90       	pop	r5
 1b2:	4f 90       	pop	r4
 1b4:	08 95       	ret

wiring_shift.o:     file format elf32-avr

Sections:
Idx Name          Size      VMA       LMA       File off  Algn
  0 .text         00000000  00000000  00000000  00000034  2**0
                  CONTENTS, ALLOC, LOAD, READONLY, CODE
  1 .data         00000000  00000000  00000000  00000034  2**0
                  CONTENTS, ALLOC, LOAD, DATA
  2 .bss          00000000  00000000  00000000  00000034  2**0
                  ALLOC
  3 .stab         000007b0  00000000  00000000  00000034  2**2
                  CONTENTS, RELOC, READONLY, DEBUGGING
  4 .stabstr      0000100d  00000000  00000000  000007e4  2**0
                  CONTENTS, READONLY, DEBUGGING
  5 .text.shiftIn 0000006a  00000000  00000000  000017f1  2**0
                  CONTENTS, ALLOC, LOAD, RELOC, READONLY, CODE
  6 .text.shiftOut 0000007e  00000000  00000000  0000185b  2**0
                  CONTENTS, ALLOC, LOAD, RELOC, READONLY, CODE
  7 .comment      00000012  00000000  00000000  000018d9  2**0
                  CONTENTS, READONLY

Disassembly of section .text.shiftIn:

00000000 <shiftIn>:
	}
	return value;
}

void shiftOut(uint8_t dataPin, uint8_t clockPin, uint8_t bitOrder, uint8_t val)
{
   0:	cf 92       	push	r12
   2:	df 92       	push	r13
   4:	ef 92       	push	r14
   6:	ff 92       	push	r15
   8:	0f 93       	push	r16
   a:	1f 93       	push	r17
   c:	cf 93       	push	r28
   e:	df 93       	push	r29
  10:	d8 2e       	mov	r13, r24
  12:	e6 2e       	mov	r14, r22
  14:	c4 2e       	mov	r12, r20
  16:	c7 e0       	ldi	r28, 0x07	; 7
  18:	d0 e0       	ldi	r29, 0x00	; 0
  1a:	f1 2c       	mov	r15, r1
  1c:	07 e0       	ldi	r16, 0x07	; 7
  1e:	10 e0       	ldi	r17, 0x00	; 0
  20:	61 e0       	ldi	r22, 0x01	; 1
  22:	8e 2d       	mov	r24, r14
  24:	0e 94 00 00 	call	0	; 0x0 <shiftIn>
	uint8_t i;

	for (i = 0; i < 8; i++)  {
		if (bitOrder == LSBFIRST)
  28:	8d 2d       	mov	r24, r13
  2a:	c1 10       	cpse	r12, r1
  2c:	00 c0       	rjmp	.+0      	; 0x2e <shiftIn+0x2e>
  2e:	0e 94 00 00 	call	0	; 0x0 <shiftIn>
			digitalWrite(dataPin, !!(val & (1 << i)));
  32:	98 01       	movw	r18, r16
  34:	2c 1b       	sub	r18, r28
  36:	3d 0b       	sbc	r19, r29
  38:	00 c0       	rjmp	.+0      	; 0x3a <shiftIn+0x3a>
  3a:	0e 94 00 00 	call	0	; 0x0 <shiftIn>
		else	
			digitalWrite(dataPin, !!(val & (1 << (7 - i))));
  3e:	2c 2f       	mov	r18, r28
  40:	00 c0       	rjmp	.+0      	; 0x42 <shiftIn+0x42>
  42:	88 0f       	add	r24, r24
  44:	2a 95       	dec	r18
  46:	02 f4       	brpl	.+0      	; 0x48 <shiftIn+0x48>
  48:	f8 2a       	or	r15, r24
  4a:	60 e0       	ldi	r22, 0x00	; 0
  4c:	8e 2d       	mov	r24, r14
  4e:	0e 94 00 00 	call	0	; 0x0 <shiftIn>
  52:	21 97       	sbiw	r28, 0x01	; 1
  54:	00 f4       	brcc	.+0      	; 0x56 <shiftIn+0x56>
			
		digitalWrite(clockPin, HIGH);
  56:	8f 2d       	mov	r24, r15
  58:	df 91       	pop	r29
  5a:	cf 91       	pop	r28
  5c:	1f 91       	pop	r17
		digitalWrite(clockPin, LOW);		
  5e:	0f 91       	pop	r16
  60:	ff 90       	pop	r15
  62:	ef 90       	pop	r14
  64:	df 90       	pop	r13
  66:	cf 90       	pop	r12
  68:	08 95       	ret

Disassembly of section .text.shiftOut:

0000006a <shiftOut>:
	}
}
  6a:	bf 92       	push	r11
  6c:	cf 92       	push	r12
  6e:	df 92       	push	r13
  70:	ef 92       	push	r14
  72:	ff 92       	push	r15
  74:	0f 93       	push	r16
  76:	1f 93       	push	r17
  78:	cf 93       	push	r28
  7a:	df 93       	push	r29
  7c:	c8 2e       	mov	r12, r24
  7e:	d6 2e       	mov	r13, r22
  80:	b4 2e       	mov	r11, r20
  82:	c7 e0       	ldi	r28, 0x07	; 7
  84:	d0 e0       	ldi	r29, 0x00	; 0
  86:	02 2f       	mov	r16, r18
  88:	10 e0       	ldi	r17, 0x00	; 0
  8a:	87 e0       	ldi	r24, 0x07	; 7
  8c:	e8 2e       	mov	r14, r24
  8e:	f1 2c       	mov	r15, r1
  90:	b1 10       	cpse	r11, r1
  92:	00 c0       	rjmp	.+0      	; 0x94 <shiftOut+0x2a>
  94:	f7 01       	movw	r30, r14
  96:	ec 1b       	sub	r30, r28
  98:	fd 0b       	sbc	r31, r29
  9a:	b8 01       	movw	r22, r16
  9c:	00 c0       	rjmp	.+0      	; 0x9e <shiftOut+0x34>
  9e:	75 95       	asr	r23
  a0:	67 95       	ror	r22
  a2:	ea 95       	dec	r30
  a4:	02 f4       	brpl	.+0      	; 0xa6 <shiftOut+0x3c>
  a6:	00 c0       	rjmp	.+0      	; 0xa8 <shiftOut+0x3e>
  a8:	b8 01       	movw	r22, r16
  aa:	0c 2e       	mov	r0, r28
  ac:	00 c0       	rjmp	.+0      	; 0xae <shiftOut+0x44>
  ae:	75 95       	asr	r23
  b0:	67 95       	ror	r22
  b2:	0a 94       	dec	r0
  b4:	02 f4       	brpl	.+0      	; 0xb6 <shiftOut+0x4c>
  b6:	61 70       	andi	r22, 0x01	; 1
  b8:	77 27       	eor	r23, r23
  ba:	8c 2d       	mov	r24, r12
  bc:	0e 94 00 00 	call	0	; 0x0 <__tmp_reg__>
  c0:	61 e0       	ldi	r22, 0x01	; 1
  c2:	8d 2d       	mov	r24, r13
  c4:	0e 94 00 00 	call	0	; 0x0 <__tmp_reg__>
  c8:	60 e0       	ldi	r22, 0x00	; 0
  ca:	8d 2d       	mov	r24, r13
  cc:	0e 94 00 00 	call	0	; 0x0 <__tmp_reg__>
  d0:	21 97       	sbiw	r28, 0x01	; 1
  d2:	00 f4       	brcc	.+0      	; 0xd4 <shiftOut+0x6a>
  d4:	df 91       	pop	r29
  d6:	cf 91       	pop	r28
  d8:	1f 91       	pop	r17
  da:	0f 91       	pop	r16
  dc:	ff 90       	pop	r15
  de:	ef 90       	pop	r14
  e0:	df 90       	pop	r13
  e2:	cf 90       	pop	r12
  e4:	bf 90       	pop	r11
  e6:	08 95       	ret
